
Symbol table '.dynsym' contains 11962 entries:
   Num:    Value          Size Type    Bind   Vis      Ndx Name
     0: 0000000000000000     0 NOTYPE  LOCAL  DEFAULT  UND 
     1: 0000000000000000     0 FUNC    GLOBAL DEFAULT  UND _Znam@GLIBCXX_3.4 (2)
     2: 0000000000000000     0 FUNC    GLOBAL DEFAULT  UND _ZNSo3putEc@GLIBCXX_3.4 (2)
     3: 0000000000000000     0 FUNC    GLOBAL DEFAULT  UND __errno_location@GLIBC_2.2.5 (3)
     4: 0000000000000000     0 NOTYPE  GLOBAL DEFAULT  UND cblas_stpmv
     5: 0000000000000000     0 FUNC    GLOBAL DEFAULT  UND _ZNSt8__detail15_List_node_base7_M_hookEPS0_@GLIBCXX_3.4.15 (4)
     6: 0000000000000000     0 FUNC    GLOBAL DEFAULT  UND isspace@GLIBC_2.2.5 (3)
     7: 0000000000000000     0 FUNC    GLOBAL DEFAULT  UND _ZNSirsERs@GLIBCXX_3.4 (2)
     8: 0000000000000000     0 FUNC    GLOBAL DEFAULT  UND atan2@GLIBC_2.2.5 (5)
     9: 0000000000000000     0 FUNC    GLOBAL DEFAULT  UND _ZNSt7__cxx1112basic_stringIcSt11char_traitsIcESaIcEE6appendEPKcm@GLIBCXX_3.4.21 (6)
    10: 0000000000000000     0 OBJECT  GLOBAL DEFAULT  UND _ZTINSt6thread6_StateE@GLIBCXX_3.4.22 (7)
    11: 0000000000000000     0 NOTYPE  GLOBAL DEFAULT  UND _ZN3fst14FstReadOptionsC1ERKNSt7__cxx1112basic_stringIcSt11char_traitsIcESaIcEEEPKNS_9FstHeaderEPKNS_11SymbolTableESE_
    12: 0000000000000000     0 FUNC    GLOBAL DEFAULT  UND _ZNSt13basic_filebufIcSt11char_traitsIcEE8overflowEi@GLIBCXX_3.4 (2)
    13: 0000000000000000     0 FUNC    GLOBAL DEFAULT  UND _ZSt29_Rb_tree_insert_and_rebalancebPSt18_Rb_tree_node_baseS0_RS_@GLIBCXX_3.4 (2)
    14: 0000000000000000     0 FUNC    GLOBAL DEFAULT  UND _ZSt11_Hash_bytesPKvmm@CXXABI_1.3.5 (8)
    15: 0000000000000000     0 OBJECT  GLOBAL DEFAULT  UND _ZTVSt9basic_iosIcSt11char_traitsIcEE@GLIBCXX_3.4 (2)
    16: 0000000000000000     0 NOTYPE  GLOBAL DEFAULT  UND cblas_ddot
    17: 0000000000000000     0 FUNC    GLOBAL DEFAULT  UND sin@GLIBC_2.2.5 (5)
    18: 0000000000000000     0 FUNC    GLOBAL DEFAULT  UND _ZNSt13basic_filebufIcSt11char_traitsIcEE5closeEv@GLIBCXX_3.4 (2)
    19: 0000000000000000     0 FUNC    GLOBAL DEFAULT  UND _ZNSt7__cxx1112basic_stringIcSt11char_traitsIcESaIcEE5eraseEmm@GLIBCXX_3.4.21 (6)
    20: 0000000000000000     0 FUNC    GLOBAL DEFAULT  UND _ZNKSt12__basic_fileIcE7is_openEv@GLIBCXX_3.4 (2)
    21: 0000000000000000     0 FUNC    GLOBAL DEFAULT  UND hypotf@GLIBC_2.35 (9)
    22: 0000000000000000     0 FUNC    GLOBAL DEFAULT  UND _ZNSt7__cxx1119basic_ostringstreamIcSt11char_traitsIcESaIcEED1Ev@GLIBCXX_3.4.21 (6)
    23: 0000000000000000     0 FUNC    GLOBAL DEFAULT  UND _ZNSt14basic_ifstreamIcSt11char_traitsIcEED1Ev@GLIBCXX_3.4 (2)
    24: 0000000000000000     0 OBJECT  GLOBAL DEFAULT  UND _ZSt7nothrow@GLIBCXX_3.4 (2)
    25: 0000000000000000     0 FUNC    GLOBAL DEFAULT  UND _ZNSt12__basic_fileIcE8sys_openEP8_IO_FILESt13_Ios_Openmode@GLIBCXX_3.4 (2)
    26: 0000000000000000     0 FUNC    GLOBAL DEFAULT  UND rand@GLIBC_2.2.5 (3)
    27: 0000000000000000     0 FUNC    GLOBAL DEFAULT  UND _ZSt9terminatev@GLIBCXX_3.4 (2)
    28: 0000000000000000     0 FUNC    GLOBAL DEFAULT  UND _ZNSt13basic_filebufIcSt11char_traitsIcEE5imbueERKSt6locale@GLIBCXX_3.4 (2)
    29: 0000000000000000     0 FUNC    GLOBAL DEFAULT  UND _ZNSt18condition_variable4waitERSt11unique_lockISt5mutexE@GLIBCXX_3.4.30 (10)
    30: 0000000000000000     0 FUNC    GLOBAL DEFAULT  UND hypot@GLIBC_2.35 (9)
    31: 0000000000000000     0 FUNC    GLOBAL DEFAULT  UND _ZNSt8ios_baseC2Ev@GLIBCXX_3.4 (2)
    32: 0000000000000000     0 FUNC    GLOBAL DEFAULT  UND nanosleep@GLIBC_2.2.5 (3)
    33: 0000000000000000     0 FUNC    GLOBAL DEFAULT  UND _ZNSt7__cxx1112basic_stringIcSt11char_traitsIcESaIcEE6resizeEmc@GLIBCXX_3.4.21 (6)
    34: 0000000000000000     0 FUNC    GLOBAL DEFAULT  UND popen@GLIBC_2.2.5 (3)
    35: 0000000000000000     0 FUNC    GLOBAL DEFAULT  UND _ZNSt15basic_streambufIcSt11char_traitsIcEE5uflowEv@GLIBCXX_3.4 (2)
    36: 0000000000000000     0 FUNC    GLOBAL DEFAULT  UND _ZNSt7__cxx1112basic_stringIcSt11char_traitsIcESaIcEE9_M_appendEPKcm@GLIBCXX_3.4.21 (6)
    37: 0000000000000000     0 OBJECT  GLOBAL DEFAULT  UND _ZTVNSt7__cxx1119basic_istringstreamIcSt11char_traitsIcESaIcEEE@GLIBCXX_3.4.21 (6)
    38: 0000000000000000     0 FUNC    GLOBAL DEFAULT  UND _ZNSi5ungetEv@GLIBCXX_3.4 (2)
    39: 0000000000000000     0 FUNC    GLOBAL DEFAULT  UND _ZNSt8ios_baseD2Ev@GLIBCXX_3.4 (2)
    40: 0000000000000000     0 FUNC    GLOBAL DEFAULT  UND strerror@GLIBC_2.2.5 (3)
    41: 0000000000000000     0 FUNC    GLOBAL DEFAULT  UND _ZNSt13basic_filebufIcSt11char_traitsIcEE9showmanycEv@GLIBCXX_3.4 (2)
    42: 0000000000000000     0 OBJECT  GLOBAL DEFAULT  UND _ZTTNSt7__cxx1118basic_stringstreamIcSt11char_traitsIcESaIcEEE@GLIBCXX_3.4.21 (6)
    43: 0000000000000000     0 FUNC    GLOBAL DEFAULT  UND _ZSt17__throw_bad_allocv@GLIBCXX_3.4 (2)
    44: 0000000000000000     0 FUNC    GLOBAL DEFAULT  UND strchr@GLIBC_2.2.5 (3)
    45: 0000000000000000     0 FUNC    GLOBAL DEFAULT  UND _ZNSi4peekEv@GLIBCXX_3.4 (2)
    46: 0000000000000000     0 FUNC    GLOBAL DEFAULT  UND floorf@GLIBC_2.2.5 (5)
    47: 0000000000000000     0 NOTYPE  GLOBAL DEFAULT  UND cblas_daxpy
    48: 0000000000000000     0 FUNC    GLOBAL DEFAULT  UND __cxa_begin_catch@CXXABI_1.3 (11)
    49: 0000000000000000     0 FUNC    GLOBAL DEFAULT  UND sincosf@GLIBC_2.2.5 (5)
    50: 0000000000000000     0 FUNC    WEAK   DEFAULT  UND __cxa_finalize@GLIBC_2.2.5 (3)
    51: 0000000000000000     0 FUNC    GLOBAL DEFAULT  UND _ZNSt7__cxx1112basic_stringIcSt11char_traitsIcESaIcEEC1ERKS4_@GLIBCXX_3.4.21 (6)
    52: 0000000000000000     0 FUNC    GLOBAL DEFAULT  UND strlen@GLIBC_2.2.5 (3)
    53: 0000000000000000     0 FUNC    GLOBAL DEFAULT  UND memcmp@GLIBC_2.2.5 (3)
    54: 0000000000000000     0 FUNC    GLOBAL DEFAULT  UND _ZNSt6thread6_StateD2Ev@GLIBCXX_3.4.22 (7)
    55: 0000000000000000     0 NOTYPE  GLOBAL DEFAULT  UND ssptri_
    56: 0000000000000000     0 FUNC    GLOBAL DEFAULT  UND _ZNSt7__cxx1119basic_istringstreamIcSt11char_traitsIcESaIcEED1Ev@GLIBCXX_3.4.21 (6)
    57: 0000000000000000     0 FUNC    GLOBAL DEFAULT  UND __cxa_allocate_exception@CXXABI_1.3 (11)
    58: 0000000000000000     0 FUNC    GLOBAL DEFAULT  UND _ZNSt18condition_variable10notify_oneEv@GLIBCXX_3.4.11 (12)
    59: 0000000000000000     0 FUNC    GLOBAL DEFAULT  UND __isoc23_strtoll@GLIBC_2.38 (13)
    60: 0000000000000000     0 FUNC    GLOBAL DEFAULT  UND posix_memalign@GLIBC_2.2.5 (3)
    61: 0000000000000000     0 FUNC    GLOBAL DEFAULT  UND _ZNSt8__detail15_List_node_base11_M_transferEPS0_S1_@GLIBCXX_3.4.15 (4)
    62: 0000000000000000     0 FUNC    GLOBAL DEFAULT  UND _ZNSt13basic_filebufIcSt11char_traitsIcEE27_M_allocate_internal_bufferEv@GLIBCXX_3.4 (2)
    63: 0000000000000000     0 FUNC    GLOBAL DEFAULT  UND _ZSt20__throw_length_errorPKc@GLIBCXX_3.4 (2)
    64: 0000000000000000     0 FUNC    GLOBAL DEFAULT  UND _ZNSt7__cxx1112basic_stringIcSt11char_traitsIcESaIcEE9_M_assignERKS4_@GLIBCXX_3.4.21 (6)
    65: 0000000000000000     0 FUNC    GLOBAL DEFAULT  UND _ZNSi10_M_extractImEERSiRT_@GLIBCXX_3.4.9 (14)
    66: 0000000000000000     0 FUNC    GLOBAL DEFAULT  UND memset@GLIBC_2.2.5 (3)
    67: 0000000000000000     0 FUNC    GLOBAL DEFAULT  UND abort@GLIBC_2.2.5 (3)
    68: 0000000000000000     0 NOTYPE  GLOBAL DEFAULT  UND cblas_dspr
    69: 0000000000000000     0 FUNC    GLOBAL DEFAULT  UND munmap@GLIBC_2.2.5 (3)
    70: 0000000000000000     0 NOTYPE  GLOBAL DEFAULT  UND dgetri_
    71: 0000000000000000     0 FUNC    GLOBAL DEFAULT  UND _ZNSt7__cxx1112basic_stringIcSt11char_traitsIcESaIcEEC1EOS4_@GLIBCXX_3.4.21 (6)
    72: 0000000000000000     0 FUNC    GLOBAL DEFAULT  UND _ZNSt13basic_filebufIcSt11char_traitsIcEE7seekoffElSt12_Ios_SeekdirSt13_Ios_Openmode@GLIBCXX_3.4 (2)
    73: 0000000000000000     0 FUNC    GLOBAL DEFAULT  UND _ZSt28_Rb_tree_rebalance_for_erasePSt18_Rb_tree_node_baseRS_@GLIBCXX_3.4 (2)
    74: 0000000000000000     0 FUNC    GLOBAL DEFAULT  UND _ZSt24__throw_invalid_argumentPKc@GLIBCXX_3.4 (2)
    75: 0000000000000000     0 FUNC    GLOBAL DEFAULT  UND __snprintf_chk@GLIBC_2.3.4 (15)
    76: 0000000000000000     0 FUNC    GLOBAL DEFAULT  UND sincos@GLIBC_2.2.5 (5)
    77: 0000000000000000     0 FUNC    GLOBAL DEFAULT  UND _ZSt18_Rb_tree_decrementPKSt18_Rb_tree_node_base@GLIBCXX_3.4 (2)
    78: 0000000000000000     0 FUNC    GLOBAL DEFAULT  UND setlinebuf@GLIBC_2.2.5 (3)
    79: 0000000000000000     0 FUNC    GLOBAL DEFAULT  UND _ZNSirsERi@GLIBCXX_3.4 (2)
    80: 0000000000000000     0 FUNC    GLOBAL DEFAULT  UND _ZNSt7__cxx1112basic_stringIcSt11char_traitsIcESaIcEED1Ev@GLIBCXX_3.4.21 (6)
    81: 0000000000000000     0 FUNC    GLOBAL DEFAULT  UND vsnprintf@GLIBC_2.2.5 (3)
    82: 0000000000000000     0 FUNC    GLOBAL DEFAULT  UND _ZNSt9bad_allocD1Ev@GLIBCXX_3.4 (2)
    83: 0000000000000000     0 NOTYPE  GLOBAL DEFAULT  UND cblas_sspr
    84: 0000000000000000     0 FUNC    GLOBAL DEFAULT  UND __cxa_guard_abort@CXXABI_1.3 (11)
    85: 0000000000000000     0 OBJECT  GLOBAL DEFAULT  UND _ZTVSt15basic_streambufIcSt11char_traitsIcEE@GLIBCXX_3.4 (2)
    86: 0000000000000000     0 FUNC    GLOBAL DEFAULT  UND __cxa_guard_release@CXXABI_1.3 (11)
    87: 0000000000000000     0 FUNC    GLOBAL DEFAULT  UND sysconf@GLIBC_2.2.5 (3)
    88: 0000000000000000     0 NOTYPE  GLOBAL DEFAULT  UND cblas_dger
    89: 0000000000000000     0 FUNC    GLOBAL DEFAULT  UND __assert_fail@GLIBC_2.2.5 (3)
    90: 0000000000000000     0 FUNC    GLOBAL DEFAULT  UND _ZNSi10_M_extractIdEERSiRT_@GLIBCXX_3.4.9 (14)
    91: 0000000000000000     0 FUNC    GLOBAL DEFAULT  UND calloc@GLIBC_2.2.5 (3)
    92: 0000000000000000     0 FUNC    GLOBAL DEFAULT  UND _ZSt20__throw_system_errori@GLIBCXX_3.4.11 (12)
    93: 0000000000000000     0 FUNC    GLOBAL DEFAULT  UND _ZNSo9_M_insertImEERSoT_@GLIBCXX_3.4.9 (14)
    94: 0000000000000000     0 FUNC    GLOBAL DEFAULT  UND _ZNSo5flushEv@GLIBCXX_3.4 (2)
    95: 0000000000000000     0 NOTYPE  GLOBAL DEFAULT  UND _ZN5kaldi23WordAlignLatticePartialERKN3fst9VectorFstINS0_6ArcTplINS0_23CompactLatticeWeightTplINS0_16LatticeWeightTplIfEEiEEEENS0_11VectorStateIS7_SaIS7_EEEEERKNS_21TransitionInformationERKNS_16WordBoundaryInfoEiPSB_
    96: 0000000000000000     0 FUNC    GLOBAL DEFAULT  UND _ZSt18_Rb_tree_incrementPSt18_Rb_tree_node_base@GLIBCXX_3.4 (2)
    97: 0000000000000000     0 OBJECT  GLOBAL DEFAULT  UND _ZTVN10__cxxabiv117__class_type_infoE@CXXABI_1.3 (11)
    98: 0000000000000000     0 FUNC    GLOBAL DEFAULT  UND _ZNSt7__cxx1118basic_stringstreamIcSt11char_traitsIcESaIcEEC1Ev@GLIBCXX_3.4.26 (16)
    99: 0000000000000000     0 FUNC    GLOBAL DEFAULT  UND _ZNKSt8__detail20_Prime_rehash_policy11_M_next_bktEm@GLIBCXX_3.4.18 (17)
   100: 0000000000000000     0 FUNC    GLOBAL DEFAULT  UND _ZSt19__throw_logic_errorPKc@GLIBCXX_3.4 (2)
   101: 0000000000000000     0 FUNC    GLOBAL DEFAULT  UND _ZNSt7__cxx1112basic_stringIcSt11char_traitsIcESaIcEE4swapERS4_@GLIBCXX_3.4.21 (6)
   102: 0000000000000000     0 FUNC    GLOBAL DEFAULT  UND __cxa_free_exception@CXXABI_1.3 (11)
   103: 0000000000000000     0 FUNC    GLOBAL DEFAULT  UND open@GLIBC_2.2.5 (3)
   104: 0000000000000000     0 NOTYPE  GLOBAL DEFAULT  UND cblas_dspmv
   105: 0000000000000000     0 FUNC    GLOBAL DEFAULT  UND cosf@GLIBC_2.2.5 (5)
   106: 0000000000000000     0 NOTYPE  GLOBAL DEFAULT  UND _ZNK3fst8internal14DenseSymbolMap4FindERKNSt7__cxx1112basic_stringIcSt11char_traitsIcESaIcEEE
   107: 0000000000000000     0 OBJECT  GLOBAL DEFAULT  UND _ZTTSt14basic_ofstreamIcSt11char_traitsIcEE@GLIBCXX_3.4 (2)
   108: 0000000000000000     0 FUNC    GLOBAL DEFAULT  UND _ZNSt7__cxx1118basic_stringstreamIcSt11char_traitsIcESaIcEED1Ev@GLIBCXX_3.4.21 (6)
   109: 0000000000000000     0 FUNC    GLOBAL DEFAULT  UND pthread_mutex_unlock@GLIBC_2.2.5 (3)
   110: 0000000000000000     0 NOTYPE  GLOBAL DEFAULT  UND ssptrf_
   111: 0000000000000000     0 NOTYPE  GLOBAL DEFAULT  UND cblas_dsyrk
   112: 0000000000000000     0 NOTYPE  GLOBAL DEFAULT  UND dtptri_
   113: 0000000000000000     0 FUNC    GLOBAL DEFAULT  UND _ZNSo9_M_insertIPKvEERSoT_@GLIBCXX_3.4.9 (14)
   114: 0000000000000000     0 FUNC    GLOBAL DEFAULT  UND strtod@GLIBC_2.2.5 (3)
   115: 0000000000000000     0 FUNC    GLOBAL DEFAULT  UND _ZNSt13basic_filebufIcSt11char_traitsIcEE7seekposESt4fposI11__mbstate_tESt13_Ios_Openmode@GLIBCXX_3.4 (2)
   116: 0000000000000000     0 FUNC    GLOBAL DEFAULT  UND _ZSt28__throw_bad_array_new_lengthv@GLIBCXX_3.4.29 (18)
   117: 0000000000000000     0 FUNC    GLOBAL DEFAULT  UND sqrt@GLIBC_2.2.5 (5)
   118: 0000000000000000     0 FUNC    GLOBAL DEFAULT  UND log@GLIBC_2.29 (19)
   119: 0000000000000000     0 FUNC    GLOBAL DEFAULT  UND __vsnprintf_chk@GLIBC_2.3.4 (15)
   120: 0000000000000000     0 FUNC    GLOBAL DEFAULT  UND memcpy@GLIBC_2.14 (20)
   121: 0000000000000000     0 NOTYPE  GLOBAL DEFAULT  UND _ZN3fst8internal14DenseSymbolMapC1ERKS1_
   122: 0000000000000000     0 FUNC    GLOBAL DEFAULT  UND _ZNSt13basic_filebufIcSt11char_traitsIcEE4syncEv@GLIBCXX_3.4 (2)
   123: 0000000000000000     0 FUNC    GLOBAL DEFAULT  UND _ZNSt13basic_filebufIcSt11char_traitsIcEE9underflowEv@GLIBCXX_3.4 (2)
   124: 0000000000000000     0 FUNC    GLOBAL DEFAULT  UND _ZSt2wsIcSt11char_traitsIcEERSt13basic_istreamIT_T0_ES6_@GLIBCXX_3.4 (2)
   125: 0000000000000000     0 FUNC    GLOBAL DEFAULT  UND _ZNSt13basic_filebufIcSt11char_traitsIcEE9pbackfailEi@GLIBCXX_3.4 (2)
   126: 0000000000000000     0 FUNC    GLOBAL DEFAULT  UND _ZNSt13basic_filebufIcSt11char_traitsIcEED2Ev@GLIBCXX_3.4 (2)
   127: 0000000000000000     0 FUNC    GLOBAL DEFAULT  UND _ZNSo5tellpEv@GLIBCXX_3.4 (2)
   128: 0000000000000000     0 FUNC    GLOBAL DEFAULT  UND _ZNSt7__cxx1112basic_stringIcSt11char_traitsIcESaIcEE9push_backEc@GLIBCXX_3.4.21 (6)
   129: 0000000000000000     0 FUNC    GLOBAL DEFAULT  UND __cxa_atexit@GLIBC_2.2.5 (3)
   130: 0000000000000000     0 FUNC    GLOBAL DEFAULT  UND _ZNKSt7__cxx1112basic_stringIcSt11char_traitsIcESaIcEE17find_first_not_ofEcm@GLIBCXX_3.4.21 (6)
   131: 0000000000000000     0 FUNC    GLOBAL DEFAULT  UND _ZNSt13basic_filebufIcSt11char_traitsIcEE4openEPKcSt13_Ios_Openmode@GLIBCXX_3.4 (2)
   132: 0000000000000000     0 FUNC    GLOBAL DEFAULT  UND stat@GLIBC_2.33 (21)
   133: 0000000000000000     0 OBJECT  GLOBAL DEFAULT  UND _ZTVSt9bad_alloc@GLIBCXX_3.4 (2)
   134: 0000000000000000     0 FUNC    GLOBAL DEFAULT  UND _ZNSt6thread15_M_start_threadESt10unique_ptrINS_6_StateESt14default_deleteIS1_EEPFvvE@GLIBCXX_3.4.22 (7)
   135: 0000000000000000     0 FUNC    GLOBAL DEFAULT  UND _ZNSolsEs@GLIBCXX_3.4 (2)
   136: 0000000000000000     0 NOTYPE  GLOBAL DEFAULT  UND cblas_srot
   137: 0000000000000000     0 FUNC    GLOBAL DEFAULT  UND _ZNSt13random_device7_M_finiEv@GLIBCXX_3.4.18 (17)
   138: 0000000000000000     0 OBJECT  GLOBAL DEFAULT  UND _ZTTNSt7__cxx1119basic_istringstreamIcSt11char_traitsIcESaIcEEE@GLIBCXX_3.4.21 (6)
   139: 0000000000000000     0 NOTYPE  GLOBAL DEFAULT  UND cblas_dtpsv
   140: 0000000000000000     0 FUNC    GLOBAL DEFAULT  UND _ZdlPv@GLIBCXX_3.4 (2)
   141: 0000000000000000     0 FUNC    GLOBAL DEFAULT  UND _ZNSo9_M_insertIlEERSoT_@GLIBCXX_3.4.9 (14)
   142: 0000000000000000     0 FUNC    GLOBAL DEFAULT  UND srand@GLIBC_2.2.5 (3)
   143: 0000000000000000     0 OBJECT  GLOBAL DEFAULT  UND _ZTVNSt7__cxx1119basic_ostringstreamIcSt11char_traitsIcESaIcEEE@GLIBCXX_3.4.21 (6)
   144: 0000000000000000     0 OBJECT  GLOBAL DEFAULT  UND _ZTVSt14basic_ifstreamIcSt11char_traitsIcEE@GLIBCXX_3.4 (2)
   145: 0000000000000000     0 FUNC    GLOBAL DEFAULT  UND _ZStlsISt11char_traitsIcEERSt13basic_ostreamIcT_ES5_PKc@GLIBCXX_3.4 (2)
   146: 0000000000000000     0 FUNC    GLOBAL DEFAULT  UND _ZNSo5seekpElSt12_Ios_Seekdir@GLIBCXX_3.4 (2)
   147: 0000000000000000     0 NOTYPE  GLOBAL DEFAULT  UND cblas_dcopy
   148: 0000000000000000     0 FUNC    GLOBAL DEFAULT  UND _Znwm@GLIBCXX_3.4 (2)
   149: 0000000000000000     0 FUNC    GLOBAL DEFAULT  UND rand_r@GLIBC_2.2.5 (3)
   150: 0000000000000000     0 FUNC    GLOBAL DEFAULT  UND _ZdlPvm@CXXABI_1.3.9 (22)
   151: 0000000000000000     0 OBJECT  GLOBAL DEFAULT  UND _ZTVNSt7__cxx1118basic_stringstreamIcSt11char_traitsIcESaIcEEE@GLIBCXX_3.4.21 (6)
   152: 0000000000000000     0 FUNC    GLOBAL DEFAULT  UND isalnum@GLIBC_2.2.5 (3)
   153: 0000000000000000     0 FUNC    GLOBAL DEFAULT  UND _ZNSt13basic_filebufIcSt11char_traitsIcEEC1Ev@GLIBCXX_3.4 (2)
   154: 0000000000000000     0 FUNC    GLOBAL DEFAULT  UND _ZNKSt7__cxx1112basic_stringIcSt11char_traitsIcESaIcEE6substrEmm@GLIBCXX_3.4.21 (6)
   155: 0000000000000000     0 FUNC    GLOBAL DEFAULT  UND _ZSt18_Rb_tree_decrementPSt18_Rb_tree_node_base@GLIBCXX_3.4 (2)
   156: 0000000000000000     0 NOTYPE  GLOBAL DEFAULT  UND stptri_
   157: 0000000000000000     0 NOTYPE  GLOBAL DEFAULT  UND cblas_dtpmv
   158: 0000000000000000     0 FUNC    GLOBAL DEFAULT  UND strcasecmp@GLIBC_2.2.5 (3)
   159: 0000000000000000     0 OBJECT  GLOBAL DEFAULT  UND _ZTTNSt7__cxx1119basic_ostringstreamIcSt11char_traitsIcESaIcEEE@GLIBCXX_3.4.21 (6)
   160: 0000000000000000     0 NOTYPE  GLOBAL DEFAULT  UND dgetrf_
   161: 0000000000000000     0 FUNC    GLOBAL DEFAULT  UND strrchr@GLIBC_2.2.5 (3)
   162: 0000000000000000     0 FUNC    GLOBAL DEFAULT  UND _ZNSt13runtime_errorD2Ev@GLIBCXX_3.4 (2)
   163: 0000000000000000     0 FUNC    GLOBAL DEFAULT  UND __stack_chk_fail@GLIBC_2.4 (23)
   164: 0000000000000000     0 OBJECT  GLOBAL DEFAULT  UND _ZTVSo@GLIBCXX_3.4 (2)
   165: 0000000000000000     0 FUNC    GLOBAL DEFAULT  UND __dynamic_cast@CXXABI_1.3 (11)
   166: 0000000000000000     0 NOTYPE  GLOBAL DEFAULT  UND cblas_dsymm
   167: 0000000000000000     0 FUNC    GLOBAL DEFAULT  UND _ZSt16__ostream_insertIcSt11char_traitsIcEERSt13basic_ostreamIT_T0_ES6_PKS3_l@GLIBCXX_3.4.9 (14)
   168: 0000000000000000     0 FUNC    GLOBAL DEFAULT  UND _ZNKSt5ctypeIcE13_M_widen_initEv@GLIBCXX_3.4.11 (12)
   169: 0000000000000000     0 NOTYPE  GLOBAL DEFAULT  UND cblas_sspmv
   170: 0000000000000000     0 FUNC    GLOBAL DEFAULT  UND _ZSt18_Rb_tree_incrementPKSt18_Rb_tree_node_base@GLIBCXX_3.4 (2)
   171: 0000000000000000     0 FUNC    GLOBAL DEFAULT  UND _ZNSt7__cxx1112basic_stringIcSt11char_traitsIcESaIcEE12_M_constructEmc@GLIBCXX_3.4.21 (6)
   172: 0000000000000000     0 FUNC    GLOBAL DEFAULT  UND _ZStlsISt11char_traitsIcEERSt13basic_ostreamIcT_ES5_c@GLIBCXX_3.4 (2)
   173: 0000000000000000     0 OBJECT  GLOBAL DEFAULT  UND _ZTISt13basic_filebufIcSt11char_traitsIcEE@GLIBCXX_3.4 (2)
   174: 0000000000000000     0 FUNC    GLOBAL DEFAULT  UND fflush@GLIBC_2.2.5 (3)
   175: 0000000000000000     0 NOTYPE  GLOBAL DEFAULT  UND cblas_sdot
   176: 0000000000000000     0 FUNC    GLOBAL DEFAULT  UND _ZNSt7__cxx1112basic_stringIcSt11char_traitsIcESaIcEE8_M_eraseEmm@GLIBCXX_3.4.21 (6)
   177: 0000000000000000     0 FUNC    GLOBAL DEFAULT  UND free@GLIBC_2.2.5 (3)
   178: 0000000000000000     0 FUNC    GLOBAL DEFAULT  UND _ZNSi3getEv@GLIBCXX_3.4 (2)
   179: 0000000000000000     0 FUNC    GLOBAL DEFAULT  UND _ZNSo5seekpESt4fposI11__mbstate_tE@GLIBCXX_3.4 (2)
   180: 0000000000000000     0 NOTYPE  GLOBAL DEFAULT  UND sgetrf_
   181: 0000000000000000     0 FUNC    GLOBAL DEFAULT  UND exit@GLIBC_2.2.5 (3)
   182: 0000000000000000     0 FUNC    GLOBAL DEFAULT  UND getenv@GLIBC_2.2.5 (3)
   183: 0000000000000000     0 FUNC    GLOBAL DEFAULT  UND _ZNSt7__cxx1112basic_stringIcSt11char_traitsIcESaIcEE10_M_disposeEv@GLIBCXX_3.4.21 (6)
   184: 0000000000000000     0 FUNC    GLOBAL DEFAULT  UND _ZNSt13runtime_errorC2ERKNSt7__cxx1112basic_stringIcSt11char_traitsIcESaIcEEE@GLIBCXX_3.4.21 (6)
   185: 0000000000000000     0 FUNC    GLOBAL DEFAULT  UND __popcountdi2@GCC_3.4 (24)
   186: 0000000000000000     0 FUNC    GLOBAL DEFAULT  UND _ZNSi4readEPcl@GLIBCXX_3.4 (2)
   187: 0000000000000000     0 FUNC    GLOBAL DEFAULT  UND _ZSt16__throw_bad_castv@GLIBCXX_3.4 (2)
   188: 0000000000000000     0 FUNC    GLOBAL DEFAULT  UND _ZNSi5seekgESt4fposI11__mbstate_tE@GLIBCXX_3.4 (2)
   189: 0000000000000000     0 OBJECT  GLOBAL DEFAULT  UND __libc_single_threaded@GLIBC_2.32 (25)
   190: 0000000000000000     0 FUNC    GLOBAL DEFAULT  UND _ZStrsIcSt11char_traitsIcESaIcEERSt13basic_istreamIT_T0_ES7_RNSt7__cxx1112basic_stringIS4_S5_T1_EE@GLIBCXX_3.4.21 (6)
   191: 0000000000000000     0 OBJECT  GLOBAL DEFAULT  UND _ZSt4cout@GLIBCXX_3.4 (2)
   192: 0000000000000000     0 OBJECT  GLOBAL DEFAULT  UND _ZTISt9bad_alloc@GLIBCXX_3.4 (2)
   193: 0000000000000000     0 FUNC    GLOBAL DEFAULT  UND _ZdaPv@GLIBCXX_3.4 (2)
   194: 0000000000000000     0 OBJECT  GLOBAL DEFAULT  UND _ZTVN10__cxxabiv120__si_class_type_infoE@CXXABI_1.3 (11)
   195: 0000000000000000     0 NOTYPE  GLOBAL DEFAULT  UND cblas_dscal
   196: 0000000000000000     0 FUNC    WEAK   DEFAULT  UND _ZN3fst8internal15SymbolTableImplD0Ev
   197: 0000000000000000     0 FUNC    GLOBAL DEFAULT  UND _ZNSt7__cxx1115basic_stringbufIcSt11char_traitsIcESaIcEE7_M_syncEPcmm@GLIBCXX_3.4.21 (6)
   198: 0000000000000000     0 FUNC    GLOBAL DEFAULT  UND _ZNKSt7__cxx1112basic_stringIcSt11char_traitsIcESaIcEE4findEcm@GLIBCXX_3.4.21 (6)
   199: 0000000000000000     0 FUNC    GLOBAL DEFAULT  UND _ZNSo5writeEPKcl@GLIBCXX_3.4 (2)
   200: 0000000000000000     0 FUNC    GLOBAL DEFAULT  UND _ZNKSt8__detail20_Prime_rehash_policy14_M_need_rehashEmmm@GLIBCXX_3.4.18 (17)
   201: 0000000000000000     0 FUNC    GLOBAL DEFAULT  UND malloc@GLIBC_2.2.5 (3)
   202: 0000000000000000     0 FUNC    GLOBAL DEFAULT  UND _ZNSt9basic_iosIcSt11char_traitsIcEE4initEPSt15basic_streambufIcS1_E@GLIBCXX_3.4 (2)
   203: 0000000000000000     0 FUNC    GLOBAL DEFAULT  UND _ZNSt7__cxx1119basic_ostringstreamIcSt11char_traitsIcESaIcEEC1Ev@GLIBCXX_3.4.26 (16)
   204: 0000000000000000     0 FUNC    GLOBAL DEFAULT  UND _ZNSt13basic_filebufIcSt11char_traitsIcEE6setbufEPcl@GLIBCXX_3.4 (2)
   205: 0000000000000000     0 FUNC    GLOBAL DEFAULT  UND _ZNSi5seekgElSt12_Ios_Seekdir@GLIBCXX_3.4 (2)
   206: 0000000000000000     0 OBJECT  GLOBAL DEFAULT  UND stderr@GLIBC_2.2.5 (3)
   207: 0000000000000000     0 NOTYPE  GLOBAL DEFAULT  UND cblas_sgemm
   208: 0000000000000000     0 FUNC    GLOBAL DEFAULT  UND __isoc23_strtoull@GLIBC_2.38 (13)
   209: 0000000000000000     0 FUNC    GLOBAL DEFAULT  UND atan2f@GLIBC_2.2.5 (5)
   210: 0000000000000000     0 NOTYPE  GLOBAL DEFAULT  UND _ZN3fst10MappedFile8AllocateEmi
   211: 0000000000000000     0 FUNC    GLOBAL DEFAULT  UND _ZNSt13random_device9_M_getvalEv@GLIBCXX_3.4.18 (17)
   212: 0000000000000000     0 FUNC    GLOBAL DEFAULT  UND log1pf@GLIBC_2.2.5 (5)
   213: 0000000000000000     0 NOTYPE  GLOBAL DEFAULT  UND cblas_dgemm
   214: 0000000000000000     0 FUNC    GLOBAL DEFAULT  UND strcmp@GLIBC_2.2.5 (3)
   215: 0000000000000000     0 FUNC    GLOBAL DEFAULT  UND _ZNSt18condition_variableC1Ev@GLIBCXX_3.4.11 (12)
   216: 0000000000000000     0 FUNC    GLOBAL DEFAULT  UND _ZNSt13basic_filebufIcSt11char_traitsIcEEC2Ev@GLIBCXX_3.4 (2)
   217: 0000000000000000     0 FUNC    GLOBAL DEFAULT  UND _ZNSt6localeD1Ev@GLIBCXX_3.4 (2)
   218: 0000000000000000     0 NOTYPE  GLOBAL DEFAULT  UND cblas_sgemv
   219: 0000000000000000     0 FUNC    GLOBAL DEFAULT  UND pclose@GLIBC_2.2.5 (3)
   220: 0000000000000000     0 FUNC    GLOBAL DEFAULT  UND __cxa_throw_bad_array_new_length@CXXABI_1.3.8 (26)
   221: 0000000000000000     0 FUNC    GLOBAL DEFAULT  UND _ZSt20__throw_out_of_rangePKc@GLIBCXX_3.4 (2)
   222: 0000000000000000     0 FUNC    GLOBAL DEFAULT  UND tolower@GLIBC_2.2.5 (3)
   223: 0000000000000000     0 FUNC    GLOBAL DEFAULT  UND __cxa_rethrow@CXXABI_1.3 (11)
   224: 0000000000000000     0 FUNC    GLOBAL DEFAULT  UND pthread_mutex_lock@GLIBC_2.2.5 (3)
   225: 0000000000000000     0 FUNC    GLOBAL DEFAULT  UND _ZNSt14basic_ofstreamIcSt11char_traitsIcEED1Ev@GLIBCXX_3.4 (2)
   226: 0000000000000000     0 FUNC    GLOBAL DEFAULT  UND _ZSt24__throw_out_of_range_fmtPKcz@GLIBCXX_3.4.20 (27)
   227: 0000000000000000     0 FUNC    GLOBAL DEFAULT  UND _ZNKSt7__cxx1112basic_stringIcSt11char_traitsIcESaIcEE13find_first_ofEPKcmm@GLIBCXX_3.4.21 (6)
   228: 0000000000000000     0 NOTYPE  GLOBAL DEFAULT  UND dsptrf_
   229: 0000000000000000     0 OBJECT  GLOBAL DEFAULT  UND _ZTVSt13basic_filebufIcSt11char_traitsIcEE@GLIBCXX_3.4 (2)
   230: 0000000000000000     0 NOTYPE  GLOBAL DEFAULT  UND cblas_stpsv
   231: 0000000000000000     0 NOTYPE  GLOBAL DEFAULT  UND dgesvd_
   232: 0000000000000000     0 FUNC    GLOBAL DEFAULT  UND _ZNSt7__cxx1112basic_stringIcSt11char_traitsIcESaIcEE10_M_replaceEmmPKcm@GLIBCXX_3.4.21 (6)
   233: 0000000000000000     0 OBJECT  GLOBAL DEFAULT  UND _ZTVSt14basic_ofstreamIcSt11char_traitsIcEE@GLIBCXX_3.4 (2)
   234: 0000000000000000     0 FUNC    GLOBAL DEFAULT  UND powf@GLIBC_2.27 (28)
   235: 0000000000000000     0 FUNC    GLOBAL DEFAULT  UND _ZNSt13basic_filebufIcSt11char_traitsIcEED1Ev@GLIBCXX_3.4 (2)
   236: 0000000000000000     0 FUNC    GLOBAL DEFAULT  UND _ZSt21ios_base_library_initv@GLIBCXX_3.4.32 (29)
   237: 0000000000000000     0 FUNC    GLOBAL DEFAULT  UND _ZNSt7__cxx1112basic_stringIcSt11char_traitsIcESaIcEE7reserveEm@GLIBCXX_3.4.21 (6)
   238: 0000000000000000     0 NOTYPE  GLOBAL DEFAULT  UND cblas_dspr2
   239: 0000000000000000     0 NOTYPE  GLOBAL DEFAULT  UND cblas_sscal
   240: 0000000000000000     0 FUNC    GLOBAL DEFAULT  UND _ZNKSt7__cxx1115basic_stringbufIcSt11char_traitsIcESaIcEE3strEv@GLIBCXX_3.4.21 (6)
   241: 0000000000000000     0 FUNC    GLOBAL DEFAULT  UND isascii@GLIBC_2.2.5 (3)
   242: 0000000000000000     0 OBJECT  GLOBAL DEFAULT  UND _ZTVSi@GLIBCXX_3.4 (2)
   243: 0000000000000000     0 FUNC    GLOBAL DEFAULT  UND isalpha@GLIBC_2.2.5 (3)
   244: 0000000000000000     0 FUNC    GLOBAL DEFAULT  UND _ZNSo9_M_insertIdEERSoT_@GLIBCXX_3.4.9 (14)
   245: 0000000000000000     0 FUNC    GLOBAL DEFAULT  UND gettimeofday@GLIBC_2.2.5 (3)
   246: 0000000000000000     0 FUNC    GLOBAL DEFAULT  UND _ZNKSt7__cxx1112basic_stringIcSt11char_traitsIcESaIcEE16find_last_not_ofEPKcmm@GLIBCXX_3.4.21 (6)
   247: 0000000000000000     0 FUNC    GLOBAL DEFAULT  UND memmove@GLIBC_2.2.5 (3)
   248: 0000000000000000     0 FUNC    GLOBAL DEFAULT  UND _ZNSt8__detail15_List_node_base9_M_unhookEv@GLIBCXX_3.4.15 (4)
   249: 0000000000000000     0 FUNC    GLOBAL DEFAULT  UND __cxa_end_catch@CXXABI_1.3 (11)
   250: 0000000000000000     0 NOTYPE  GLOBAL DEFAULT  UND cblas_scopy
   251: 0000000000000000     0 FUNC    GLOBAL DEFAULT  UND __fprintf_chk@GLIBC_2.3.4 (15)
   252: 0000000000000000     0 FUNC    GLOBAL DEFAULT  UND _ZNSo9_M_insertIbEERSoT_@GLIBCXX_3.4.9 (14)
   253: 0000000000000000     0 FUNC    GLOBAL DEFAULT  UND __gxx_personality_v0@CXXABI_1.3 (11)
   254: 0000000000000000     0 FUNC    GLOBAL DEFAULT  UND expf@GLIBC_2.27 (28)
   255: 0000000000000000     0 NOTYPE  GLOBAL DEFAULT  UND cblas_ssymm
   256: 0000000000000000     0 FUNC    GLOBAL DEFAULT  UND __memcpy_chk@GLIBC_2.3.4 (15)
   257: 0000000000000000     0 FUNC    GLOBAL DEFAULT  UND _ZNKSt7__cxx1112basic_stringIcSt11char_traitsIcESaIcEE17find_first_not_ofEPKcmm@GLIBCXX_3.4.21 (6)
   258: 0000000000000000     0 FUNC    GLOBAL DEFAULT  UND _ZNSt13random_device7_M_initERKNSt7__cxx1112basic_stringIcSt11char_traitsIcESaIcEEE@GLIBCXX_3.4.21 (6)
   259: 0000000000000000     0 FUNC    GLOBAL DEFAULT  UND _ZNSt9basic_iosIcSt11char_traitsIcEE5clearESt12_Ios_Iostate@GLIBCXX_3.4 (2)
   260: 0000000000000000     0 FUNC    GLOBAL DEFAULT  UND _ZNSt6thread4joinEv@GLIBCXX_3.4.11 (12)
   261: 0000000000000000     0 NOTYPE  GLOBAL DEFAULT  UND cblas_sspr2
   262: 0000000000000000     0 FUNC    GLOBAL DEFAULT  UND __cxa_throw@CXXABI_1.3 (11)
   263: 0000000000000000     0 FUNC    GLOBAL DEFAULT  UND _ZNSt13basic_filebufIcSt11char_traitsIcEE6xsgetnEPcl@GLIBCXX_3.4 (2)
   264: 0000000000000000     0 NOTYPE  GLOBAL DEFAULT  UND cblas_sgbmv
   265: 0000000000000000     0 FUNC    GLOBAL DEFAULT  UND _ZNSolsEi@GLIBCXX_3.4 (2)
   266: 0000000000000000     0 FUNC    GLOBAL DEFAULT  UND _ZNSi5tellgEv@GLIBCXX_3.4 (2)
   267: 0000000000000000     0 FUNC    GLOBAL DEFAULT  UND _ZNKSt7__cxx1112basic_stringIcSt11char_traitsIcESaIcEE4findEPKcmm@GLIBCXX_3.4.21 (6)
   268: 0000000000000000     0 FUNC    GLOBAL DEFAULT  UND pow@GLIBC_2.29 (19)
   269: 0000000000000000     0 NOTYPE  GLOBAL DEFAULT  UND cblas_ssyrk
   270: 0000000000000000     0 NOTYPE  GLOBAL DEFAULT  UND cblas_sger
   271: 0000000000000000     0 NOTYPE  WEAK   DEFAULT  UND _ITM_deregisterTMCloneTable
   272: 0000000000000000     0 FUNC    GLOBAL DEFAULT  UND strpbrk@GLIBC_2.2.5 (3)
   273: 0000000000000000     0 FUNC    GLOBAL DEFAULT  UND _Unwind_Resume@GCC_3.0 (30)
   274: 0000000000000000     0 FUNC    GLOBAL DEFAULT  UND isprint@GLIBC_2.2.5 (3)
   275: 0000000000000000     0 NOTYPE  GLOBAL DEFAULT  UND cblas_saxpy
   276: 0000000000000000     0 FUNC    GLOBAL DEFAULT  UND mmap@GLIBC_2.2.5 (3)
   277: 0000000000000000     0 NOTYPE  GLOBAL DEFAULT  UND cblas_dgemv
   278: 0000000000000000     0 FUNC    GLOBAL DEFAULT  UND exp@GLIBC_2.29 (19)
   279: 0000000000000000     0 FUNC    GLOBAL DEFAULT  UND _ZNSt7__cxx1112basic_stringIcSt11char_traitsIcESaIcEE9_M_createERmm@GLIBCXX_3.4.21 (6)
   280: 0000000000000000     0 NOTYPE  GLOBAL DEFAULT  UND cblas_drot
   281: 0000000000000000     0 NOTYPE  GLOBAL DEFAULT  UND _ZN3fst8internal15SymbolTableImpl9AddSymbolERKNSt7__cxx1112basic_stringIcSt11char_traitsIcESaIcEEEl
   282: 0000000000000000     0 FUNC    GLOBAL DEFAULT  UND _ZNSt7__cxx1112basic_stringIcSt11char_traitsIcESaIcEE9_M_mutateEmmPKcm@GLIBCXX_3.4.21 (6)
   283: 0000000000000000     0 FUNC    GLOBAL DEFAULT  UND __cxa_guard_acquire@CXXABI_1.3 (11)
   284: 0000000000000000     0 FUNC    GLOBAL DEFAULT  UND _ZNSt18condition_variableD1Ev@GLIBCXX_3.4.11 (12)
   285: 0000000000000000     0 FUNC    GLOBAL DEFAULT  UND sqrtf@GLIBC_2.2.5 (5)
   286: 0000000000000000     0 FUNC    GLOBAL DEFAULT  UND strdup@GLIBC_2.2.5 (3)
   287: 0000000000000000     0 NOTYPE  GLOBAL DEFAULT  UND cblas_dgbmv
   288: 0000000000000000     0 OBJECT  GLOBAL DEFAULT  UND _ZSt3cin@GLIBCXX_3.4 (2)
   289: 0000000000000000     0 FUNC    GLOBAL DEFAULT  UND _ZSt7getlineIcSt11char_traitsIcESaIcEERSt13basic_istreamIT_T0_ES7_RNSt7__cxx1112basic_stringIS4_S5_T1_EES4_@GLIBCXX_3.4.21 (6)
   290: 0000000000000000     0 FUNC    GLOBAL DEFAULT  UND toupper@GLIBC_2.2.5 (3)
   291: 0000000000000000     0 FUNC    GLOBAL DEFAULT  UND _ZNSt12__basic_fileIcED1Ev@GLIBCXX_3.4 (2)
   292: 0000000000000000     0 FUNC    GLOBAL DEFAULT  UND cos@GLIBC_2.2.5 (5)
   293: 0000000000000000     0 FUNC    GLOBAL DEFAULT  UND logf@GLIBC_2.27 (28)
   294: 0000000000000000     0 OBJECT  GLOBAL DEFAULT  UND _ZTISt9exception@GLIBCXX_3.4 (2)
   295: 0000000000000000     0 NOTYPE  WEAK   DEFAULT  UND __gmon_start__
   296: 0000000000000000     0 FUNC    WEAK   DEFAULT  UND __cxa_pure_virtual@CXXABI_1.3 (11)
   297: 0000000000000000     0 NOTYPE  WEAK   DEFAULT  UND _ITM_registerTMCloneTable
   298: 0000000000000000     0 FUNC    GLOBAL DEFAULT  UND _ZNSt7__cxx1112basic_stringIcSt11char_traitsIcESaIcEE6appendEPKc@GLIBCXX_3.4.21 (6)
   299: 0000000000000000     0 FUNC    GLOBAL DEFAULT  UND _ZNSi7getlineEPclc@GLIBCXX_3.4 (2)
   300: 0000000000000000     0 NOTYPE  GLOBAL DEFAULT  UND dsptri_
   301: 0000000000000000     0 FUNC    GLOBAL DEFAULT  UND _ZNSt14basic_ofstreamIcSt11char_traitsIcEEC1ERKNSt7__cxx1112basic_stringIcS1_SaIcEEESt13_Ios_Openmode@GLIBCXX_3.4.21 (6)
   302: 0000000000000000     0 OBJECT  GLOBAL DEFAULT  UND _ZSt4cerr@GLIBCXX_3.4 (2)
   303: 0000000000000000     0 OBJECT  GLOBAL DEFAULT  UND _ZTTSt14basic_ifstreamIcSt11char_traitsIcEE@GLIBCXX_3.4 (2)
   304: 0000000000000000     0 FUNC    GLOBAL DEFAULT  UND close@GLIBC_2.2.5 (3)
   305: 0000000000000000     0 FUNC    GLOBAL DEFAULT  UND log1p@GLIBC_2.2.5 (5)
   306: 0000000000000000     0 NOTYPE  GLOBAL DEFAULT  UND sgesvd_
   307: 0000000000000000     0 FUNC    GLOBAL DEFAULT  UND _ZNKSt7__cxx1112basic_stringIcSt11char_traitsIcESaIcEE5rfindEcm@GLIBCXX_3.4.21 (6)
   308: 0000000000000000     0 OBJECT  GLOBAL DEFAULT  UND _ZTISt13runtime_error@GLIBCXX_3.4 (2)
   309: 0000000000000000     0 FUNC    GLOBAL DEFAULT  UND _ZNSt13basic_filebufIcSt11char_traitsIcEE6xsputnEPKcl@GLIBCXX_3.4 (2)
   310: 0000000000000000     0 OBJECT  GLOBAL DEFAULT  UND _ZTVNSt7__cxx1115basic_stringbufIcSt11char_traitsIcESaIcEEE@GLIBCXX_3.4.21 (6)
   311: 0000000000000000     0 FUNC    GLOBAL DEFAULT  UND _ZnwmRKSt9nothrow_t@GLIBCXX_3.4 (2)
   312: 0000000000000000     0 FUNC    GLOBAL DEFAULT  UND _ZNSi10_M_extractIfEERSiRT_@GLIBCXX_3.4.9 (14)
   313: 0000000000000000     0 FUNC    GLOBAL DEFAULT  UND __isoc23_strtol@GLIBC_2.38 (13)
   314: 0000000000000000     0 FUNC    GLOBAL DEFAULT  UND _ZNSt6localeC1Ev@GLIBCXX_3.4 (2)
   315: 0000000000000000     0 FUNC    GLOBAL DEFAULT  UND _ZNKSt7__cxx1112basic_stringIcSt11char_traitsIcESaIcEE12find_last_ofEPKcmm@GLIBCXX_3.4.21 (6)
   316: 0000000000000000     0 NOTYPE  GLOBAL DEFAULT  UND sgetri_
   317: 000000000025c9f0    75 FUNC    WEAK   DEFAULT   12 _ZNSt23_Sp_counted_ptr_inplaceIN3fst8internal14ComposeFstImplINS0_17DefaultCacheStoreINS0_6ArcTplINS0_16LatticeWeightTplIfEEEEEENS0_24AltSequenceComposeFilterINS0_7MatcherINS0_3FstIS7_EEEESD_EENS0_24GenericComposeStateTableIS7_NS0_18IntegerFilterStateIaEENS0_24DefaultComposeStateTupleIiSH_EENS0_21CompactHashStateTableISJ_NS0_11ComposeHashISJ_EEEEEEEESaIvELN9__gnu_cxx12_Lock_policyE2EE14_M_get_deleterERKSt9type_info
   318: 0000000000802678    40 OBJECT  WEAK   DEFAULT   21 _ZTVN3fst10MemoryPoolINS_13PoolAllocatorINS_6ArcTplINS_17TropicalWeightTplIfEEEEE2TNILi64EEEEE
   319: 0000000000618200   448 FUNC    GLOBAL DEFAULT   12 _ZN5kaldi5nnet311NnetTrainer23TrainInternalBackstitchERKNS0_11NnetExampleERKNS0_15NnetComputationEb
   320: 000000000062c270    42 FUNC    WEAK   DEFAULT   12 _ZNK5kaldi10CuSpMatrixIfE13FrobeniusNormEv
   321: 00000000005f98b0   535 FUNC    WEAK   DEFAULT   12 _ZSt13__heap_selectIN9__gnu_cxx17__normal_iteratorIPSt6vectorIiSaIiEES2_IS4_SaIS4_EEEENS0_5__ops15_Iter_less_iterEEvT_SB_SB_T0_
   322: 000000000037bed0   389 FUNC    WEAK   DEFAULT   12 _ZNSt6vectorIPKN5kaldi8HashListIlPNS0_7decoder16BackpointerTokenEE4ElemESaIS8_EE17_M_realloc_insertIJRKS8_EEEvN9__gnu_cxx17__normal_iteratorIPS8_SA_EEDpOT_
   323: 000000000062f6f0    11 FUNC    WEAK   DEFAULT   12 _ZN5kaldi12CuVectorBaseIfE10ApplyFloorEfPi
   324: 00000000007fe508    24 OBJECT  WEAK   DEFAULT   21 _ZTIN3fst16ImplToMutableFstINS_8internal13VectorFstImplINS_11VectorStateINS_10ReverseArcINS_6ArcTplINS_23CompactLatticeWeightTplINS_16LatticeWeightTplIfEEiEEEEEESaISB_EEEEENS_10MutableFstISB_EEEE
   325: 00000000006b9f00    71 FUNC    WEAK   DEFAULT   12 _ZN5kaldi13basic_pipebufIcSt11char_traitsIcEED1Ev
   326: 0000000000724db0    29 OBJECT  WEAK   DEFAULT   14 _ZTSN5kaldi18OnlineSpliceFramesE
   327: 0000000000586ff0    55 FUNC    GLOBAL DEFAULT   12 _ZNK5kaldi5nnet315LinearComponent4CopyEv
   328: 0000000000626c60     8 FUNC    WEAK   DEFAULT   12 _ZN5kaldi12CuMatrixBaseIdE7AddColsERKS1_RKNS_11CuArrayBaseIiEE
   329: 0000000000575870   194 FUNC    GLOBAL DEFAULT   12 _ZNK5kaldi5nnet318NormalizeComponent5WriteERSob
   330: 00000000002edd00  1165 FUNC    GLOBAL DEFAULT   12 _ZN22LanguageModelEstimator34FindOrCreateLmStateIndexForHistoryERKSt6vectorIiSaIiEE
   331: 0000000000623ce0   198 FUNC    WEAK   DEFAULT   12 _ZN5kaldi12CuMatrixBaseIfE15SumColumnRangesERKS1_RKNS_11CuArrayBaseI9Int32PairEE
   332: 000000000065ecf0   142 FUNC    WEAK   DEFAULT   12 _ZN5kaldi10MatrixBaseIdE16CopyLowerToUpperEv
   333: 000000000051d620     8 FUNC    WEAK   DEFAULT   12 _ZN5kaldi5nnet318UpdatableComponent21SetActualLearningRateEf
   334: 0000000000627500     8 FUNC    WEAK   DEFAULT   12 _ZN5kaldi12CuMatrixBaseIdE6PowAbsERKS1_db
   335: 00000000003725d0   523 FUNC    WEAK   DEFAULT   12 _ZN5kaldi23LatticeFasterDecoderTplIN3fst3FstINS1_6ArcTplINS1_17TropicalWeightTplIfEEEEEENS_7decoder16BackpointerTokenEED1Ev
   336: 0000000000309410   322 FUNC    WEAK   DEFAULT   12 _ZNK3fst9ImplToFstINS_8internal12NGramFstImplINS_6ArcTplINS_17TropicalWeightTplIfEEEEEENS_11ExpandedFstIS6_EEE10PropertiesEmb
   337: 00000000007fdcb8    24 OBJECT  WEAK   DEFAULT   21 _ZTIN3fst17ImplToExpandedFstINS_8internal13VectorFstImplINS_11VectorStateINS_6ArcTplINS_23CompactLatticeWeightTplINS_16LatticeWeightTplIfEEiEEEESaIS9_EEEEENS_10MutableFstIS9_EEEE
   338: 00000000006895e0     6 FUNC    WEAK   DEFAULT   12 _ZN5kaldi12PackedMatrixIfE4DataEv
   339: 0000000000804730    56 OBJECT  WEAK   DEFAULT   21 _ZTVSt23_Sp_counted_ptr_inplaceIN3fst14StringCompilerINS0_6ArcTplINS0_17TropicalWeightTplIfEEEEEESaIvELN9__gnu_cxx12_Lock_policyE2EE
   340: 0000000000554c10    53 FUNC    GLOBAL DEFAULT   12 _ZN5kaldi5nnet326StatisticsPoolingComponentC1Ev
   341: 00000000005609d0    71 FUNC    WEAK   DEFAULT   12 _ZNK5kaldi5nnet326StatisticsPoolingComponent4CopyEv
   342: 0000000000439790   467 FUNC    WEAK   DEFAULT   12 _ZNSt6vectorISt4pairIfS0_IiiEESaIS2_EE17_M_realloc_insertIJRKS2_EEEvN9__gnu_cxx17__normal_iteratorIPS2_S4_EEDpOT_
   343: 00000000002d1a40   351 FUNC    WEAK   DEFAULT   12 _ZN3fst16ImplToMutableFstINS_8internal13VectorFstImplINS_11VectorStateINS_6ArcTplINS_17TropicalWeightTplIfEEEESaIS7_EEEEENS_10MutableFstIS7_EEE11ReserveArcsEim
   344: 000000000033bcb0   351 FUNC    WEAK   DEFAULT   12 _ZN3fst16ImplToMutableFstINS_8internal13VectorFstImplINS_11VectorStateINS_10ReverseArcINS_6ArcTplINS_17TropicalWeightTplIfEEEEEESaIS9_EEEEENS_10MutableFstIS9_EEE11ReserveArcsEim
   345: 00000000006b5c40   223 FUNC    GLOBAL DEFAULT   12 _ZN3fst12ReadFstKaldiENSt7__cxx1112basic_stringIcSt11char_traitsIcESaIcEEEPNS_9VectorFstINS_6ArcTplINS_17TropicalWeightTplIfEEEENS_11VectorStateISA_SaISA_EEEEE
   346: 00000000007fe690    24 OBJECT  WEAK   DEFAULT   21 _ZTISt23_Sp_counted_ptr_inplaceIN3fst8internal14ComposeFstImplINS0_17DefaultCacheStoreINS0_6ArcTplINS0_16LatticeWeightTplIfEEEEEENS0_22LookAheadComposeFilterINS0_24AltSequenceComposeFilterINS0_16LookAheadMatcherINS0_3FstIS7_EEEESE_EESE_SE_LNS0_9MatchTypeE3EEENS0_24GenericComposeStateTableIS7_NS0_18IntegerFilterStateIaEENS0_24DefaultComposeStateTupleIiSK_EENS0_21CompactHashStateTableISM_NS0_11ComposeHashISM_EEEEEEEESaIvELN9__gnu_cxx12_Lock_policyE2EE
   347: 00000000003d22d0   219 FUNC    WEAK   DEFAULT   12 _ZN5kaldi28LatticeIncrementalDecoderTplIN3fst13GrammarFstTplIKNS1_8ConstFstINS1_6ArcTplINS1_17TropicalWeightTplIfEEEEjEEEENS_7decoder8StdTokenEE17ClearActiveTokensEv
   348: 00000000002fbe80     8 FUNC    WEAK   DEFAULT   12 _ZN3fst11ArcIteratorINS_8NGramFstINS_6ArcTplINS_17TropicalWeightTplIfEEEEEEE4NextEv
   349: 00000000005d05d0     1 FUNC    GLOBAL DEFAULT   12 _ZNK5kaldi5nnet319MaxpoolingComponent5CheckEv
   350: 0000000000589290   622 FUNC    GLOBAL DEFAULT   12 _ZNK5kaldi5nnet313TanhComponent15RepairGradientsERKNS_12CuMatrixBaseIfEEPS3_PS1_
   351: 00000000004fc4e0   188 FUNC    WEAK   DEFAULT   12 _ZNSt6vectorIS_IS_ISt4pairIiiESaIS1_EESaIS3_EESaIS5_EED2Ev
   352: 000000000061a930  1512 FUNC    GLOBAL DEFAULT   12 _ZN5kaldi16ApplyCmvnReverseERKNS_10MatrixBaseIdEEbPNS0_IfEE
   353: 0000000000581650   201 FUNC    GLOBAL DEFAULT   12 _ZN5kaldi5nnet313TanhComponent10StoreStatsERKNS_12CuMatrixBaseIfEES5_Pv
   354: 000000000028b0e0   107 FUNC    WEAK   DEFAULT   12 _ZNK3fst16LookAheadMatcherINS_3FstINS_6ArcTplINS_16LatticeWeightTplIfEEEEEEE4CopyEb
   355: 0000000000400860   186 FUNC    WEAK   DEFAULT   12 _ZN5kaldi28LatticeIncrementalDecoderTplIN3fst9VectorFstINS1_6ArcTplINS1_17TropicalWeightTplIfEEEENS1_11VectorStateIS6_SaIS6_EEEEENS_7decoder16BackpointerTokenEE15AdvanceDecodingEPNS_18DecodableInterfaceEi
   356: 00000000004c3de0   341 FUNC    WEAK   DEFAULT   12 _ZN3fst20MemoryPoolCollection4PoolINS_13PoolAllocatorINS_6ArcTplINS_23CompactLatticeWeightTplINS_16LatticeWeightTplIfEEiEEEEE2TNILi64EEEEEPNS_10MemoryPoolIT_EEv
   357: 000000000049ffa0   974 FUNC    GLOBAL DEFAULT   12 _ZN5kaldi16MinimumBayesRiskC1ERKN3fst9VectorFstINS1_6ArcTplINS1_23CompactLatticeWeightTplINS1_16LatticeWeightTplIfEEiEEEENS1_11VectorStateIS8_SaIS8_EEEEERKSt6vectorIiSaIiEERKSF_ISt4pairIffESaISL_EENS_23MinimumBayesRiskOptionsE
   358: 0000000000657210   106 FUNC    WEAK   DEFAULT   12 _ZNK5kaldi10MatrixBaseIdE8ColRangeEii
   359: 0000000000623cc0    24 FUNC    WEAK   DEFAULT   12 _ZNK5kaldi12CuMatrixBaseIfE9AddToRowsEfRKNS_11CuArrayBaseIPfEE
   360: 0000000000264210   451 FUNC    WEAK   DEFAULT   12 _ZN3fst8internal17VectorFstBaseImplINS_11VectorStateINS_6ArcTplINS_23CompactLatticeWeightTplINS_16LatticeWeightTplIfEEiEEEESaIS8_EEEED0Ev
   361: 00000000003d1d70    18 FUNC    WEAK   DEFAULT   12 _ZNK5kaldi28LatticeIncrementalDecoderTplIN3fst9VectorFstINS1_6ArcTplINS1_17TropicalWeightTplIfEEEENS1_11VectorStateIS6_SaIS6_EEEEENS_7decoder8StdTokenEE16NumFramesDecodedEv
   362: 00000000006aee60   586 FUNC    WEAK   DEFAULT   12 _ZSt16__introsort_loopIN9__gnu_cxx17__normal_iteratorIPSt4pairIidESt6vectorIS3_SaIS3_EEEElNS0_5__ops15_Iter_comp_iterIN5kaldi19sparse_vector_utils12CompareFirstIdEEEEEvT_SG_T0_T1_
   363: 000000000048bba0   259 FUNC    WEAK   DEFAULT   12 _ZNSt6vectorIdSaIdEEC2EmRKdRKS0_
   364: 00000000004e9140  1910 FUNC    GLOBAL DEFAULT   12 _ZN5kaldi5rnnlm26KaldiRnnlmDeterministicFst6GetArcEiiPN3fst6ArcTplINS2_17TropicalWeightTplIfEEEE
   365: 000000000051ee80   291 FUNC    GLOBAL DEFAULT   12 _ZNK5kaldi5nnet316ComputationGraph11GetCindexIdERKSt4pairIiNS0_5IndexEE
   366: 0000000000806a40    40 OBJECT  WEAK   DEFAULT   21 _ZTVN3fst10MemoryPoolINS_13PoolAllocatorINS_6ArcTplINS_23CompactLatticeWeightTplINS_16LatticeWeightTplIfEEiEEEEE2TNILi32EEEEE
   367: 00000000004b68d0    49 FUNC    WEAK   DEFAULT   12 _ZN3fst10MemoryPoolINS_13PoolAllocatorINS_6ArcTplINS_23CompactLatticeWeightTplINS_16LatticeWeightTplIfEEiEEEEE2TNILi4EEEED1Ev
   368: 00000000004405b0   163 FUNC    WEAK   DEFAULT   12 _ZN5kaldi17BottomUpClustererD1Ev
   369: 000000000066fdc0   183 FUNC    WEAK   DEFAULT   12 _ZN5kaldi10VectorBaseIdE11CopyFromVecIfEEvRKNS0_IT_EE
   370: 00000000007fd928   104 OBJECT  WEAK   DEFAULT   21 _ZTVN3fst18MutableArcIteratorINS_9VectorFstINS_6ArcTplINS_17TropicalWeightTplIfEEEENS_11VectorStateIS5_SaIS5_EEEEEEE
   371: 0000000000514660   417 FUNC    WEAK   DEFAULT   12 _ZNSt6vectorIN5kaldi5nnet38Compiler8StepInfoESaIS3_EED2Ev
   372: 00000000006bb400   264 FUNC    WEAK   DEFAULT   12 _ZN5kaldi13FileInputImpl5CloseEv
   373: 00000000006443b0  1585 FUNC    WEAK   DEFAULT   12 _ZN5kaldi23EigenvalueDecompositionIdE4Tql2Ev
   374: 00000000003c0d00   410 FUNC    WEAK   DEFAULT   12 _ZNSt6vectorISt10unique_ptrIN3fst9RandStateINS1_6ArcTplINS1_16LatticeWeightTplIfEEEEEESt14default_deleteIS7_EESaISA_EE17_M_realloc_insertIJPS7_EEEvN9__gnu_cxx17__normal_iteratorIPSA_SC_EEDpOT_
   375: 0000000000386dd0   107 FUNC    WEAK   DEFAULT   12 _ZNK5kaldi23LatticeFasterDecoderTplIN3fst8ConstFstINS1_6ArcTplINS1_17TropicalWeightTplIfEEEEjEENS_7decoder8StdTokenEE12ReachedFinalEv
   376: 00000000006f4b70  1129 FUNC    GLOBAL DEFAULT   12 _ZN3fst8internal17CompositeWeightIOC2Ev
   377: 000000000041d750  3283 FUNC    WEAK   DEFAULT   12 _ZN3fst15CopyToVectorFstINS_9VectorFstINS_6ArcTplINS_17TropicalWeightTplIfEEEENS_11VectorStateIS5_SaIS5_EEEEEEEvPNS_13GrammarFstTplIT_EEPS9_
   378: 00000000002ecd90    59 FUNC    WEAK   DEFAULT   12 _ZN3fst17ComposeFstMatcherINS_17DefaultCacheStoreINS_6ArcTplINS_16LatticeWeightTplIfEEEEEENS_22LookAheadComposeFilterINS_24AltSequenceComposeFilterINS_16LookAheadMatcherINS_3FstIS5_EEEESC_EESC_SC_LNS_9MatchTypeE3EEENS_24GenericComposeStateTableIS5_NS_18IntegerFilterStateIaEENS_24DefaultComposeStateTupleIiSI_EENS_21CompactHashStateTableISK_NS_11ComposeHashISK_EEEEEEE4NextEv
   379: 000000000059d410    81 FUNC    WEAK   DEFAULT   12 _ZN5kaldi5nnet338NaturalGradientRepeatedAffineComponentD1Ev
   380: 0000000000253df0     8 FUNC    WEAK   DEFAULT   12 _ZN3fst18MutableArcIteratorINS_9VectorFstINS_6ArcTplINS_23CompactLatticeWeightTplINS_16LatticeWeightTplIfEEiEEEENS_11VectorStateIS7_SaIS7_EEEEEE4NextEv
   381: 000000000044ac10    12 FUNC    WEAK   DEFAULT   12 _ZNK5kaldi24OnlineGenericBaseFeatureINS_12MfccComputerEE14NumFramesReadyEv
   382: 0000000000581720    92 FUNC    GLOBAL DEFAULT   12 _ZN5kaldi5nnet315AffineComponent3AddEfRKNS0_9ComponentE
   383: 0000000000801e20    40 OBJECT  WEAK   DEFAULT   21 _ZTVN3fst10MemoryPoolINS_13PoolAllocatorINS_10CacheStateINS_6ArcTplINS_16LatticeWeightTplIfEEEENS1_IS6_EEEEE2TNILi1EEEEE
   384: 00000000003d9aa0    39 FUNC    WEAK   DEFAULT   12 _ZNSt6vectorIN5kaldi28LatticeIncrementalDecoderTplIN3fst8ConstFstINS2_6ArcTplINS2_17TropicalWeightTplIfEEEEjEENS0_7decoder16BackpointerTokenEE9TokenListESaISC_EED1Ev
   385: 00000000005327e0  2515 FUNC    GLOBAL DEFAULT   12 _ZNK5kaldi5nnet315NnetComputation5WriteERSob
   386: 0000000000251790     1 FUNC    WEAK   DEFAULT   12 _ZNSt23_Sp_counted_ptr_inplaceIN3fst8internal14ComposeFstImplINS0_17DefaultCacheStoreINS0_6ArcTplINS0_17TropicalWeightTplIfEEEEEENS0_23PushLabelsComposeFilterINS0_24PushWeightsComposeFilterINS0_22LookAheadComposeFilterINS0_21SequenceComposeFilterINS0_16LookAheadMatcherINS0_3FstIS7_EEEESG_EESG_SG_LNS0_9MatchTypeE3EEESG_SG_LSI_3EEESG_SG_LSI_3EEENS0_24GenericComposeStateTableIS7_NS0_15PairFilterStateINSN_INS0_18IntegerFilterStateIaEENS0_17WeightFilterStateIS6_EEEENSO_IiEEEENS0_24DefaultComposeStateTupleIiSU_EENS0_21CompactHashStateTableISW_NS0_11ComposeHashISW_EEEEEEEESaIvELN9__gnu_cxx12_Lock_policyE2EED1Ev
   387: 0000000000727980    36 OBJECT  WEAK   DEFAULT   14 _ZTSN5kaldi5nnet319BinarySumDescriptorE
   388: 00000000003d7f30   756 FUNC    WEAK   DEFAULT   12 _ZN5kaldi30LatticeIncrementalDeterminizerC1ERKNS_21TransitionInformationERKNS_31LatticeIncrementalDecoderConfigE
   389: 00000000003f7840  1406 FUNC    WEAK   DEFAULT   12 _ZN5kaldi28LatticeIncrementalDecoderTplIN3fst13GrammarFstTplINS1_9VectorFstINS1_6ArcTplINS1_17TropicalWeightTplIfEEEENS1_11VectorStateIS7_SaIS7_EEEEEEENS_7decoder16BackpointerTokenEE18ProcessNonemittingEf
   390: 00000000004f1300   445 FUNC    WEAK   DEFAULT   12 _ZN5kaldi17PosteriorToMatrixIfEEvRKSt6vectorIS1_ISt4pairIifESaIS3_EESaIS5_EEiPNS_6MatrixIT_EE
   391: 0000000000270170    99 FUNC    WEAK   DEFAULT   12 _ZNSt11_Deque_baseIPN3fst8internal8DfsStateINS0_10MutableFstINS0_6ArcTplINS0_23CompactLatticeWeightTplINS0_16LatticeWeightTplIfEEiEEEEEEEESaISC_EED1Ev
   392: 00000000003a8410   365 FUNC    WEAK   DEFAULT   12 _ZNK5kaldi23LatticeFasterDecoderTplIN3fst9VectorFstINS1_6ArcTplINS1_17TropicalWeightTplIfEEEENS1_11VectorStateIS6_SaIS6_EEEEENS_7decoder16BackpointerTokenEE10GetLatticeEPNS2_INS3_INS1_23CompactLatticeWeightTplINS1_16LatticeWeightTplIfEEiEEEENS7_ISI_SaISI_EEEEEb
   393: 0000000000570e80  1119 FUNC    WEAK   DEFAULT   12 _ZNSt6vectorINSt7__cxx1112basic_stringIcSt11char_traitsIcESaIcEEESaIS5_EE12emplace_backIJS5_EEEvDpOT_
   394: 000000000056a320  2802 FUNC    GLOBAL DEFAULT   12 _ZN5kaldi5nnet34Nnet27ProcessOutputNodeConfigLineEiPNS_10ConfigLineE
   395: 0000000000370cb0   531 FUNC    WEAK   DEFAULT   12 _ZN5kaldi8HashListIlPNS_7decoder8StdTokenEED1Ev
   396: 0000000000630620   242 FUNC    WEAK   DEFAULT   12 _ZN5kaldi8CuVectorIfEaSERKNS_10VectorBaseIfEE
   397: 00000000004b12c0     1 FUNC    WEAK   DEFAULT   12 _ZN3fst18MutableArcIteratorINS_9VectorFstINS_10ReverseArcINS_6ArcTplINS_23CompactLatticeWeightTplINS_16LatticeWeightTplIfEEiEEEEEENS_11VectorStateIS9_SaIS9_EEEEEE8SetFlagsEjj
   398: 000000000036b220    53 FUNC    WEAK   DEFAULT   12 _ZN5kaldi23LatticeFasterDecoderTplIN3fst3FstINS1_6ArcTplINS1_17TropicalWeightTplIfEEEEEENS_7decoder16BackpointerTokenEE10SetOptionsERKNS_26LatticeFasterDecoderConfigE
   399: 000000000037f1e0   905 FUNC    WEAK   DEFAULT   12 _ZNSt6vectorIN5kaldi8HashListIiPNS0_7decoder16BackpointerTokenEE10HashBucketESaIS6_EE14_M_fill_insertEN9__gnu_cxx17__normal_iteratorIPS6_S8_EEmRKS6_
   400: 000000000036ac50    53 FUNC    WEAK   DEFAULT   12 _ZN5kaldi23LatticeFasterDecoderTplIN3fst8ConstFstINS1_6ArcTplINS1_17TropicalWeightTplIfEEEEjEENS_7decoder8StdTokenEE10SetOptionsERKNS_26LatticeFasterDecoderConfigE
   401: 0000000000802718    40 OBJECT  WEAK   DEFAULT   21 _ZTVN3fst10MemoryPoolINS_13PoolAllocatorINS_10ReverseArcINS_6ArcTplINS_16LatticeWeightTplIfEEEEEEE2TNILi8EEEEE
   402: 0000000000805f70    24 OBJECT  WEAK   DEFAULT   21 _ZTISt23_Sp_counted_ptr_inplaceIN3fst8internal14ComposeFstImplINS0_17DefaultCacheStoreINS0_6ArcTplINS0_23CompactLatticeWeightTplINS0_16LatticeWeightTplIfEEiEEEEEENS0_22LookAheadComposeFilterINS0_21SequenceComposeFilterINS0_16LookAheadMatcherINS0_3FstIS9_EEEESG_EESG_SG_LNS0_9MatchTypeE3EEENS0_24GenericComposeStateTableIS9_NS0_18IntegerFilterStateIaEENS0_24DefaultComposeStateTupleIiSM_EENS0_21CompactHashStateTableISO_NS0_11ComposeHashISO_EEEEEEEESaIvELN9__gnu_cxx12_Lock_policyE2EE
   403: 000000000039f6a0  3180 FUNC    WEAK   DEFAULT   12 _ZNK5kaldi23LatticeFasterDecoderTplIN3fst13GrammarFstTplINS1_9VectorFstINS1_6ArcTplINS1_17TropicalWeightTplIfEEEENS1_11VectorStateIS7_SaIS7_EEEEEEENS_7decoder8StdTokenEE13GetRawLatticeEPNS3_INS4_INS1_16LatticeWeightTplIfEEEENS8_ISI_SaISI_EEEEEb
   404: 0000000000299b10  1352 FUNC    WEAK   DEFAULT   12 _ZN3fst16VectorCacheStoreINS_10CacheStateINS_10ReverseArcINS_6ArcTplINS_16LatticeWeightTplIfEEEEEENS_13PoolAllocatorIS7_EEEEEC1ERKNS_12CacheOptionsE
   405: 0000000000716260    84 OBJECT  WEAK   DEFAULT   14 _ZTSN3fst17StateIteratorBaseINS_10ReverseArcINS_6ArcTplINS_16LatticeWeightTplIfEEEEEEEE
   406: 0000000000802028    40 OBJECT  WEAK   DEFAULT   21 _ZTVN3fst8internal15MemoryArenaImplILm72EEE
   407: 00000000008055c8    24 OBJECT  WEAK   DEFAULT   21 _ZTIN5kaldi24OnlineGenericBaseFeatureINS_12MfccComputerEEE
   408: 0000000000267c60   302 FUNC    WEAK   DEFAULT   12 _ZN3fst17GraphLatticeScaleEd
   409: 0000000000801d98    56 OBJECT  WEAK   DEFAULT   21 _ZTVSt23_Sp_counted_ptr_inplaceIN3fst8internal13VectorFstImplINS0_11VectorStateINS0_10ReverseArcINS0_6ArcTplINS0_23CompactLatticeWeightTplINS0_16LatticeWeightTplIfEEiEEEEEESaISB_EEEEESaIvELN9__gnu_cxx12_Lock_policyE2EE
   410: 00000000005dcdc0   134 FUNC    WEAK   DEFAULT   12 _ZNK5kaldi5nnet324GruNonlinearityComponent4TypeB5cxx11Ev
   411: 00000000002918e0   224 FUNC    WEAK   DEFAULT   12 _ZN3fst8internal15MemoryArenaImplILm72EE8AllocateEm
   412: 0000000000443c50   133 FUNC    GLOBAL DEFAULT   12 _ZN5kaldi16GaussClusterable3AddERKNS_11ClusterableE
   413: 00000000004b6630    67 FUNC    WEAK   DEFAULT   12 _ZN3fst10MemoryPoolINS_13PoolAllocatorINS_6ArcTplINS_23CompactLatticeWeightTplINS_16LatticeWeightTplIfEEiEEEEE2TNILi16EEEED0Ev
   414: 00000000006c5a30     5 FUNC    GLOBAL DEFAULT   12 _ZN5kaldi12ParseOptions8RegisterERKNSt7__cxx1112basic_stringIcSt11char_traitsIcESaIcEEEPiS8_
   415: 000000000059dc90    60 FUNC    WEAK   DEFAULT   12 _ZN5kaldi5nnet313TanhComponentD0Ev
   416: 0000000000252070    11 FUNC    WEAK   DEFAULT   12 _ZNK3fst9ImplToFstINS_8internal22DeterminizeFstImplBaseINS_10ReverseArcINS_6ArcTplINS_16LatticeWeightTplIfEEEEEEEENS_3FstIS8_EEE13OutputSymbolsEv
   417: 00000000002983c0  1490 FUNC    WEAK   DEFAULT   12 _ZN3fst13PoolAllocatorINS_10ReverseArcINS_6ArcTplINS_16LatticeWeightTplIfEEEEEEE10deallocateEPS6_m
   418: 0000000000255680    10 FUNC    WEAK   DEFAULT   12 _ZNSt23_Sp_counted_ptr_inplaceIN3fst8internal18DeterminizeFsaImplINS0_10ReverseArcINS0_6ArcTplINS0_16LatticeWeightTplIfEEEEEENS0_20DefaultCommonDivisorIS6_EENS0_24DefaultDeterminizeFilterIS8_EENS0_28DefaultDeterminizeStateTableIS8_NS0_18IntegerFilterStateIaEEEEEESaIvELN9__gnu_cxx12_Lock_policyE2EED0Ev
   419: 00000000006970e0     5 FUNC    WEAK   DEFAULT   12 _ZN5kaldi8SpMatrixIdE6ResizeEiNS_16MatrixResizeTypeE
   420: 000000000050c310    91 FUNC    GLOBAL DEFAULT   12 _ZNK5kaldi5nnet38Compiler11IsInputStepEi
   421: 0000000000689ce0    33 FUNC    WEAK   DEFAULT   12 _ZN5kaldi12PackedMatrixIdE4SwapEPS1_
   422: 00000000003717e0    39 FUNC    WEAK   DEFAULT   12 _ZNSt6vectorIPKN5kaldi8HashListIlPNS0_7decoder16BackpointerTokenEE4ElemESaIS8_EED1Ev
   423: 000000000071d6c2     1 OBJECT  <OS specific>: 10 DEFAULT   14 _ZZN3fst8DfsVisitINS_10MutableFstINS_6ArcTplINS_23CompactLatticeWeightTplINS_16LatticeWeightTplIfEEiEEEEEENS_10SccVisitorIS7_EENS_16EpsilonArcFilterIS7_EEEEvRKT_PT0_T1_bE9kDfsWhite
   424: 0000000000550b00   444 FUNC    GLOBAL DEFAULT   12 _ZNK5kaldi5nnet317GeneralDescriptor22ConvertToSumDescriptorEv
   425: 0000000000252b00    11 FUNC    WEAK   DEFAULT   12 _ZNK3fst9ImplToFstINS_8internal13VectorFstImplINS_11VectorStateINS_6ArcTplINS_23CompactLatticeWeightTplINS_16LatticeWeightTplIfEEiEEEESaIS9_EEEEENS_10MutableFstIS9_EEE4TypeB5cxx11Ev
   426: 0000000000623830    57 FUNC    WEAK   DEFAULT   12 _ZN5kaldi8CuMatrixIdE4SwapEPS1_
   427: 00000000004fd1a0   244 FUNC    GLOBAL DEFAULT   12 _ZNK5kaldi11HmmTopology16TopologyForPhoneEi
   428: 000000000036e420   348 FUNC    WEAK   DEFAULT   12 _ZN5kaldi23LatticeFasterDecoderTplIN3fst3FstINS1_6ArcTplINS1_17TropicalWeightTplIfEEEEEENS_7decoder16BackpointerTokenEE19PruneTokensForFrameEi
   429: 0000000000265030   948 FUNC    WEAK   DEFAULT   12 _ZN3fst16ImplToMutableFstINS_8internal13VectorFstImplINS_11VectorStateINS_6ArcTplINS_23CompactLatticeWeightTplINS_16LatticeWeightTplIfEEiEEEESaIS9_EEEEENS_10MutableFstIS9_EEE12DeleteStatesEv
   430: 00000000005dcb50   111 FUNC    WEAK   DEFAULT   12 _ZN5kaldi5nnet324GruNonlinearityComponentD0Ev
   431: 0000000000677c90   239 FUNC    WEAK   DEFAULT   12 _ZN5kaldi10VectorBaseIdE15ApplyLogSoftMaxEv
   432: 000000000029d190   490 FUNC    WEAK   DEFAULT   12 _ZN3fst23PushLabelsComposeFilterINS_24PushWeightsComposeFilterINS_22LookAheadComposeFilterINS_21SequenceComposeFilterINS_16LookAheadMatcherINS_3FstINS_6ArcTplINS_17TropicalWeightTplIfEEEEEEEESB_EESB_SB_LNS_9MatchTypeE3EEESB_SB_LSD_3EEESB_SB_LSD_3EE8SetStateEiiRKNS_15PairFilterStateINSH_INS_18IntegerFilterStateIaEENS_17WeightFilterStateIS8_EEEENSI_IiEEEE
   433: 00000000005f7290   339 FUNC    WEAK   DEFAULT   12 _ZNSt6vectorIhSaIhEE17_M_realloc_insertIJhEEEvN9__gnu_cxx17__normal_iteratorIPhS1_EEDpOT_
   434: 0000000000554e60    55 FUNC    GLOBAL DEFAULT   12 _ZNK5kaldi5nnet320DropoutMaskComponent4CopyEv
   435: 000000000058b870  2383 FUNC    GLOBAL DEFAULT   12 _ZN5kaldi5nnet330NaturalGradientAffineComponent14InitFromConfigEPNS_10ConfigLineE
   436: 000000000071d1c0    90 OBJECT  WEAK   DEFAULT   14 _ZTSN3fst10MemoryPoolINS_13PoolAllocatorINS_6ArcTplINS_17TropicalWeightTplIfEEEEE2TNILi8EEEEE
   437: 000000000041ba10   683 FUNC    WEAK   DEFAULT   12 _ZNK3fst13GrammarFstTplINS_9VectorFstINS_6ArcTplINS_17TropicalWeightTplIfEEEENS_11VectorStateIS5_SaIS5_EEEEEE5WriteERSob
   438: 0000000000268990   165 FUNC    WEAK   DEFAULT   12 _ZN3fsteqINS_16LatticeWeightTplIfEEiEEbRKNS_23CompactLatticeWeightTplIT_T0_EES8_
   439: 00000000002cff00  1732 FUNC    WEAK   DEFAULT   12 _ZN3fst8internal13VectorFstImplINS_11VectorStateINS_6ArcTplINS_17TropicalWeightTplIfEEEESaIS6_EEEEC1ERKNS_3FstIS6_EE
   440: 00000000004b10d0     3 FUNC    WEAK   DEFAULT   12 _ZNK3fst8internal18ComposeFstImplBaseINS_6ArcTplINS_23CompactLatticeWeightTplINS_16LatticeWeightTplIfEEiEEEENS_17DefaultCacheStoreIS7_EENS_10ComposeFstIS7_S9_EEE11InitMatcherERKSB_NS_9MatchTypeE
   441: 00000000003b5c90   326 FUNC    WEAK   DEFAULT   12 _ZNSt11_Deque_baseIPN3fst8internal8DfsStateINS0_3FstINS0_10ReverseArcINS0_6ArcTplINS0_16LatticeWeightTplIfEEEEEEEEEESaISC_EE17_M_initialize_mapEm
   442: 0000000000288c30   150 FUNC    WEAK   DEFAULT   12 _ZN3fst16ImplToMutableFstINS_8internal13VectorFstImplINS_11VectorStateINS_6ArcTplINS_16LatticeWeightTplIfEEEESaIS7_EEEEENS_10MutableFstIS7_EEE20MutableOutputSymbolsEv
   443: 000000000080a8d0    24 OBJECT  WEAK   DEFAULT   21 _ZTIN5kaldi13PipeInputImplE
   444: 00000000006a4a50    21 FUNC    WEAK   DEFAULT   12 _ZNK5kaldi12SparseMatrixIdE4DataEv
   445: 0000000000722900   161 OBJECT  WEAK   DEFAULT   14 _ZTSN3fst16ImplToMutableFstINS_8internal13VectorFstImplINS_11VectorStateINS_10ReverseArcINS_6ArcTplINS_17TropicalWeightTplIfEEEEEESaIS9_EEEEENS_10MutableFstIS9_EEEE
   446: 00000000004f14c0   448 FUNC    WEAK   DEFAULT   12 _ZN5kaldi17PosteriorToMatrixIdEEvRKSt6vectorIS1_ISt4pairIifESaIS3_EESaIS5_EEiPNS_6MatrixIT_EE
   447: 000000000027edd0   250 FUNC    WEAK   DEFAULT   12 _ZN3fst8internal7FstImplINS_6ArcTplINS_16LatticeWeightTplIfEEEEE15SetInputSymbolsEPKNS_11SymbolTableE
   448: 0000000000261b50    37 FUNC    WEAK   DEFAULT   12 _ZN3fst9VectorFstINS_10ReverseArcINS_6ArcTplINS_23CompactLatticeWeightTplINS_16LatticeWeightTplIfEEiEEEEEENS_11VectorStateIS8_SaIS8_EEEED2Ev
   449: 00000000006b3f10    49 FUNC    WEAK   DEFAULT   12 _ZN5kaldi8TpMatrixIfEC2ERKS1_
   450: 0000000000808470    24 OBJECT  WEAK   DEFAULT   21 _ZTIN5kaldi5nnet339NaturalGradientPerElementScaleComponentE
   451: 00000000004889f0  2390 FUNC    GLOBAL DEFAULT   12 _ZN5kaldi14RescoreLatticeEPNS_18DecodableInterfaceEPN3fst9VectorFstINS2_6ArcTplINS2_16LatticeWeightTplIfEEEENS2_11VectorStateIS7_SaIS7_EEEEE
   452: 00000000003f0230   347 FUNC    WEAK   DEFAULT   12 _ZN5kaldi28LatticeIncrementalDecoderTplIN3fst3FstINS1_6ArcTplINS1_17TropicalWeightTplIfEEEEEENS_7decoder16BackpointerTokenEE14FindOrAddTokenEiifPS9_Pb
   453: 00000000008010c8    88 OBJECT  WEAK   DEFAULT   21 _ZTVN3fst8internal14ComposeFstImplINS_17DefaultCacheStoreINS_6ArcTplINS_16LatticeWeightTplIfEEEEEENS_18MatchComposeFilterINS_7MatcherINS_3FstIS6_EEEESC_EENS_24GenericComposeStateTableIS6_NS_18IntegerFilterStateIaEENS_24DefaultComposeStateTupleIiSG_EENS_21CompactHashStateTableISI_NS_11ComposeHashISI_EEEEEEEE
   454: 0000000000254ab0   103 FUNC    WEAK   DEFAULT   12 _ZN3fst17ComposeFstMatcherINS_17DefaultCacheStoreINS_6ArcTplINS_16LatticeWeightTplIfEEEEEENS_20NoMatchComposeFilterINS_7MatcherINS_3FstIS5_EEEESB_EENS_24GenericComposeStateTableIS5_NS_18TrivialFilterStateENS_24DefaultComposeStateTupleIiSE_EENS_21CompactHashStateTableISG_NS_11ComposeHashISG_EEEEEEE8SetStateEi
   455: 00000000007fe840    24 OBJECT  WEAK   DEFAULT   21 _ZTIN3fst8internal15MemoryArenaImplILm72EEE
   456: 0000000000452b60   458 FUNC    WEAK   DEFAULT   12 _ZNSt6vectorIN5kaldi18OnlineProcessPitch18NormalizationStatsESaIS2_EE17_M_default_appendEm
   457: 00000000003e2780  2511 FUNC    WEAK   DEFAULT   12 _ZNSt6vectorIN5kaldi28LatticeIncrementalDecoderTplIN3fst13GrammarFstTplIKNS2_8ConstFstINS2_6ArcTplINS2_17TropicalWeightTplIfEEEEjEEEENS0_7decoder16BackpointerTokenEE9TokenListESaISF_EE17_M_default_appendEm
   458: 0000000000513a00  2648 FUNC    GLOBAL DEFAULT   12 _ZN5kaldi5nnet38Compiler17CreateComputationERKNS0_15CompilerOptionsEPNS0_15NnetComputationE
   459: 000000000025cc20    75 FUNC    WEAK   DEFAULT   12 _ZNSt23_Sp_counted_ptr_inplaceIN3fst8internal14ComposeFstImplINS0_17DefaultCacheStoreINS0_6ArcTplINS0_16LatticeWeightTplIfEEEEEENS0_22LookAheadComposeFilterINS0_24AltSequenceComposeFilterINS0_16LookAheadMatcherINS0_3FstIS7_EEEESE_EESE_SE_LNS0_9MatchTypeE3EEENS0_24GenericComposeStateTableIS7_NS0_18IntegerFilterStateIaEENS0_24DefaultComposeStateTupleIiSK_EENS0_21CompactHashStateTableISM_NS0_11ComposeHashISM_EEEEEEEESaIvELN9__gnu_cxx12_Lock_policyE2EE14_M_get_deleterERKSt9type_info
   460: 0000000000252b20    11 FUNC    WEAK   DEFAULT   12 _ZNK3fst16ImplToMutableFstINS_8internal13VectorFstImplINS_11VectorStateINS_6ArcTplINS_23CompactLatticeWeightTplINS_16LatticeWeightTplIfEEiEEEESaIS9_EEEEENS_10MutableFstIS9_EEE13OutputSymbolsEv
   461: 0000000000586f60   129 FUNC    GLOBAL DEFAULT   12 _ZN5kaldi5nnet315LinearComponentC1ERKS1_
   462: 00000000006ed850    63 FUNC    GLOBAL DEFAULT   12 _ZN3fst18ReweightPropertiesEmb
   463: 0000000000807450    88 OBJECT  WEAK   DEFAULT   21 _ZTVN5kaldi5nnet329SwitchingForwardingDescriptorE
   464: 00000000003288c0   231 FUNC    WEAK   DEFAULT   12 _ZN3fst8internal7FstImplINS_10ReverseArcINS_6ArcTplINS_17TropicalWeightTplIfEEEEEEED2Ev
   465: 0000000000805200    24 OBJECT  WEAK   DEFAULT   21 _ZTINSt6thread11_State_implINS_8_InvokerISt5tupleIJPFvPN5kaldi13TaskSequencerINS3_37IvectorExtractorUpdateProjectionClassEE15RunTaskArgsListEES8_EEEEEE
   466: 00000000005a7620  1051 FUNC    GLOBAL DEFAULT   12 _ZNK5kaldi5nnet314MaxChangeStats5PrintERKNS0_4NnetE
   467: 00000000005eb270   128 FUNC    GLOBAL DEFAULT   12 _ZN5kaldi5nnet318GetNnetExampleSizeERKNS0_11NnetExampleE
   468: 00000000002517b0     1 FUNC    WEAK   DEFAULT   12 _ZNSt23_Sp_counted_ptr_inplaceIN3fst8internal14ComposeFstImplINS0_17DefaultCacheStoreINS0_6ArcTplINS0_17TropicalWeightTplIfEEEEEENS0_21SequenceComposeFilterINS0_7MatcherINS0_3FstIS7_EEEESD_EENS0_24GenericComposeStateTableIS7_NS0_18IntegerFilterStateIaEENS0_24DefaultComposeStateTupleIiSH_EENS0_21CompactHashStateTableISJ_NS0_11ComposeHashISJ_EEEEEEEESaIvELN9__gnu_cxx12_Lock_policyE2EED1Ev
   469: 000000000055fb00    10 FUNC    WEAK   DEFAULT   12 _ZN5kaldi5nnet328SpecAugmentTimeMaskComponentD0Ev
   470: 00000000004079e0     5 FUNC    WEAK   DEFAULT   12 _ZN5kaldi34LatticeIncrementalOnlineDecoderTplIN3fst13GrammarFstTplINS1_9VectorFstINS1_6ArcTplINS1_17TropicalWeightTplIfEEEENS1_11VectorStateIS7_SaIS7_EEEEEEEEC2ERKSC_RKNS_21TransitionInformationERKNS_31LatticeIncrementalDecoderConfigE
   471: 00000000007feab0    24 OBJECT  WEAK   DEFAULT   21 _ZTIN3fst8internal15MemoryArenaImplILm648EEE
   472: 00000000004b1920    17 FUNC    WEAK   DEFAULT   12 _ZNK3fst17ComposeFstMatcherINS_17DefaultCacheStoreINS_6ArcTplINS_23CompactLatticeWeightTplINS_16LatticeWeightTplIfEEiEEEEEENS_22LookAheadComposeFilterINS_21SequenceComposeFilterINS_16LookAheadMatcherINS_3FstIS7_EEEESE_EESE_SE_LNS_9MatchTypeE3EEENS_24GenericComposeStateTableIS7_NS_18IntegerFilterStateIaEENS_24DefaultComposeStateTupleIiSK_EENS_21CompactHashStateTableISM_NS_11ComposeHashISM_EEEEEEE5ValueEv
   473: 0000000000804aa8    56 OBJECT  WEAK   DEFAULT   21 _ZTVSt23_Sp_counted_ptr_inplaceIN3fst8internal14ComposeFstImplINS0_17DefaultCacheStoreINS0_6ArcTplINS0_17TropicalWeightTplIfEEEEEENS0_20TrivialComposeFilterINS0_7MatcherINS0_3FstIS7_EEEESD_EENS0_24GenericComposeStateTableIS7_NS0_18TrivialFilterStateENS0_24DefaultComposeStateTupleIiSG_EENS0_21CompactHashStateTableISI_NS0_11ComposeHashISI_EEEEEEEESaIvELN9__gnu_cxx12_Lock_policyE2EE
   474: 00000000006a9990   240 FUNC    WEAK   DEFAULT   12 _ZN5kaldi12SparseVectorIdE12CopyFromSvecIdEEvRKNS0_IT_EE
   475: 0000000000258430   116 FUNC    WEAK   DEFAULT   12 _ZNK3fst9VectorFstINS_10ReverseArcINS_6ArcTplINS_23CompactLatticeWeightTplINS_16LatticeWeightTplIfEEiEEEEEENS_11VectorStateIS8_SaIS8_EEEE15InitArcIteratorEiPNS_15ArcIteratorDataIS8_EE
   476: 000000000025ed30   117 FUNC    WEAK   DEFAULT   12 _ZN3fst10MemoryPoolINS_13PoolAllocatorINS_6ArcTplINS_17TropicalWeightTplIfEEEEE2TNILi8EEEED2Ev
   477: 00000000006282e0     5 FUNC    WEAK   DEFAULT   12 _ZN5kaldi12CuMatrixBaseIdE10MulColsVecERKNS_12CuVectorBaseIdEE
   478: 0000000000293770   381 FUNC    WEAK   DEFAULT   12 _ZN3fst20MemoryPoolCollection4PoolINS_13PoolAllocatorINS_6ArcTplINS_17TropicalWeightTplIfEEEEE2TNILi8EEEEEPNS_10MemoryPoolIT_EEv
   479: 00000000002fb6e0     6 FUNC    WEAK   DEFAULT   12 _ZNK3fst29MutableFastLogAccumulatorData9IsMutableEv
   480: 0000000000724d10    28 OBJECT  WEAK   DEFAULT   14 _ZTSN5kaldi17ScalarClusterableE
   481: 00000000003025a0   371 FUNC    WEAK   DEFAULT   12 _ZNSt23_Sp_counted_ptr_inplaceIN3fst8internal12NGramFstImplINS0_6ArcTplINS0_17TropicalWeightTplIfEEEEEESaIvELN9__gnu_cxx12_Lock_policyE2EE10_M_disposeEv
   482: 0000000000689860    29 FUNC    WEAK   DEFAULT   12 _ZN5kaldi12PackedMatrixIdE7SetZeroEv
   483: 000000000029a450   397 FUNC    WEAK   DEFAULT   12 _ZN3fst8internal14ComposeFstImplINS_17DefaultCacheStoreINS_6ArcTplINS_16LatticeWeightTplIfEEEEEENS_18MatchComposeFilterINS_7MatcherINS_3FstIS6_EEEESC_EENS_24GenericComposeStateTableIS6_NS_18IntegerFilterStateIaEENS_24DefaultComposeStateTupleIiSG_EENS_21CompactHashStateTableISI_NS_11ComposeHashISI_EEEEEEE12ComputeFinalEi
   484: 0000000000581290   155 FUNC    GLOBAL DEFAULT   12 _ZN5kaldi5nnet318CompositeComponent21FreezeNaturalGradientEb
   485: 00000000005a5020     1 FUNC    GLOBAL DEFAULT   12 _ZN5kaldi5nnet317ConsolidateMemoryEPNS0_4NnetE
   486: 00000000006e5b10  1524 FUNC    WEAK   DEFAULT   12 _ZNK12FlagRegisterIbE8GetUsageEPSt3setISt4pairINSt7__cxx1112basic_stringIcSt11char_traitsIcESaIcEEES8_ESt4lessIS9_ESaIS9_EE
   487: 000000000064bc40   106 FUNC    WEAK   DEFAULT   12 _ZNK5kaldi10MatrixBaseIfE8ColRangeEii
   488: 00000000004df520  2468 FUNC    GLOBAL DEFAULT   12 _ZN5kaldi18ConstArpaLmBuilder12ConsumeNGramERKNS_5NGramE
   489: 00000000007181c0    81 OBJECT  WEAK   DEFAULT   14 _ZTSN3fst31ComposeDeterministicOnDemandFstINS_6ArcTplINS_17TropicalWeightTplIfEEEEEE
   490: 0000000000252ae0    24 FUNC    WEAK   DEFAULT   12 _ZNK3fst9ImplToFstINS_8internal13VectorFstImplINS_11VectorStateINS_6ArcTplINS_23CompactLatticeWeightTplINS_16LatticeWeightTplIfEEiEEEESaIS9_EEEEENS_10MutableFstIS9_EEE17NumOutputEpsilonsEi
   491: 000000000044a3b0    10 FUNC    WEAK   DEFAULT   12 _ZNK5kaldi15OnlineTransform19FrameShiftInSecondsEv
   492: 000000000033c310   322 FUNC    WEAK   DEFAULT   12 _ZN3fst16ImplToMutableFstINS_8internal13VectorFstImplINS_11VectorStateINS_10ReverseArcINS_6ArcTplINS_17TropicalWeightTplIfEEEEEESaIS9_EEEEENS_10MutableFstIS9_EEE10DeleteArcsEim
   493: 0000000000624200     5 FUNC    WEAK   DEFAULT   12 _ZN5kaldi12CuMatrixBaseIfE11CopyFromMatERKNS_10MatrixBaseIfEENS_19MatrixTransposeTypeE
   494: 00000000007fce88    24 OBJECT  WEAK   DEFAULT   21 _ZTIN3fst22MutableArcIteratorBaseINS_10ReverseArcINS_6ArcTplINS_23CompactLatticeWeightTplINS_16LatticeWeightTplIfEEiEEEEEEEE
   495: 00000000006a3d50   178 FUNC    WEAK   DEFAULT   12 _ZNK5kaldi12SparseVectorIdE3MaxEPi
   496: 00000000005ec490  1465 FUNC    GLOBAL DEFAULT   12 _ZN5kaldi5nnet317WriteVectorAsCharERSobRKNS_10VectorBaseIfEE
   497: 00000000002bbeb0   389 FUNC    WEAK   DEFAULT   12 _ZNSt6vectorIPN3fst11VectorStateINS0_10ReverseArcINS0_6ArcTplINS0_16LatticeWeightTplIfEEEEEESaIS7_EEESaISA_EE17_M_realloc_insertIJRKSA_EEEvN9__gnu_cxx17__normal_iteratorIPSA_SC_EEDpOT_
   498: 00000000007193a0    72 OBJECT  WEAK   DEFAULT   14 _ZTSN3fst22MutableArcIteratorBaseINS_6ArcTplINS_17TropicalWeightTplIfEEEEEE
   499: 000000000037afd0  1920 FUNC    WEAK   DEFAULT   12 _ZNSt6vectorIN5kaldi23LatticeFasterDecoderTplIN3fst8ConstFstINS2_6ArcTplINS2_17TropicalWeightTplIfEEEEjEENS0_7decoder16BackpointerTokenEE9TokenListESaISC_EE17_M_default_appendEm
   500: 00000000006b8670   679 FUNC    GLOBAL DEFAULT   12 _ZN5kaldi18ClassifyRxfilenameERKNSt7__cxx1112basic_stringIcSt11char_traitsIcESaIcEEE
   501: 0000000000391720   333 FUNC    WEAK   DEFAULT   12 _ZNSt10_HashtableIiSt4pairIKiSt10shared_ptrIN3fst13GrammarFstTplIKNS3_8ConstFstINS3_6ArcTplINS3_17TropicalWeightTplIfEEEEjEEE13ExpandedStateEEESaISF_ENSt8__detail10_Select1stESt8equal_toIiESt4hashIiENSH_18_Mod_range_hashingENSH_20_Default_ranged_hashENSH_20_Prime_rehash_policyENSH_17_Hashtable_traitsILb0ELb0ELb1EEEE9_M_rehashEmRKm
   502: 00000000004541d0   122 FUNC    GLOBAL DEFAULT   12 _ZN5kaldi14LinearResampleC2Eiifi
   503: 00000000003df290    99 FUNC    WEAK   DEFAULT   12 _ZNSt10_HashtableIPN5kaldi7decoder8StdTokenESt4pairIKS3_lESaIS6_ENSt8__detail10_Select1stESt8equal_toIS3_ESt4hashIS3_ENS8_18_Mod_range_hashingENS8_20_Default_ranged_hashENS8_20_Prime_rehash_policyENS8_17_Hashtable_traitsILb0ELb0ELb1EEEE5clearEv
   504: 000000000040e1a0    10 FUNC    WEAK   DEFAULT   12 _ZNSt15_Sp_counted_ptrIPKN3fst8ConstFstINS0_6ArcTplINS0_17TropicalWeightTplIfEEEEjEELN9__gnu_cxx12_Lock_policyE2EE10_M_destroyEv
   505: 000000000059d010    43 FUNC    WEAK   DEFAULT   12 _ZN5kaldi5nnet315AffineComponentD1Ev
   506: 0000000000560250   130 FUNC    WEAK   DEFAULT   12 _ZNK5kaldi5nnet328SpecAugmentTimeMaskComponent4TypeB5cxx11Ev
   507: 00000000004b1730   283 FUNC    WEAK   DEFAULT   12 _ZNK3fst17ComposeFstMatcherINS_17DefaultCacheStoreINS_6ArcTplINS_23CompactLatticeWeightTplINS_16LatticeWeightTplIfEEiEEEEEENS_22LookAheadComposeFilterINS_21SequenceComposeFilterINS_16LookAheadMatcherINS_3FstIS7_EEEESE_EESE_SE_LNS_9MatchTypeE3EEENS_24GenericComposeStateTableIS7_NS_18IntegerFilterStateIaEENS_24DefaultComposeStateTupleIiSK_EENS_21CompactHashStateTableISM_NS_11ComposeHashISM_EEEEEEE4TypeEb
   508: 00000000005bdda0   228 FUNC    GLOBAL DEFAULT   12 _ZN5kaldi5nnet321OnlineNaturalGradient4SwapEPS1_
   509: 0000000000806c28    16 OBJECT  WEAK   DEFAULT   21 _ZTIN5kaldi21TransitionInformationE
   510: 0000000000801c48    56 OBJECT  WEAK   DEFAULT   21 _ZTVSt23_Sp_counted_ptr_inplaceIN3fst8internal14ComposeFstImplINS0_17DefaultCacheStoreINS0_6ArcTplINS0_16LatticeWeightTplIfEEEEEENS0_21SequenceComposeFilterINS0_7MatcherINS0_3FstIS7_EEEESD_EENS0_24GenericComposeStateTableIS7_NS0_18IntegerFilterStateIaEENS0_24DefaultComposeStateTupleIiSH_EENS0_21CompactHashStateTableISJ_NS0_11ComposeHashISJ_EEEEEEEESaIvELN9__gnu_cxx12_Lock_policyE2EE
   511: 00000000006afa60  1436 FUNC    WEAK   DEFAULT   12 _ZN5kaldi12SparseMatrixIdE12CopyFromSmatIdEEvRKNS0_IT_EENS_19MatrixTransposeTypeE
   512: 000000000064e540   190 FUNC    WEAK   DEFAULT   12 _ZNK5kaldi10MatrixBaseIfE10IsDiagonalEf
   513: 00000000006a6230   692 FUNC    WEAK   DEFAULT   12 _ZNSt6vectorIN5kaldi12SparseVectorIfEESaIS2_EE17_M_default_appendEm
   514: 00000000007171a0   144 OBJECT  WEAK   DEFAULT   14 _ZTSN3fst17ImplToExpandedFstINS_8internal13VectorFstImplINS_11VectorStateINS_6ArcTplINS_17TropicalWeightTplIfEEEESaIS7_EEEEENS_10MutableFstIS7_EEEE
   515: 00000000006ee880   100 FUNC    GLOBAL DEFAULT   12 _ZN3fst8internal14DenseSymbolMapC1Ev
   516: 0000000000383eb0   189 FUNC    WEAK   DEFAULT   12 _ZN5kaldi23LatticeFasterDecoderTplIN3fst8ConstFstINS1_6ArcTplINS1_17TropicalWeightTplIfEEEEjEENS_7decoder8StdTokenEE15AdvanceDecodingEPNS_18DecodableInterfaceEi
   517: 0000000000588b80   153 FUNC    GLOBAL DEFAULT   12 _ZNK5kaldi5nnet316SigmoidComponent8BackpropERKNSt7__cxx1112basic_stringIcSt11char_traitsIcESaIcEEEPKNS0_27ComponentPrecomputedIndexesERKNS_12CuMatrixBaseIfEESG_SG_PvPNS0_9ComponentEPSE_
   518: 00000000005511a0    37 FUNC    WEAK   DEFAULT   12 _ZN5kaldi5nnet326OffsetForwardingDescriptorD1Ev
   519: 00000000006518b0   510 FUNC    WEAK   DEFAULT   12 _ZN5kaldi10MatrixBaseIfE17AddMatMatElementsEfRKS1_S3_f
   520: 000000000039a350  1765 FUNC    WEAK   DEFAULT   12 _ZN5kaldi23LatticeFasterDecoderTplIN3fst9VectorFstINS1_6ArcTplINS1_17TropicalWeightTplIfEEEENS1_11VectorStateIS6_SaIS6_EEEEENS_7decoder16BackpointerTokenEE13TopSortTokensEPSC_PSt6vectorISE_SaISE_EE
   521: 000000000042bdd0   983 FUNC    GLOBAL DEFAULT   12 _ZN5kaldi7DiagGmmC2ERKNS_16GaussClusterableEf
   522: 00000000006df7e0   320 FUNC    GLOBAL DEFAULT   12 _ZN5kaldi18ExtractObjectRangeERKNS_13GeneralMatrixERKNSt7__cxx1112basic_stringIcSt11char_traitsIcESaIcEEEPS0_
   523: 0000000000255f60    90 FUNC    WEAK   DEFAULT   12 _ZNK3fst8internal13ArcMapFstImplINS_6ArcTplINS_17TropicalWeightTplIfEEEENS2_INS_16LatticeWeightTplIfEEEENS_18StdToLatticeMapperIfEEE10PropertiesEm
   524: 0000000000581030    16 FUNC    GLOBAL DEFAULT   12 _ZNK5kaldi5nnet316DropoutComponent8BackpropERKNSt7__cxx1112basic_stringIcSt11char_traitsIcESaIcEEEPKNS0_27ComponentPrecomputedIndexesERKNS_12CuMatrixBaseIfEESG_SG_PvPNS0_9ComponentEPSE_
   525: 000000000036aa40    21 FUNC    WEAK   DEFAULT   12 _ZN5kaldi23LatticeFasterDecoderTplIN3fst3FstINS1_6ArcTplINS1_17TropicalWeightTplIfEEEEEENS_7decoder8StdTokenEE9TokenListC1Ev
   526: 000000000062ef10   266 FUNC    WEAK   DEFAULT   12 _ZN5kaldi6VecVecIfdEET_RKNS_12CuVectorBaseIS1_EERKNS2_IT0_EE
   527: 0000000000660c00   498 FUNC    WEAK   DEFAULT   12 _ZN5kaldi10MatrixBaseIfE14DestructiveSvdEPNS_10VectorBaseIfEEPS1_S5_
   528: 000000000035b5d0    15 FUNC    WEAK   DEFAULT   12 _ZN5kaldi41SingleUtteranceNnet3IncrementalDecoderTplIN3fst3FstINS1_6ArcTplINS1_17TropicalWeightTplIfEEEEEEE10GetLatticeEib
   529: 000000000063d920   185 FUNC    WEAK   DEFAULT   12 _ZN5kaldi23EigenvalueDecompositionIfE18GetRealEigenvaluesEPNS_10VectorBaseIfEE
   530: 0000000000676330     6 FUNC    WEAK   DEFAULT   12 _ZNK5kaldi10VectorBaseIdE3DimEv
   531: 0000000000512460   510 FUNC    GLOBAL DEFAULT   12 _ZN5kaldi5nnet38Compiler15CompileBackwardEiPNS0_15NnetComputationE
   532: 0000000000806638    88 OBJECT  WEAK   DEFAULT   21 _ZTVN3fst8internal14ComposeFstImplINS_17DefaultCacheStoreINS_6ArcTplINS_23CompactLatticeWeightTplINS_16LatticeWeightTplIfEEiEEEEEENS_22LookAheadComposeFilterINS_21SequenceComposeFilterINS_16LookAheadMatcherINS_3FstIS8_EEEESF_EESF_SF_LNS_9MatchTypeE3EEENS_24GenericComposeStateTableIS8_NS_18IntegerFilterStateIaEENS_24DefaultComposeStateTupleIiSL_EENS_21CompactHashStateTableISN_NS_11ComposeHashISN_EEEEEEEE
   533: 000000000028ab00   748 FUNC    WEAK   DEFAULT   12 _ZNK3fst17ComposeFstMatcherINS_17DefaultCacheStoreINS_6ArcTplINS_16LatticeWeightTplIfEEEEEENS_22LookAheadComposeFilterINS_21SequenceComposeFilterINS_16LookAheadMatcherINS_3FstIS5_EEEESC_EESC_SC_LNS_9MatchTypeE3EEENS_24GenericComposeStateTableIS5_NS_18IntegerFilterStateIaEENS_24DefaultComposeStateTupleIiSI_EENS_21CompactHashStateTableISK_NS_11ComposeHashISK_EEEEEEE4CopyEb
   534: 000000000062c7c0   338 FUNC    WEAK   DEFAULT   12 _ZNK5kaldi10CuSpMatrixIdE11ApproxEqualERKS1_d
   535: 00000000008061f8    48 OBJECT  WEAK   DEFAULT   21 _ZTVN3fst8internal14RandGenFstImplINS_6ArcTplINS_23CompactLatticeWeightTplINS_16LatticeWeightTplIfEEiEEEES7_NS_10ArcSamplerIS7_NS_18UniformArcSelectorIS7_EEEEEE
   536: 000000000025efb0   117 FUNC    WEAK   DEFAULT   12 _ZN3fst10MemoryPoolINS_13PoolAllocatorINS_6ArcTplINS_16LatticeWeightTplIfEEEEE2TNILi64EEEED1Ev
   537: 0000000000631040    33 FUNC    WEAK   DEFAULT   12 _ZN5kaldi8CuVectorIdE4SwapEPNS_6VectorIdEE
   538: 0000000000370280   567 FUNC    WEAK   DEFAULT   12 _ZN5kaldi23LatticeFasterDecoderTplIN3fst13GrammarFstTplINS1_9VectorFstINS1_6ArcTplINS1_17TropicalWeightTplIfEEEENS1_11VectorStateIS7_SaIS7_EEEEEEENS_7decoder16BackpointerTokenEE17PruneActiveTokensEf
   539: 0000000000330100  1224 FUNC    WEAK   DEFAULT   12 _ZN3fst8internal14ComposeFstImplINS_17DefaultCacheStoreINS_6ArcTplINS_17TropicalWeightTplIfEEEEEENS_24AltSequenceComposeFilterINS_7MatcherINS_3FstIS6_EEEESC_EENS_24GenericComposeStateTableIS6_NS_18IntegerFilterStateIaEENS_24DefaultComposeStateTupleIiSG_EENS_21CompactHashStateTableISI_NS_11ComposeHashISI_EEEEEEE12SetMatchTypeEv
   540: 000000000054ade0   145 FUNC    WEAK   DEFAULT   12 _ZN5kaldi5nnet323time_height_convolution22ConvolutionComputation15ConvolutionStepD2Ev
   541: 00000000002595a0   104 FUNC    WEAK   DEFAULT   12 _ZNK3fst8internal13ArcMapFstImplINS_6ArcTplINS_17TropicalWeightTplIfEEEENS2_INS_16LatticeWeightTplIfEEEENS_18StdToLatticeMapperIfEEE10PropertiesEv
   542: 00000000004b79d0   547 FUNC    WEAK   DEFAULT   12 _ZSt16__do_uninit_copyIPKSt4pairIN5kaldi18LatticeWordAligner5TupleEiEPS4_ET0_T_S9_S8_
   543: 0000000000623ea0     5 FUNC    WEAK   DEFAULT   12 _ZN5kaldi12CuMatrixBaseIfE9AddToDiagEf
   544: 0000000000648f00   315 FUNC    WEAK   DEFAULT   12 _ZN5kaldi6MatrixIfEC2EiiNS_16MatrixResizeTypeENS_16MatrixStrideTypeE
   545: 000000000039ea30  3180 FUNC    WEAK   DEFAULT   12 _ZNK5kaldi23LatticeFasterDecoderTplIN3fst3FstINS1_6ArcTplINS1_17TropicalWeightTplIfEEEEEENS_7decoder8StdTokenEE13GetRawLatticeEPNS1_9VectorFstINS3_INS1_16LatticeWeightTplIfEEEENS1_11VectorStateISE_SaISE_EEEEEb
   546: 000000000028b150   309 FUNC    WEAK   DEFAULT   12 _ZNK3fst8internal14ComposeFstImplINS_17DefaultCacheStoreINS_6ArcTplINS_16LatticeWeightTplIfEEEEEENS_22LookAheadComposeFilterINS_21SequenceComposeFilterINS_16LookAheadMatcherINS_3FstIS6_EEEESD_EESD_SD_LNS_9MatchTypeE3EEENS_24GenericComposeStateTableIS6_NS_18IntegerFilterStateIaEENS_24DefaultComposeStateTupleIiSJ_EENS_21CompactHashStateTableISL_NS_11ComposeHashISL_EEEEEEE11InitMatcherERKNS_10ComposeFstIS6_S7_EESF_
   547: 000000000036b7d0    21 FUNC    WEAK   DEFAULT   12 _ZN5kaldi23LatticeFasterDecoderTplIN3fst8ConstFstINS1_6ArcTplINS1_17TropicalWeightTplIfEEEEjEENS_7decoder16BackpointerTokenEE9TokenListC2Ev
   548: 000000000025cb80    75 FUNC    WEAK   DEFAULT   12 _ZNSt23_Sp_counted_ptr_inplaceIN3fst8internal14ComposeFstImplINS0_17DefaultCacheStoreINS0_6ArcTplINS0_16LatticeWeightTplIfEEEEEENS0_20TrivialComposeFilterINS0_7MatcherINS0_3FstIS7_EEEESD_EENS0_24GenericComposeStateTableIS7_NS0_18TrivialFilterStateENS0_24DefaultComposeStateTupleIiSG_EENS0_21CompactHashStateTableISI_NS0_11ComposeHashISI_EEEEEEEESaIvELN9__gnu_cxx12_Lock_policyE2EE14_M_get_deleterERKSt9type_info
   549: 00000000007fe0f0    24 OBJECT  WEAK   DEFAULT   21 _ZTIN3fst16ImplToMutableFstINS_8internal13VectorFstImplINS_11VectorStateINS_10ReverseArcINS_6ArcTplINS_16LatticeWeightTplIfEEEEEESaIS9_EEEEENS_10MutableFstIS9_EEEE
   550: 00000000007fdad0    24 OBJECT  WEAK   DEFAULT   21 _ZTIN3fst8internal13CacheBaseImplINS_10CacheStateINS_6ArcTplINS_17TropicalWeightTplIfEEEENS_13PoolAllocatorIS6_EEEENS_17DefaultCacheStoreIS6_EEEE
   551: 0000000000544590    82 FUNC    GLOBAL DEFAULT   12 _ZN5kaldi5nnet330TimeHeightConvolutionComponent5ScaleEf
   552: 000000000062fcf0    11 FUNC    WEAK   DEFAULT   12 _ZN5kaldi12CuVectorBaseIdE12ApplyCeilingEdPi
   553: 000000000062fd70    72 FUNC    WEAK   DEFAULT   12 _ZN5kaldi12CuVectorBaseIdE8SetRandnEv
   554: 00000000004b0ce0     1 FUNC    WEAK   DEFAULT   12 _ZNSt23_Sp_counted_ptr_inplaceIN3fst8internal14ComposeFstImplINS0_17DefaultCacheStoreINS0_6ArcTplINS0_23CompactLatticeWeightTplINS0_16LatticeWeightTplIfEEiEEEEEENS0_21SequenceComposeFilterINS0_7MatcherINS0_3FstIS9_EEEESF_EENS0_24GenericComposeStateTableIS9_NS0_18IntegerFilterStateIaEENS0_24DefaultComposeStateTupleIiSJ_EENS0_21CompactHashStateTableISL_NS0_11ComposeHashISL_EEEEEEEESaIvELN9__gnu_cxx12_Lock_policyE2EED1Ev
   555: 0000000000803b88    24 OBJECT  WEAK   DEFAULT   21 _ZTIN3fst8internal13VectorFstImplINS_11VectorStateINS_10ReverseArcINS_6ArcTplINS_17TropicalWeightTplIfEEEEEESaIS8_EEEEE
   556: 0000000000272f10   245 FUNC    WEAK   DEFAULT   12 _ZNSt10_HashtableISt4pairIiiES0_IKS1_iESaIS3_ENSt8__detail10_Select1stESt8equal_toIS1_EN5kaldi10PairHasherIiiEENS5_18_Mod_range_hashingENS5_20_Default_ranged_hashENS5_20_Prime_rehash_policyENS5_17_Hashtable_traitsILb0ELb0ELb1EEEE21_M_insert_unique_nodeEmmPNS5_10_Hash_nodeIS3_Lb0EEEm
   557: 000000000054b5f0    78 FUNC    GLOBAL DEFAULT   12 _ZNK5kaldi5nnet332ReplaceIndexForwardingDescriptor4CopyEv
   558: 00000000003d8e20    39 FUNC    WEAK   DEFAULT   12 _ZNSt6vectorIN5kaldi28LatticeIncrementalDecoderTplIN3fst9VectorFstINS2_6ArcTplINS2_17TropicalWeightTplIfEEEENS2_11VectorStateIS7_SaIS7_EEEEENS0_7decoder8StdTokenEE9TokenListESaISF_EED1Ev
   559: 00000000006d24e0   125 FUNC    GLOBAL DEFAULT   12 _ZN5kaldi7IsTokenERKNSt7__cxx1112basic_stringIcSt11char_traitsIcESaIcEEE
   560: 00000000007167e0   112 OBJECT  WEAK   DEFAULT   14 _ZTSN3fst18MutableArcIteratorINS_9VectorFstINS_6ArcTplINS_16LatticeWeightTplIfEEEENS_11VectorStateIS5_SaIS5_EEEEEEE
   561: 00000000003b6690  1784 FUNC    WEAK   DEFAULT   12 _ZN3fst8internal14RandGenVisitorINS_6ArcTplINS_16LatticeWeightTplIfEEEES5_E10OutputPathEv
   562: 00000000003959a0  1835 FUNC    WEAK   DEFAULT   12 _ZN5kaldi23LatticeFasterDecoderTplIN3fst13GrammarFstTplINS1_9VectorFstINS1_6ArcTplINS1_17TropicalWeightTplIfEEEENS1_11VectorStateIS7_SaIS7_EEEEEEENS_7decoder16BackpointerTokenEE15ProcessEmittingEPNS_18DecodableInterfaceE
   563: 00000000006a6b20  1655 FUNC    WEAK   DEFAULT   12 _ZNSt6vectorIN5kaldi12SparseVectorIfEESaIS2_EE14_M_fill_insertEN9__gnu_cxx17__normal_iteratorIPS2_S4_EEmRKS2_
   564: 00000000005667a0    82 FUNC    GLOBAL DEFAULT   12 _ZN5kaldi5nnet311NetworkNodeC1ERKS1_
   565: 0000000000599a70   200 FUNC    GLOBAL DEFAULT   12 _ZNK5kaldi5nnet317SumGroupComponent5WriteERSob
   566: 000000000025e8b0   117 FUNC    WEAK   DEFAULT   12 _ZN3fst8internal14MemoryPoolImplILm8EED2Ev
   567: 0000000000803ca0    24 OBJECT  WEAK   DEFAULT   21 _ZTIN3fst14DeterminizeFstINS_10ReverseArcINS_6ArcTplINS_17TropicalWeightTplIfEEEEEEEE
   568: 0000000000260380    98 FUNC    WEAK   DEFAULT   12 _ZN10LogMessageC2ERKNSt7__cxx1112basic_stringIcSt11char_traitsIcESaIcEEE
   569: 000000000028b9f0  1156 FUNC    WEAK   DEFAULT   12 _ZN3fst22LookAheadComposeFilterINS_24AltSequenceComposeFilterINS_16LookAheadMatcherINS_3FstINS_6ArcTplINS_16LatticeWeightTplIfEEEEEEEES9_EES9_S9_LNS_9MatchTypeE3EEC2ERKS8_SE_PS9_SF_
   570: 00000000005062e0   650 FUNC    GLOBAL DEFAULT   12 _ZN5kaldi5nnet333AddTimeOffsetToComputationRequestEiPNS0_18ComputationRequestE
   571: 000000000029ce50   197 FUNC    WEAK   DEFAULT   12 _ZNSt6vectorIPN3fst11VectorStateINS0_10ReverseArcINS0_6ArcTplINS0_23CompactLatticeWeightTplINS0_16LatticeWeightTplIfEEiEEEEEESaIS9_EEESaISC_EE7reserveEm
   572: 0000000000727f20    32 OBJECT  WEAK   DEFAULT   14 _ZTSN5kaldi5nnet315AffineComponentE
   573: 000000000040e100     1 FUNC    WEAK   DEFAULT   12 _ZNSt23_Sp_counted_ptr_inplaceIN3fst13GrammarFstTplIKNS0_8ConstFstINS0_6ArcTplINS0_17TropicalWeightTplIfEEEEjEEE13ExpandedStateESaIvELN9__gnu_cxx12_Lock_policyE2EED2Ev
   574: 00000000002c6c60   439 FUNC    WEAK   DEFAULT   12 _ZN3fst16ImplToMutableFstINS_8internal13VectorFstImplINS_11VectorStateINS_10ReverseArcINS_6ArcTplINS_16LatticeWeightTplIfEEEEEESaIS9_EEEEENS_10MutableFstIS9_EEE6AddArcEiOS9_
   575: 00000000004832e0  3312 FUNC    GLOBAL DEFAULT   12 _ZN5kaldi26CompactLatticeShortestPathERKN3fst9VectorFstINS0_6ArcTplINS0_23CompactLatticeWeightTplINS0_16LatticeWeightTplIfEEiEEEENS0_11VectorStateIS7_SaIS7_EEEEEPSB_
   576: 00000000002a9b10 11141 FUNC    WEAK   DEFAULT   12 _ZN3fst9AutoQueueIiEC1INS_6ArcTplINS_23CompactLatticeWeightTplINS_16LatticeWeightTplIfEEiEEEENS_16EpsilonArcFilterIS8_EEEERKNS_3FstIT_EEPKSt6vectorINSC_6WeightESaISH_EET0_
   577: 0000000000805d98    56 OBJECT  WEAK   DEFAULT   21 _ZTVSt15_Sp_counted_ptrIPN3fst8internal18ComposeFstImplBaseINS0_6ArcTplINS0_23CompactLatticeWeightTplINS0_16LatticeWeightTplIfEEiEEEENS0_17DefaultCacheStoreIS8_EENS0_10ComposeFstIS8_SA_EEEELN9__gnu_cxx12_Lock_policyE2EE
   578: 00000000003ebb20   366 FUNC    WEAK   DEFAULT   12 _ZN5kaldi28LatticeIncrementalDecoderTplIN3fst3FstINS1_6ArcTplINS1_17TropicalWeightTplIfEEEEEENS_7decoder8StdTokenEE16FinalizeDecodingEv
   579: 00000000006e0500   512 FUNC    WEAK   DEFAULT   12 _ZN5kaldi18ExtractObjectRangeIfEEbRKNS_16CompressedMatrixERKNSt7__cxx1112basic_stringIcSt11char_traitsIcESaIcEEEPNS_6MatrixIT_EE
   580: 00000000005e7760   914 FUNC    GLOBAL DEFAULT   12 _ZN5kaldi5nnet315NnetComputeProb14ProcessOutputsERKNS0_11NnetExampleEPNS0_12NnetComputerE
   581: 000000000071d4c0   107 OBJECT  WEAK   DEFAULT   14 _ZTSN3fst10MemoryPoolINS_13PoolAllocatorINS_10ReverseArcINS_6ArcTplINS_16LatticeWeightTplIfEEEEEEE2TNILi8EEEEE
   582: 0000000000410410   218 FUNC    WEAK   DEFAULT   12 _ZNSt6vectorISt13unordered_mapIiiSt4hashIiESt8equal_toIiESaISt4pairIKiiEEESaIS9_EED1Ev
   583: 00000000006485f0   200 FUNC    WEAK   DEFAULT   12 _ZN5kaldi6MatrixIdE9RemoveRowEi
   584: 00000000002535f0    16 FUNC    WEAK   DEFAULT   12 _ZNSt23_Sp_counted_ptr_inplaceIN3fst8internal13VectorFstImplINS0_11VectorStateINS0_10ReverseArcINS0_6ArcTplINS0_23CompactLatticeWeightTplINS0_16LatticeWeightTplIfEEiEEEEEESaISB_EEEEESaIvELN9__gnu_cxx12_Lock_policyE2EE10_M_disposeEv
   585: 000000000044a500    16 FUNC    WEAK   DEFAULT   12 _ZNK5kaldi24OnlineGenericBaseFeatureINS_12MfccComputerEE19FrameShiftInSecondsEv
   586: 0000000000351200  2528 FUNC    GLOBAL DEFAULT   12 _ZN5kaldi20OnlineIvectorFeature20UpdateStatsForFramesERKSt6vectorISt4pairIifESaIS3_EE
   587: 00000000005658c0    26 FUNC    GLOBAL DEFAULT   12 _ZNK5kaldi5nnet34Nnet16IsDescriptorNodeEi
   588: 00000000004b0cb0     6 FUNC    WEAK   DEFAULT   12 _ZNK3fst8internal15MemoryArenaImplILm104EE4SizeEv
   589: 0000000000371470    39 FUNC    WEAK   DEFAULT   12 _ZNSt6vectorIPN5kaldi7decoder16BackpointerTokenESaIS3_EED2Ev
   590: 00000000007fedf8    48 OBJECT  WEAK   DEFAULT   21 _ZTVN3fst8internal17VectorFstBaseImplINS_11VectorStateINS_6ArcTplINS_17TropicalWeightTplIfEEEESaIS6_EEEEE
   591: 0000000000253d00    28 FUNC    WEAK   DEFAULT   12 _ZNK3fst18MutableArcIteratorINS_9VectorFstINS_6ArcTplINS_17TropicalWeightTplIfEEEENS_11VectorStateIS5_SaIS5_EEEEEE4DoneEv
   592: 0000000000724760   112 OBJECT  WEAK   DEFAULT   14 _ZTSN3fst10RandGenFstINS_6ArcTplINS_16LatticeWeightTplIfEEEES4_NS_10ArcSamplerIS4_NS_18UniformArcSelectorIS4_EEEEEE
   593: 000000000054b450    10 FUNC    GLOBAL DEFAULT   12 _ZNK5kaldi5nnet319SimpleSumDescriptor19GetNodeDependenciesEPSt6vectorIiSaIiEE
   594: 0000000000673d10   196 FUNC    WEAK   DEFAULT   12 _ZN5kaldi10VectorBaseIfE7SigmoidERKS1_
   595: 00000000004b0c90     6 FUNC    WEAK   DEFAULT   12 _ZNK3fst8internal15MemoryArenaImplILm392EE4SizeEv
   596: 0000000000689500    19 FUNC    WEAK   DEFAULT   12 _ZN5kaldi12PackedMatrixIfED2Ev
   597: 00000000006bbfd0   207 FUNC    WEAK   DEFAULT   12 _ZN5kaldi13PipeInputImpl6StreamEv
   598: 000000000080aa28    64 OBJECT  WEAK   DEFAULT   21 _ZTVN5kaldi13FileInputImplE
   599: 000000000036ba30    18 FUNC    WEAK   DEFAULT   12 _ZNK5kaldi23LatticeFasterDecoderTplIN3fst13GrammarFstTplINS1_9VectorFstINS1_6ArcTplINS1_17TropicalWeightTplIfEEEENS1_11VectorStateIS7_SaIS7_EEEEEEENS_7decoder16BackpointerTokenEE16NumFramesDecodedEv
   600: 00000000007fee58   312 OBJECT  WEAK   DEFAULT   21 _ZTVN3fst9ImplToFstINS_8internal13VectorFstImplINS_11VectorStateINS_6ArcTplINS_17TropicalWeightTplIfEEEESaIS7_EEEEENS_10MutableFstIS7_EEEE
   601: 00000000003d2740    48 FUNC    WEAK   DEFAULT   12 _ZN5kaldi28LatticeIncrementalDecoderTplIN3fst3FstINS1_6ArcTplINS1_17TropicalWeightTplIfEEEEEENS_7decoder16BackpointerTokenEE11DeleteElemsEPNS_8HashListIiPS9_E4ElemE
   602: 00000000008083f8    24 OBJECT  WEAK   DEFAULT   21 _ZTIN5kaldi5nnet321ClipGradientComponentE
   603: 00000000005dd320   838 FUNC    GLOBAL DEFAULT   12 _ZNK5kaldi5nnet317IndexVectorHasherclERKSt6vectorINS0_5IndexESaIS3_EE
   604: 00000000005a4d80   143 FUNC    GLOBAL DEFAULT   12 _ZN5kaldi5nnet312HasBatchnormERKNS0_4NnetE
   605: 0000000000539230  5662 FUNC    GLOBAL DEFAULT   12 _ZN5kaldi5nnet315NnetComputationaSERKS1_
   606: 0000000000327d20   117 FUNC    WEAK   DEFAULT   12 _ZN3fst10MemoryPoolINS_13PoolAllocatorINS_10ReverseArcINS_6ArcTplINS_17TropicalWeightTplIfEEEEEEE2TNILi2EEEED2Ev
   607: 00000000004c45b0    19 FUNC    WEAK   DEFAULT   12 _ZN3fst8internal9CacheImplINS_6ArcTplINS_23CompactLatticeWeightTplINS_16LatticeWeightTplIfEEiEEEEED1Ev
   608: 000000000033ac20   406 FUNC    WEAK   DEFAULT   12 _ZNSt6vectorIN3fst10ReverseArcINS0_6ArcTplINS0_17TropicalWeightTplIfEEEEEESaIS6_EE17_M_realloc_insertIJS6_EEEvN9__gnu_cxx17__normal_iteratorIPS6_S8_EEDpOT_
   609: 0000000000815200     8 OBJECT  <OS specific>: 10 DEFAULT   25 _ZZN3fst6ArcTplINS_23CompactLatticeWeightTplINS_16LatticeWeightTplIfEEiEEE4TypeB5cxx11EvE4type
   610: 00000000007fdde0    24 OBJECT  WEAK   DEFAULT   21 _ZTIN3fst8internal9CacheImplINS_6ArcTplINS_17TropicalWeightTplIfEEEEEE
   611: 00000000004b5d00   763 FUNC    WEAK   DEFAULT   12 _ZN3fst8internal14ComposeFstImplINS_17DefaultCacheStoreINS_6ArcTplINS_23CompactLatticeWeightTplINS_16LatticeWeightTplIfEEiEEEEEENS_21SequenceComposeFilterINS_7MatcherINS_3FstIS8_EEEESE_EENS_24GenericComposeStateTableIS8_NS_18IntegerFilterStateIaEENS_24DefaultComposeStateTupleIiSI_EENS_21CompactHashStateTableISK_NS_11ComposeHashISK_EEEEEEE12ComputeFinalEi
   612: 0000000000560640   125 FUNC    WEAK   DEFAULT   12 _ZNK5kaldi5nnet319DistributeComponent4TypeB5cxx11Ev
   613: 0000000000251a10    11 FUNC    WEAK   DEFAULT   12 _ZNK3fst9ImplToFstINS_8internal13VectorFstImplINS_11VectorStateINS_10ReverseArcINS_6ArcTplINS_23CompactLatticeWeightTplINS_16LatticeWeightTplIfEEiEEEEEESaISB_EEEEENS_10MutableFstISB_EEE4TypeB5cxx11Ev
   614: 0000000000508e00   183 FUNC    GLOBAL DEFAULT   12 _ZN5kaldi5nnet336CreateLoopedComputationRequestSimpleERKNS0_4NnetEiiiiiiPNS0_18ComputationRequestES5_S5_
   615: 0000000000429a40   599 FUNC    WEAK   DEFAULT   12 _ZN5kaldi13ReadBasicTypeIiEEvRSibPT_
   616: 0000000000580e10    35 FUNC    GLOBAL DEFAULT   12 _ZNK5kaldi5nnet321ClipGradientComponent9PropagateEPKNS0_27ComponentPrecomputedIndexesERKNS_12CuMatrixBaseIfEEPS6_
   617: 00000000006d2420   192 FUNC    GLOBAL DEFAULT   12 _ZN5kaldi4TrimEPNSt7__cxx1112basic_stringIcSt11char_traitsIcESaIcEEE
   618: 00000000005d6cd0  1228 FUNC    GLOBAL DEFAULT   12 _ZNK5kaldi5nnet319MaxpoolingComponent4InfoB5cxx11Ev
   619: 0000000000616d60  1484 FUNC    GLOBAL DEFAULT   12 _ZN5kaldi5nnet311NnetTrainerC1ERKNS0_18NnetTrainerOptionsEPNS0_4NnetE
   620: 000000000065b8d0   799 FUNC    WEAK   DEFAULT   12 _ZN5kaldi10MatrixBaseIdE6AddMatEdRKS1_NS_19MatrixTransposeTypeE
   621: 00000000004b2070   157 FUNC    WEAK   DEFAULT   12 _ZNK3fst13SortedMatcherINS_3FstINS_6ArcTplINS_23CompactLatticeWeightTplINS_16LatticeWeightTplIfEEiEEEEEEE5ValueEv
   622: 0000000000551170     1 FUNC    WEAK   DEFAULT   12 _ZN5kaldi5nnet326SimpleForwardingDescriptorD2Ev
   623: 0000000000689010   209 FUNC    WEAK   DEFAULT   12 _ZN5kaldi12PackedMatrixIdE14CopyFromPackedIfEEvRKNS0_IT_EE
   624: 00000000003c0990   171 FUNC    WEAK   DEFAULT   12 _ZNSt12_Vector_baseIN3fst10ReverseArcINS0_6ArcTplINS0_16LatticeWeightTplIfEEEEEENS0_13PoolAllocatorIS6_EEED1Ev
   625: 000000000062d890   113 FUNC    WEAK   DEFAULT   12 _ZNSt6vectorIN5kaldi12SparseVectorIdEESaIS2_EED2Ev
   626: 0000000000815498     8 OBJECT  <OS specific>: 10 DEFAULT   25 _ZGVZN12FlagRegisterIbE11GetRegisterEvE3reg
   627: 000000000050fc20   441 FUNC    GLOBAL DEFAULT   12 _ZN5kaldi5nnet314AppendCindexesEiRKSt6vectorINS0_5IndexESaIS2_EEPS1_ISt4pairIiS2_ESaIS8_EE
   628: 000000000071cf40    42 OBJECT  WEAK   DEFAULT   14 _ZTSN3fst8internal15MemoryArenaImplILm1288EEE
   629: 0000000000396a80  1765 FUNC    WEAK   DEFAULT   12 _ZN5kaldi23LatticeFasterDecoderTplIN3fst13GrammarFstTplINS1_9VectorFstINS1_6ArcTplINS1_17TropicalWeightTplIfEEEENS1_11VectorStateIS7_SaIS7_EEEEEEENS_7decoder8StdTokenEE13TopSortTokensEPSE_PSt6vectorISG_SaISG_EE
   630: 00000000004b67f0    42 FUNC    WEAK   DEFAULT   12 _ZN3fst8internal15MemoryArenaImplILm392EED0Ev
   631: 0000000000412a30   299 FUNC    WEAK   DEFAULT   12 _ZN3fst8internal15SymbolTableImplD1Ev
   632: 0000000000803dd0    24 OBJECT  WEAK   DEFAULT   21 _ZTISt23_Sp_counted_ptr_inplaceIN3fst8internal14ComposeFstImplINS0_17DefaultCacheStoreINS0_6ArcTplINS0_17TropicalWeightTplIfEEEEEENS0_17NullComposeFilterINS0_7MatcherINS0_3FstIS7_EEEESD_EENS0_24GenericComposeStateTableIS7_NS0_18TrivialFilterStateENS0_24DefaultComposeStateTupleIiSG_EENS0_21CompactHashStateTableISI_NS0_11ComposeHashISI_EEEEEEEESaIvELN9__gnu_cxx12_Lock_policyE2EE
   633: 00000000002989a0  1042 FUNC    WEAK   DEFAULT   12 _ZN3fst16VectorCacheStoreINS_10CacheStateINS_10ReverseArcINS_6ArcTplINS_16LatticeWeightTplIfEEEEEENS_13PoolAllocatorIS7_EEEEE5ClearEv
   634: 00000000007fe798    24 OBJECT  WEAK   DEFAULT   21 _ZTIN3fst10MemoryPoolINS_13PoolAllocatorIPNSt8__detail15_Hash_node_baseEE2TNILi1EEEEE
   635: 0000000000410830    39 FUNC    WEAK   DEFAULT   12 _ZNSt6vectorISt4pairIliESaIS1_EED2Ev
   636: 00000000006a5970   452 FUNC    WEAK   DEFAULT   12 _ZN5kaldi12SparseMatrixIfE8SetRandnEf
   637: 000000000043f390  3945 FUNC    GLOBAL DEFAULT   12 _ZN5kaldi11TreeClusterERKSt6vectorIPNS_11ClusterableESaIS2_EEiPS4_PS0_IiSaIiEESA_PiNS_18TreeClusterOptionsE
   638: 0000000000638880  2061 FUNC    WEAK   DEFAULT   12 _ZNK5kaldi16CompressedMatrix12CopyRowToVecIfEEviPNS_10VectorBaseIT_EE
   639: 000000000064bae0    39 FUNC    WEAK   DEFAULT   12 _ZNK5kaldi10MatrixBaseIfE3RowEi
   640: 000000000062c260     5 FUNC    WEAK   DEFAULT   12 _ZN5kaldi10CuSpMatrixIfE6ResizeEiNS_16MatrixResizeTypeE
   641: 000000000055fb10    10 FUNC    WEAK   DEFAULT   12 _ZN5kaldi5nnet323GeneralDropoutComponentD0Ev
   642: 0000000000624f30     8 FUNC    WEAK   DEFAULT   12 _ZN5kaldi12CuMatrixBaseIfE15ApplyExpLimitedEff
   643: 0000000000262100   231 FUNC    WEAK   DEFAULT   12 _ZN3fst8internal7FstImplINS_10ReverseArcINS_6ArcTplINS_23CompactLatticeWeightTplINS_16LatticeWeightTplIfEEiEEEEEEED1Ev
   644: 0000000000440c70    39 FUNC    WEAK   DEFAULT   12 _ZNSt6vectorIPN5kaldi13TreeClusterer4NodeESaIS3_EED2Ev
   645: 00000000002fb830    21 FUNC    WEAK   DEFAULT   12 _ZNSt15_Sp_counted_ptrIPN3fst8internal12ConstFstImplINS0_6ArcTplINS0_17TropicalWeightTplIfEEEEjEELN9__gnu_cxx12_Lock_policyE2EE10_M_disposeEv
   646: 0000000000808278    24 OBJECT  WEAK   DEFAULT   21 _ZTIN5kaldi5nnet313TanhComponentE
   647: 0000000000290150   160 FUNC    WEAK   DEFAULT   12 _ZN3fst8internal14ComposeFstImplINS_17DefaultCacheStoreINS_6ArcTplINS_16LatticeWeightTplIfEEEEEENS_20NoMatchComposeFilterINS_7MatcherINS_3FstIS6_EEEESC_EENS_24GenericComposeStateTableIS6_NS_18TrivialFilterStateENS_24DefaultComposeStateTupleIiSF_EENS_21CompactHashStateTableISH_NS_11ComposeHashISH_EEEEEEED1Ev
   648: 00000000007fdba8    24 OBJECT  WEAK   DEFAULT   21 _ZTIN3fst10MutableFstINS_6ArcTplINS_17TropicalWeightTplIfEEEEEE
   649: 0000000000625290     5 FUNC    WEAK   DEFAULT   12 _ZN5kaldi12CuMatrixBaseIfE14InvertElementsEv
   650: 0000000000346d40   769 FUNC    WEAK   DEFAULT   12 _ZN3fst8internal14ComposeFstImplINS_17DefaultCacheStoreINS_6ArcTplINS_17TropicalWeightTplIfEEEEEENS_20TrivialComposeFilterINS_7MatcherINS_3FstIS6_EEEESC_EENS_24GenericComposeStateTableIS6_NS_18TrivialFilterStateENS_24DefaultComposeStateTupleIiSF_EENS_21CompactHashStateTableISH_NS_11ComposeHashISH_EEEEEEE8MatchArcISC_EEviPT_RKS6_b
   651: 00000000007fd0f0    24 OBJECT  WEAK   DEFAULT   21 _ZTISt15_Sp_counted_ptrIPN3fst8internal18ComposeFstImplBaseINS0_6ArcTplINS0_17TropicalWeightTplIfEEEENS0_17DefaultCacheStoreIS6_EENS0_10ComposeFstIS6_S8_EEEELN9__gnu_cxx12_Lock_policyE2EE
   652: 00000000006a7690   156 FUNC    WEAK   DEFAULT   12 _ZN5kaldi12SparseMatrixIfE10SelectRowsERKSt6vectorIiSaIiEERKS1_
   653: 0000000000324680     1 FUNC    WEAK   DEFAULT   12 _ZNSt15_Sp_counted_ptrIPN3fst9VectorFstINS0_6ArcTplINS0_17TropicalWeightTplIfEEEENS0_11VectorStateIS5_SaIS5_EEEEELN9__gnu_cxx12_Lock_policyE2EED1Ev
   654: 000000000059d0e0    37 FUNC    WEAK   DEFAULT   12 _ZN5kaldi5nnet318FixedBiasComponentD1Ev
   655: 00000000007ffba8   312 OBJECT  WEAK   DEFAULT   21 _ZTVN3fst16ImplToMutableFstINS_8internal13VectorFstImplINS_11VectorStateINS_6ArcTplINS_16LatticeWeightTplIfEEEESaIS7_EEEEENS_10MutableFstIS7_EEEE
   656: 0000000000499d50   702 FUNC    GLOBAL DEFAULT   12 _ZN5kaldi16MinimumBayesRisk12NormalizeEpsEPSt6vectorIiSaIiEE
   657: 000000000055f900    15 FUNC    WEAK   DEFAULT   12 _ZNK5kaldi5nnet329StatisticsExtractionComponent10PropertiesEv
   658: 0000000000815030     8 OBJECT  GLOBAL DEFAULT   24 FLAGS_fst_default_cache_gc_limit
   659: 00000000007feae0    24 OBJECT  WEAK   DEFAULT   21 _ZTIN3fst10MemoryPoolINS_13PoolAllocatorINS_6ArcTplINS_16LatticeWeightTplIfEEEEE2TNILi32EEEEE
   660: 000000000053c2b0   478 FUNC    WEAK   DEFAULT   12 _ZNSt6vectorIN5kaldi5nnet315NnetComputation15MatrixDebugInfoESaIS3_EE17_M_realloc_insertIJS3_EEEvN9__gnu_cxx17__normal_iteratorIPS3_S5_EEDpOT_
   661: 0000000000815460     8 OBJECT  <OS specific>: 10 DEFAULT   25 _ZZN12FlagRegisterImE11GetRegisterEvE3reg
   662: 00000000005a31d0   120 FUNC    WEAK   DEFAULT   12 _ZN5kaldi5nnet313TdnnComponentD2Ev
   663: 000000000053bcf0   511 FUNC    WEAK   DEFAULT   12 _ZNSt6vectorIN5kaldi5nnet315NnetComputation7CommandESaIS3_EE17_M_default_appendEm
   664: 000000000071d6b1     1 OBJECT  <OS specific>: 10 DEFAULT   14 _ZZN3fst8DfsVisitINS_3FstINS_6ArcTplINS_23CompactLatticeWeightTplINS_16LatticeWeightTplIfEEiEEEEEENS_15TopOrderVisitorIS7_EENS_16EpsilonArcFilterIS7_EEEEvRKT_PT0_T1_bE9kDfsWhite
   665: 000000000034e5f0    12 FUNC    GLOBAL DEFAULT   12 _ZNK5kaldi27OnlineIvectorExtractionInfo5CheckEv
   666: 000000000067f920   568 FUNC    WEAK   DEFAULT   12 _ZN5kaldi16ComputeDctMatrixIfEEvPNS_6MatrixIT_EE
   667: 00000000008069a0    40 OBJECT  WEAK   DEFAULT   21 _ZTVN3fst10MemoryPoolINS_13PoolAllocatorINS_6ArcTplINS_23CompactLatticeWeightTplINS_16LatticeWeightTplIfEEiEEEEE2TNILi2EEEEE
   668: 0000000000238330   400 FUNC    GLOBAL DEFAULT   12 _ZN10Recognizer14AcceptWaveformEPKsi
   669: 00000000004079c0    13 FUNC    WEAK   DEFAULT   12 _ZN5kaldi34LatticeIncrementalOnlineDecoderTplIN3fst13GrammarFstTplIKNS1_8ConstFstINS1_6ArcTplINS1_17TropicalWeightTplIfEEEEjEEEEE16BestPathIteratorC2EPvi
   670: 00000000002fe420   315 FUNC    WEAK   DEFAULT   12 _ZNSt19_Sp_counted_deleterIPN3fst8internal15SymbolTableImplESt14default_deleteIS2_ESaIvELN9__gnu_cxx12_Lock_policyE2EE10_M_disposeEv
   671: 00000000005106f0  4506 FUNC    GLOBAL DEFAULT   12 _ZNK5kaldi5nnet38Compiler12SplitByScaleERKNS0_13SumDescriptorERKSt6vectorIS5_ISt4pairIiiESaIS7_EESaIS9_EEPS5_IS6_IfSB_ESaISE_EE
   672: 0000000000648850     6 FUNC    WEAK   DEFAULT   12 _ZN5kaldi10MatrixBaseIfE4DataEv
   673: 0000000000629410    90 FUNC    WEAK   DEFAULT   12 _ZNK5kaldi12CuMatrixBaseIdE5RangeEiiii
   674: 00000000007fdd40    16 OBJECT  WEAK   DEFAULT   21 _ZTIN3fst3FstINS_6ArcTplINS_16LatticeWeightTplIfEEEEEE
   675: 0000000000806018    24 OBJECT  WEAK   DEFAULT   21 _ZTIN3fst8internal15MemoryArenaImplILm776EEE
   676: 00000000005cc840   506 FUNC    WEAK   DEFAULT   12 _ZNSt6vectorIN5kaldi5nnet314MatrixAccessesESaIS2_EE17_M_default_appendEm
   677: 000000000080ac18    24 OBJECT  WEAK   DEFAULT   21 _ZTIN3fst8internal15SymbolTableImplE
   678: 0000000000550550    35 FUNC    GLOBAL DEFAULT   12 _ZNK5kaldi5nnet317GeneralDescriptor23GetNormalizedDescriptorEv
   679: 00000000004c4600   242 FUNC    WEAK   DEFAULT   12 _ZN3fst8internal14RandGenFstImplINS_6ArcTplINS_23CompactLatticeWeightTplINS_16LatticeWeightTplIfEEiEEEES7_NS_10ArcSamplerIS7_NS_18UniformArcSelectorIS7_EEEEED2Ev
   680: 00000000004525a0    90 FUNC    WEAK   DEFAULT   12 _ZNK5kaldi18OnlineProcessPitch11IsLastFrameEi
   681: 00000000003d1a00     1 FUNC    WEAK   DEFAULT   12 _ZN3fst10MutableFstINS_6ArcTplINS_23CompactLatticeWeightTplINS_16LatticeWeightTplIfEEiEEEEE13ReserveStatesEi
   682: 0000000000610470   250 FUNC    WEAK   DEFAULT   12 _ZNSt6vectorIN5kaldi5nnet315NnetComputation7CommandESaIS3_EE7reserveEm
   683: 0000000000577330   738 FUNC    GLOBAL DEFAULT   12 _ZN5kaldi5nnet327ConvertAdditionToAssignmentERKNS0_4NnetEPNS0_15NnetComputationE
   684: 0000000000629470    93 FUNC    WEAK   DEFAULT   12 _ZNK5kaldi12CuMatrixBaseIdE8RowRangeEii
   685: 00000000004493f0   116 FUNC    GLOBAL DEFAULT   12 _ZN5kaldi18OnlineCacheFeature10ClearCacheEv
   686: 0000000000252bc0     1 FUNC    WEAK   DEFAULT   12 _ZN3fst10MutableFstINS_6ArcTplINS_23CompactLatticeWeightTplINS_16LatticeWeightTplIfEEiEEEEE13ReserveStatesEm
   687: 0000000000269800   113 FUNC    WEAK   DEFAULT   12 _ZNSt6vectorIN3fst5AdderINS0_23CompactLatticeWeightTplINS0_16LatticeWeightTplIfEEiEEEESaIS6_EED2Ev
   688: 000000000040e0d0     1 FUNC    WEAK   DEFAULT   12 _ZNSt15_Sp_counted_ptrIPKN3fst8ConstFstINS0_6ArcTplINS0_17TropicalWeightTplIfEEEEjEELN9__gnu_cxx12_Lock_policyE2EED1Ev
   689: 000000000035b7d0    24 FUNC    WEAK   DEFAULT   12 _ZNK5kaldi41SingleUtteranceNnet3IncrementalDecoderTplIN3fst13GrammarFstTplIKNS1_8ConstFstINS1_6ArcTplINS1_17TropicalWeightTplIfEEEEjEEEEE16NumFramesDecodedEv
   690: 0000000000255530    10 FUNC    WEAK   DEFAULT   12 _ZNSt23_Sp_counted_ptr_inplaceIN3fst8internal13ArcMapFstImplINS0_6ArcTplINS0_17TropicalWeightTplIfEEEENS3_INS0_16LatticeWeightTplIfEEEENS0_18StdToLatticeMapperIfEEEESaIvELN9__gnu_cxx12_Lock_policyE2EED0Ev
   691: 000000000064b670   419 FUNC    WEAK   DEFAULT   12 _ZN5kaldi10MatrixBaseIfE8SetRandnEv
   692: 00000000006a3f60    14 FUNC    WEAK   DEFAULT   12 _ZNK5kaldi12SparseMatrixIfE7NumRowsEv
   693: 0000000000585f10   136 FUNC    GLOBAL DEFAULT   12 _ZN5kaldi5nnet323RepeatedAffineComponentC2ERKS1_
   694: 0000000000434580    28 FUNC    GLOBAL DEFAULT   12 _ZN5kaldilsERSoRKNS_7FullGmmE
   695: 00000000005d39d0   270 FUNC    GLOBAL DEFAULT   12 _ZN5kaldi5nnet324GruNonlinearityComponentC1ERKS1_
   696: 0000000000251630     6 FUNC    WEAK   DEFAULT   12 _ZNK3fst8internal15MemoryArenaImplILm1032EE4SizeEv
   697: 00000000004079f0     5 FUNC    WEAK   DEFAULT   12 _ZN5kaldi34LatticeIncrementalOnlineDecoderTplIN3fst13GrammarFstTplINS1_9VectorFstINS1_6ArcTplINS1_17TropicalWeightTplIfEEEENS1_11VectorStateIS7_SaIS7_EEEEEEEEC1ERKNS_31LatticeIncrementalDecoderConfigEPSC_RKNS_21TransitionInformationE
   698: 0000000000542a40    39 FUNC    WEAK   DEFAULT   12 _ZNSt6vectorIPvSaIS0_EED2Ev
   699: 0000000000324f80     3 FUNC    WEAK   DEFAULT   12 _ZNSt15_Sp_counted_ptrIPN3fst8internal22DeterminizeFstImplBaseINS0_10ReverseArcINS0_6ArcTplINS0_17TropicalWeightTplIfEEEEEEEELN9__gnu_cxx12_Lock_policyE2EE14_M_get_deleterERKSt9type_info
   700: 00000000006d2560  2656 FUNC    GLOBAL DEFAULT   12 _ZN5kaldi23SplitStringOnFirstSpaceERKNSt7__cxx1112basic_stringIcSt11char_traitsIcESaIcEEEPS5_S8_
   701: 00000000002efc60    39 FUNC    WEAK   DEFAULT   12 _ZNSt6vectorIN3fst6ArcTplINS0_17TropicalWeightTplIfEEEESaIS4_EED1Ev
   702: 00000000006b3810    11 FUNC    WEAK   DEFAULT   12 _ZN5kaldi17SplitRadixRealFftIfE7ComputeEPfb
   703: 00000000006274a0     5 FUNC    WEAK   DEFAULT   12 _ZN5kaldi12CuMatrixBaseIdE14CopyColFromVecERKNS_12CuVectorBaseIdEEi
   704: 000000000055afb0   240 FUNC    GLOBAL DEFAULT   12 _ZNK5kaldi5nnet329StatisticsExtractionComponent15GetInputIndexesERKNS0_19MiscComputationInfoERKNS0_5IndexEPSt6vectorIS5_SaIS5_EE
   705: 000000000059a910  4078 FUNC    GLOBAL DEFAULT   12 _ZN5kaldi5nnet318CompositeComponent14InitFromConfigEPNS_10ConfigLineE
   706: 00000000004c6e80    98 FUNC    WEAK   DEFAULT   12 _ZNK3fst7MatcherINS_3FstINS_6ArcTplINS_23CompactLatticeWeightTplINS_16LatticeWeightTplIfEEiEEEEEEE4CopyEb
   707: 00000000002fb930    11 FUNC    WEAK   DEFAULT   12 _ZNK3fst9ImplToFstINS_8internal12NGramFstImplINS_6ArcTplINS_17TropicalWeightTplIfEEEEEENS_11ExpandedFstIS6_EEE12InputSymbolsEv
   708: 0000000000288e30   174 FUNC    WEAK   DEFAULT   12 _ZN3fst16ImplToMutableFstINS_8internal13VectorFstImplINS_11VectorStateINS_6ArcTplINS_16LatticeWeightTplIfEEEESaIS7_EEEEENS_10MutableFstIS7_EEE11ReserveArcsEim
   709: 00000000005a3080    55 FUNC    WEAK   DEFAULT   12 _ZN5kaldi5nnet313TdnnComponent18PrecomputedIndexesD1Ev
   710: 00000000004a8620  1040 FUNC    GLOBAL DEFAULT   12 _ZN5kaldi18LatticeWordAligner16ComputationState21OutputOnePhoneWordArcERKNS_16WordBoundaryInfoERKNS_21TransitionInformationEPN3fst6ArcTplINS8_23CompactLatticeWeightTplINS8_16LatticeWeightTplIfEEiEEEEPb
   711: 00000000003528b0  1702 FUNC    WEAK   DEFAULT   12 _ZN5kaldi17OnlineCmvnOptions8RegisterEPNS_10OptionsItfE
   712: 000000000025b0c0   211 FUNC    WEAK   DEFAULT   12 _ZNK3fst9ImplToFstINS_8internal18ComposeFstImplBaseINS_6ArcTplINS_16LatticeWeightTplIfEEEENS_17DefaultCacheStoreIS6_EENS_10ComposeFstIS6_S8_EEEENS_3FstIS6_EEE17NumOutputEpsilonsEi
   713: 00000000003d8e50    39 FUNC    WEAK   DEFAULT   12 _ZNSt6vectorIN5kaldi28LatticeIncrementalDecoderTplIN3fst8ConstFstINS2_6ArcTplINS2_17TropicalWeightTplIfEEEEjEENS0_7decoder8StdTokenEE9TokenListESaISC_EED2Ev
   714: 000000000050c820  1168 FUNC    GLOBAL DEFAULT   12 _ZNK5kaldi5nnet38Compiler31ComputeDerivSubmatLocationsListERKSt6vectorIS2_ISt4pairIiiESaIS4_EESaIS6_EEPS8_
   715: 0000000000648380   200 FUNC    WEAK   DEFAULT   12 _ZN5kaldi6MatrixIfE9RemoveRowEi
   716: 0000000000388af0   847 FUNC    WEAK   DEFAULT   12 _ZN5kaldi23LatticeFasterDecoderTplIN3fst13GrammarFstTplINS1_9VectorFstINS1_6ArcTplINS1_17TropicalWeightTplIfEEEENS1_11VectorStateIS7_SaIS7_EEEEEEENS_7decoder8StdTokenEE16FinalizeDecodingEv
   717: 00000000003d2e10    20 FUNC    WEAK   DEFAULT   12 _ZN5kaldi28LatticeIncrementalDecoderTplIN3fst13GrammarFstTplIKNS1_8ConstFstINS1_6ArcTplINS1_17TropicalWeightTplIfEEEEjEEEENS_7decoder16BackpointerTokenEE21AllocateNewTokenLabelEv
   718: 0000000000728d60     8 OBJECT  <OS specific>: 10 DEFAULT   14 _ZN3fst10MappedFile14kArchAlignmentE
   719: 000000000037e520   804 FUNC    WEAK   DEFAULT   12 _ZN5kaldi23LatticeFasterDecoderTplIN3fst13GrammarFstTplINS1_9VectorFstINS1_6ArcTplINS1_17TropicalWeightTplIfEEEENS1_11VectorStateIS7_SaIS7_EEEEEEENS_7decoder8StdTokenEEC2ERKSC_RKNS_26LatticeFasterDecoderConfigE
   720: 00000000002928a0  1578 FUNC    WEAK   DEFAULT   12 _ZN3fst8internal14ComposeFstImplINS_17DefaultCacheStoreINS_6ArcTplINS_16LatticeWeightTplIfEEEEEENS_22LookAheadComposeFilterINS_24AltSequenceComposeFilterINS_16LookAheadMatcherINS_3FstIS6_EEEESD_EESD_SD_LNS_9MatchTypeE3EEENS_24GenericComposeStateTableIS6_NS_18IntegerFilterStateIaEENS_24DefaultComposeStateTupleIiSJ_EENS_21CompactHashStateTableISL_NS_11ComposeHashISL_EEEEEEEC1ISD_SD_EERKSC_SU_RKNS_21ComposeFstImplOptionsIT_T0_SG_SQ_S7_EE
   721: 000000000025b820    72 FUNC    WEAK   DEFAULT   12 _ZN3fst13TopOrderQueueIiED2Ev
   722: 0000000000580330  1202 FUNC    WEAK   DEFAULT   12 _ZNSt6vectorIN5kaldi10ConfigLineESaIS1_EE17_M_default_appendEm
   723: 000000000071c6c0    39 OBJECT  WEAK   DEFAULT   14 _ZTSN3fst8internal14MemoryPoolImplILm64EEE
   724: 00000000006b5180  1674 FUNC    GLOBAL DEFAULT   12 _ZN3fst19ReadFstKaldiGenericENSt7__cxx1112basic_stringIcSt11char_traitsIcESaIcEEEb
   725: 00000000002fb7f0     1 FUNC    WEAK   DEFAULT   12 _ZNSt15_Sp_counted_ptrIPN3fst8internal9AddOnImplINS0_8ConstFstINS0_6ArcTplINS0_17TropicalWeightTplIfEEEEjEENS0_9AddOnPairINS0_18LabelReachableDataIiEESB_EEEELN9__gnu_cxx12_Lock_policyE2EED1Ev
   726: 0000000000257f40   111 FUNC    WEAK   DEFAULT   12 _ZNK3fst13SortedMatcherINS_3FstINS_6ArcTplINS_16LatticeWeightTplIfEEEEEEE5FinalEi
   727: 00000000003096b0   322 FUNC    WEAK   DEFAULT   12 _ZNK3fst9ImplToFstINS_8internal12ConstFstImplINS_6ArcTplINS_17TropicalWeightTplIfEEEEjEENS_11ExpandedFstIS6_EEE10PropertiesEmb
   728: 00000000003b1260     5 FUNC    WEAK   DEFAULT   12 _ZN5kaldi29LatticeFasterOnlineDecoderTplIN3fst3FstINS1_6ArcTplINS1_17TropicalWeightTplIfEEEEEEEC1ERKS7_RKNS_26LatticeFasterDecoderConfigE
   729: 0000000000287520   119 FUNC    WEAK   DEFAULT   12 _ZN3fst17ComposeFstMatcherINS_17DefaultCacheStoreINS_6ArcTplINS_16LatticeWeightTplIfEEEEEENS_17NullComposeFilterINS_7MatcherINS_3FstIS5_EEEESB_EENS_24GenericComposeStateTableIS5_NS_18TrivialFilterStateENS_24DefaultComposeStateTupleIiSE_EENS_21CompactHashStateTableISG_NS_11ComposeHashISG_EEEEEEED0Ev
   730: 0000000000635730   996 FUNC    GLOBAL DEFAULT   12 _ZN5kaldi16CompressedMatrix4ReadERSib
   731: 0000000000254950    17 FUNC    WEAK   DEFAULT   12 _ZNK3fst17ComposeFstMatcherINS_17DefaultCacheStoreINS_6ArcTplINS_16LatticeWeightTplIfEEEEEENS_18MatchComposeFilterINS_7MatcherINS_3FstIS5_EEEESB_EENS_24GenericComposeStateTableIS5_NS_18IntegerFilterStateIaEENS_24DefaultComposeStateTupleIiSF_EENS_21CompactHashStateTableISH_NS_11ComposeHashISH_EEEEEEE5ValueEv
   732: 000000000028b9f0  1156 FUNC    WEAK   DEFAULT   12 _ZN3fst22LookAheadComposeFilterINS_24AltSequenceComposeFilterINS_16LookAheadMatcherINS_3FstINS_6ArcTplINS_16LatticeWeightTplIfEEEEEEEES9_EES9_S9_LNS_9MatchTypeE3EEC1ERKS8_SE_PS9_SF_
   733: 00000000002fbb30    30 FUNC    WEAK   DEFAULT   12 _ZN3fst21LabelLookAheadMatcherINS_13SortedMatcherINS_8ConstFstINS_6ArcTplINS_17TropicalWeightTplIfEEEEjEEEELj1760ENS_18FastLogAccumulatorIS6_EENS_14LabelReachableIS6_SA_NS_18LabelReachableDataIiEEEEE4NextEv
   734: 0000000000270380   493 FUNC    WEAK   DEFAULT   12 _ZNSt5dequeIN4json4JSONESaIS1_EE17_M_reallocate_mapEmb
   735: 0000000000353170  1887 FUNC    WEAK   DEFAULT   12 _ZN5kaldi18ReadConfigFromFileINS_17OnlineCmvnOptionsEEEvRKNSt7__cxx1112basic_stringIcSt11char_traitsIcESaIcEEEPT_
   736: 0000000000407980    13 FUNC    WEAK   DEFAULT   12 _ZN5kaldi34LatticeIncrementalOnlineDecoderTplIN3fst8ConstFstINS1_6ArcTplINS1_17TropicalWeightTplIfEEEEjEEE16BestPathIteratorC1EPvi
   737: 000000000064ca10   459 FUNC    WEAK   DEFAULT   12 _ZN5kaldi10MatrixBaseIfE3MinERKS1_
   738: 000000000037d930   689 FUNC    WEAK   DEFAULT   12 _ZN5kaldi23LatticeFasterDecoderTplIN3fst8ConstFstINS1_6ArcTplINS1_17TropicalWeightTplIfEEEEjEENS_7decoder8StdTokenEEC1ERKS7_RKNS_26LatticeFasterDecoderConfigE
   739: 0000000000623ba0   212 FUNC    WEAK   DEFAULT   12 _ZN5kaldi12CuMatrixBaseIfE7MulRowsERKS1_RKNS_11CuArrayBaseIiEE
   740: 00000000003d28f0     9 FUNC    WEAK   DEFAULT   12 _ZNK5kaldi28LatticeIncrementalDecoderTplIN3fst9VectorFstINS1_6ArcTplINS1_17TropicalWeightTplIfEEEENS1_11VectorStateIS6_SaIS6_EEEEENS_7decoder16BackpointerTokenEE18NumFramesInLatticeEv
   741: 00000000006906c0  2050 FUNC    WEAK   DEFAULT   12 _ZNK5kaldi8SpMatrixIfE7TopEigsEPNS_10VectorBaseIfEEPNS_10MatrixBaseIfEEi
   742: 00000000004b6b90    49 FUNC    WEAK   DEFAULT   12 _ZN3fst10MemoryPoolINS_13PoolAllocatorINS_6ArcTplINS_23CompactLatticeWeightTplINS_16LatticeWeightTplIfEEiEEEEE2TNILi1EEEED1Ev
   743: 00000000007182c0   158 OBJECT  WEAK   DEFAULT   14 _ZTSN3fst9ImplToFstINS_8internal18ComposeFstImplBaseINS_6ArcTplINS_17TropicalWeightTplIfEEEENS_17DefaultCacheStoreIS6_EENS_10ComposeFstIS6_S8_EEEENS_3FstIS6_EEEE
   744: 00000000003f26f0    76 FUNC    WEAK   DEFAULT   12 _ZNK5kaldi28LatticeIncrementalDecoderTplIN3fst9VectorFstINS1_6ArcTplINS1_17TropicalWeightTplIfEEEENS1_11VectorStateIS6_SaIS6_EEEEENS_7decoder16BackpointerTokenEE17FinalRelativeCostEv
   745: 000000000026e570    67 FUNC    WEAK   DEFAULT   12 _ZN3fst10MemoryPoolINS_13PoolAllocatorINS_6ArcTplINS_16LatticeWeightTplIfEEEEE2TNILi8EEEED0Ev
   746: 00000000008048a8    88 OBJECT  WEAK   DEFAULT   21 _ZTVN3fst8internal14ComposeFstImplINS_17DefaultCacheStoreINS_6ArcTplINS_17TropicalWeightTplIfEEEEEENS_20NoMatchComposeFilterINS_7MatcherINS_3FstIS6_EEEESC_EENS_24GenericComposeStateTableIS6_NS_18TrivialFilterStateENS_24DefaultComposeStateTupleIiSF_EENS_21CompactHashStateTableISH_NS_11ComposeHashISH_EEEEEEEE
   747: 00000000004aa8d0   161 FUNC    GLOBAL DEFAULT   12 _ZN5kaldi16WordBoundaryInfoC2ERKNS_23WordBoundaryInfoNewOptsENSt7__cxx1112basic_stringIcSt11char_traitsIcESaIcEEE
   748: 000000000062b1c0    19 FUNC    WEAK   DEFAULT   12 _ZN5kaldi14CuPackedMatrixIfED1Ev
   749: 000000000026ef60    67 FUNC    WEAK   DEFAULT   12 _ZN3fst10MemoryPoolINS_13PoolAllocatorINS_6ArcTplINS_17TropicalWeightTplIfEEEEE2TNILi4EEEED0Ev
   750: 0000000000443040   722 FUNC    WEAK   DEFAULT   12 _ZN5kaldi13TreeClusterer13FindBestSplitEPNS0_4NodeE
   751: 0000000000801b78    56 OBJECT  WEAK   DEFAULT   21 _ZTVSt23_Sp_counted_ptr_inplaceIN3fst8internal13ArcMapFstImplINS0_6ArcTplINS0_17TropicalWeightTplIfEEEES6_NS0_28RemoveSomeInputSymbolsMapperIS6_iEEEESaIvELN9__gnu_cxx12_Lock_policyE2EE
   752: 00000000003b18b0   423 FUNC    WEAK   DEFAULT   12 _ZNK5kaldi29LatticeFasterOnlineDecoderTplIN3fst13GrammarFstTplIKNS1_8ConstFstINS1_6ArcTplINS1_17TropicalWeightTplIfEEEEjEEEEE17TraceBackBestPathENSB_16BestPathIteratorEPNS4_INS1_16LatticeWeightTplIfEEEE
   753: 0000000000324b00     9 FUNC    WEAK   DEFAULT   12 _ZNK3fst18ShortestFirstQueueIiNS_8internal18StateWeightCompareIiNS_11NaturalLessINS_17TropicalWeightTplIfEEEEEELb0EE4HeadEv
   754: 00000000006f3bf0    15 FUNC    WEAK   DEFAULT   12 _ZNK3fst8internal15SymbolTableImpl10NumSymbolsEv
   755: 000000000036b4d0    48 FUNC    WEAK   DEFAULT   12 _ZN5kaldi23LatticeFasterDecoderTplIN3fst9VectorFstINS1_6ArcTplINS1_17TropicalWeightTplIfEEEENS1_11VectorStateIS6_SaIS6_EEEEENS_7decoder16BackpointerTokenEE11DeleteElemsEPNS_8HashListIiPSC_E4ElemE
   756: 000000000065b220   211 FUNC    WEAK   DEFAULT   12 _ZN5kaldi10MatrixBaseIdE8GroupMaxERKS1_
   757: 00000000002e66f0   281 FUNC    WEAK   DEFAULT   12 _ZNK3fst9ArcMapFstINS_6ArcTplINS_17TropicalWeightTplIfEEEENS1_INS_16LatticeWeightTplIfEEEENS_18StdToLatticeMapperIfEEE15InitArcIteratorEiPNS_15ArcIteratorDataIS7_EE
   758: 00000000003d2d80    10 FUNC    WEAK   DEFAULT   12 _ZNK5kaldi28LatticeIncrementalDecoderTplIN3fst13GrammarFstTplIKNS1_8ConstFstINS1_6ArcTplINS1_17TropicalWeightTplIfEEEEjEEEENS_7decoder16BackpointerTokenEE10GetOptionsEv
   759: 000000000054ceb0    91 FUNC    GLOBAL DEFAULT   12 _ZNK5kaldi5nnet310Descriptor19GetNodeDependenciesEPSt6vectorIiSaIiEE
   760: 000000000080a250    24 OBJECT  WEAK   DEFAULT   21 _ZTIN5kaldi5nnet324GruNonlinearityComponentE
   761: 000000000036aab0    18 FUNC    WEAK   DEFAULT   12 _ZNK5kaldi23LatticeFasterDecoderTplIN3fst9VectorFstINS1_6ArcTplINS1_17TropicalWeightTplIfEEEENS1_11VectorStateIS6_SaIS6_EEEEENS_7decoder8StdTokenEE16NumFramesDecodedEv
   762: 00000000008036c8    24 OBJECT  WEAK   DEFAULT   21 _ZTIN3fst17ComposeFstMatcherINS_17DefaultCacheStoreINS_6ArcTplINS_17TropicalWeightTplIfEEEEEENS_17NullComposeFilterINS_7MatcherINS_3FstIS5_EEEESB_EENS_24GenericComposeStateTableIS5_NS_18TrivialFilterStateENS_24DefaultComposeStateTupleIiSE_EENS_21CompactHashStateTableISG_NS_11ComposeHashISG_EEEEEEEE
   763: 000000000054cbe0    60 FUNC    GLOBAL DEFAULT   12 _ZNK5kaldi5nnet321ConstantSumDescriptor4CopyEv
   764: 0000000000582a00   113 FUNC    GLOBAL DEFAULT   12 _ZN5kaldi5nnet338NaturalGradientRepeatedAffineComponent17ConsolidateMemoryEv
   765: 00000000005fdf40   288 FUNC    GLOBAL DEFAULT   12 _ZN5kaldi5nnet323ModelUpdateConsolidatorC1ERKNS0_4NnetEPNS0_15NnetComputationE
   766: 00000000005a3dd0   131 FUNC    GLOBAL DEFAULT   12 _ZN5kaldi5nnet314NumOutputNodesERKNS0_4NnetE
   767: 00000000006a04a0   191 FUNC    GLOBAL DEFAULT   12 _ZNK5kaldi13GeneralMatrix15GetSparseMatrixEv
   768: 0000000000695910   280 FUNC    WEAK   DEFAULT   12 _ZNK5kaldi8SpMatrixIfE12LogPosDefDetEv
   769: 0000000000325b70    10 FUNC    WEAK   DEFAULT   12 _ZNSt23_Sp_counted_ptr_inplaceIN3fst8internal14ComposeFstImplINS0_17DefaultCacheStoreINS0_6ArcTplINS0_17TropicalWeightTplIfEEEEEENS0_18MatchComposeFilterINS0_7MatcherINS0_3FstIS7_EEEESD_EENS0_24GenericComposeStateTableIS7_NS0_18IntegerFilterStateIaEENS0_24DefaultComposeStateTupleIiSH_EENS0_21CompactHashStateTableISJ_NS0_11ComposeHashISJ_EEEEEEEESaIvELN9__gnu_cxx12_Lock_policyE2EED0Ev
   770: 000000000035b450   226 FUNC    WEAK   DEFAULT   12 _ZN5kaldi41SingleUtteranceNnet3IncrementalDecoderTplIN3fst3FstINS1_6ArcTplINS1_17TropicalWeightTplIfEEEEEEEC1ERKNS_31LatticeIncrementalDecoderConfigERKNS_15TransitionModelERKNS_5nnet329DecodableNnetSimpleLoopedInfoERKS7_PNS_26OnlineNnet2FeaturePipelineE
   771: 0000000000441bb0   478 FUNC    WEAK   DEFAULT   12 _ZNSt6vectorItSaItEE17_M_default_appendEm
   772: 00000000004b11e0     1 FUNC    WEAK   DEFAULT   12 _ZN3fst18CacheStateIteratorINS_10RandGenFstINS_6ArcTplINS_23CompactLatticeWeightTplINS_16LatticeWeightTplIfEEiEEEES7_NS_10ArcSamplerIS7_NS_18UniformArcSelectorIS7_EEEEEEED1Ev
   773: 0000000000494260   287 FUNC    WEAK   DEFAULT   12 _ZSt4swapIN3fst6ArcTplINS0_23CompactLatticeWeightTplINS0_16LatticeWeightTplIfEEiEEEEENSt9enable_ifIXsrSt6__and_IJSt6__not_ISt15__is_tuple_likeIT_EESt21is_move_constructibleISB_ESt18is_move_assignableISB_EEE5valueEvE4typeERSB_SL_
   774: 000000000062b590    17 FUNC    WEAK   DEFAULT   12 _ZN5kaldi14CuPackedMatrixIdEC2Ev
   775: 00000000002fd600   359 FUNC    WEAK   DEFAULT   12 _ZNK3fst8NGramFstINS_6ArcTplINS_17TropicalWeightTplIfEEEEE11InitMatcherENS_9MatchTypeE
   776: 0000000000728e40    33 OBJECT  WEAK   DEFAULT   14 _ZTSN3fst8internal15SymbolTableImplE
   777: 0000000000334e40   160 FUNC    WEAK   DEFAULT   12 _ZN3fst8internal14ComposeFstImplINS_17DefaultCacheStoreINS_6ArcTplINS_17TropicalWeightTplIfEEEEEENS_18MatchComposeFilterINS_7MatcherINS_3FstIS6_EEEESC_EENS_24GenericComposeStateTableIS6_NS_18IntegerFilterStateIaEENS_24DefaultComposeStateTupleIiSG_EENS_21CompactHashStateTableISI_NS_11ComposeHashISI_EEEEEEED1Ev
   778: 0000000000334430   803 FUNC    WEAK   DEFAULT   12 _ZN3fst8internal22DeterminizeFstImplBaseINS_10ReverseArcINS_6ArcTplINS_17TropicalWeightTplIfEEEEEEED0Ev
   779: 00000000002fdba0    72 FUNC    WEAK   DEFAULT   12 _ZN3fst29MutableFastLogAccumulatorDataD1Ev
   780: 00000000006052a0  2015 FUNC    GLOBAL DEFAULT   12 _ZN5kaldi5nnet314RowOpsSplitter12SplitCommandEi
   781: 00000000003b2d20   421 FUNC    WEAK   DEFAULT   12 _ZN3fst13TopOrderQueueIiEC2ERKSt6vectorIiSaIiEE
   782: 00000000002513a0    56 FUNC    WEAK   DEFAULT   12 _ZN3fst29ScaleDeterministicOnDemandFst6GetArcEiiPNS_6ArcTplINS_17TropicalWeightTplIfEEEE
   783: 000000000042cae0   285 FUNC    GLOBAL DEFAULT   12 _ZN5kaldi7DiagGmm15RemoveComponentEib
   784: 0000000000340580   322 FUNC    WEAK   DEFAULT   12 _ZNK3fst9ImplToFstINS_8internal13VectorFstImplINS_11VectorStateINS_10ReverseArcINS_6ArcTplINS_17TropicalWeightTplIfEEEEEESaIS9_EEEEENS_10MutableFstIS9_EEE10PropertiesEmb
   785: 00000000004b10f0    11 FUNC    WEAK   DEFAULT   12 _ZNK3fst9ImplToFstINS_8internal14RandGenFstImplINS_6ArcTplINS_23CompactLatticeWeightTplINS_16LatticeWeightTplIfEEiEEEES8_NS_10ArcSamplerIS8_NS_18UniformArcSelectorIS8_EEEEEENS_3FstIS8_EEE12InputSymbolsEv
   786: 000000000062b660   151 FUNC    WEAK   DEFAULT   12 _ZN5kaldi14CuPackedMatrixIdEC2ERKNS_12PackedMatrixIdEE
   787: 000000000028fcf0    90 FUNC    WEAK   DEFAULT   12 _ZN3fst8internal13ArcMapFstImplINS_6ArcTplINS_17TropicalWeightTplIfEEEENS2_INS_16LatticeWeightTplIfEEEENS_18StdToLatticeMapperIfEEED1Ev
   788: 0000000000307d50   347 FUNC    WEAK   DEFAULT   12 _ZNK3fst18LabelReachableDataIiE11Label2IndexEv
   789: 0000000000581b00   187 FUNC    GLOBAL DEFAULT   12 _ZN5kaldi5nnet323ScaleAndOffsetComponent13PerturbParamsEf
   790: 00000000006e0900   522 FUNC    WEAK   DEFAULT   12 _ZN5kaldi18ExtractObjectRangeIdEEbRKNS_6MatrixIT_EERKNSt7__cxx1112basic_stringIcSt11char_traitsIcESaIcEEEPS3_
   791: 0000000000586cf0   112 FUNC    GLOBAL DEFAULT   12 _ZN5kaldi5nnet325ConstantFunctionComponentC2Ev
   792: 0000000000251770     1 FUNC    WEAK   DEFAULT   12 _ZNSt23_Sp_counted_ptr_inplaceIN3fst8internal14ComposeFstImplINS0_17DefaultCacheStoreINS0_6ArcTplINS0_16LatticeWeightTplIfEEEEEENS0_22LookAheadComposeFilterINS0_21SequenceComposeFilterINS0_16LookAheadMatcherINS0_3FstIS7_EEEESE_EESE_SE_LNS0_9MatchTypeE3EEENS0_24GenericComposeStateTableIS7_NS0_18IntegerFilterStateIaEENS0_24DefaultComposeStateTupleIiSK_EENS0_21CompactHashStateTableISM_NS0_11ComposeHashISM_EEEEEEEESaIvELN9__gnu_cxx12_Lock_policyE2EED2Ev
   793: 0000000000611d40   529 FUNC    WEAK   DEFAULT   12 _ZNSt6vectorISt4pairIiN5kaldi5nnet315NnetComputation7CommandEESaIS5_EE17_M_default_appendEm
   794: 000000000029ea00   543 FUNC    WEAK   DEFAULT   12 _ZN3fst8internal7FstImplINS_6ArcTplINS_17TropicalWeightTplIfEEEEE14WriteFstHeaderERKNS_3FstIS5_EERSoRKNS_15FstWriteOptionsEiRKNSt7__cxx1112basic_stringIcSt11char_traitsIcESaIcEEEmPNS_9FstHeaderE
   795: 000000000036b3f0    21 FUNC    WEAK   DEFAULT   12 _ZN5kaldi23LatticeFasterDecoderTplIN3fst3FstINS1_6ArcTplINS1_17TropicalWeightTplIfEEEEEENS_7decoder16BackpointerTokenEE9TokenListC1Ev
   796: 000000000038e790   847 FUNC    WEAK   DEFAULT   12 _ZN5kaldi23LatticeFasterDecoderTplIN3fst9VectorFstINS1_6ArcTplINS1_17TropicalWeightTplIfEEEENS1_11VectorStateIS6_SaIS6_EEEEENS_7decoder16BackpointerTokenEE16FinalizeDecodingEv
   797: 00000000002fdb10    53 FUNC    WEAK   DEFAULT   12 _ZN3fst11ArcIteratorINS_8NGramFstINS_6ArcTplINS_17TropicalWeightTplIfEEEEEEED0Ev
   798: 00000000003a45d0   272 FUNC    WEAK   DEFAULT   12 _ZNK5kaldi23LatticeFasterDecoderTplIN3fst13GrammarFstTplIKNS1_8ConstFstINS1_6ArcTplINS1_17TropicalWeightTplIfEEEEjEEEENS_7decoder8StdTokenEE11GetBestPathEPNS1_9VectorFstINS4_INS1_16LatticeWeightTplIfEEEENS1_11VectorStateISH_SaISH_EEEEEb
   799: 000000000062c0c0     5 FUNC    WEAK   DEFAULT   12 _ZN5kaldi9TraceSpSpIdfEET_RKNS_10CuSpMatrixIS1_EERKNS2_IT0_EE
   800: 00000000006a64f0   487 FUNC    WEAK   DEFAULT   12 _ZN5kaldi12SparseMatrixIfEC2ERKNS_10MatrixBaseIfEE
   801: 00000000006a3b70    16 FUNC    WEAK   DEFAULT   12 _ZNK5kaldi12SparseVectorIfE10GetElementEi
   802: 0000000000252910    11 FUNC    WEAK   DEFAULT   12 _ZNK3fst9ImplToFstINS_8internal13ArcMapFstImplINS_6ArcTplINS_17TropicalWeightTplIfEEEES6_NS_28RemoveSomeInputSymbolsMapperIS6_iEEEENS_3FstIS6_EEE4TypeB5cxx11Ev
   803: 00000000005fe690    62 FUNC    GLOBAL DEFAULT   12 _ZNK5kaldi5nnet319ComputationExpander24GetNewMatrixLocationInfoEii
   804: 000000000025ca40    75 FUNC    WEAK   DEFAULT   12 _ZNSt23_Sp_counted_ptr_inplaceIN3fst8internal14ComposeFstImplINS0_17DefaultCacheStoreINS0_6ArcTplINS0_16LatticeWeightTplIfEEEEEENS0_18MatchComposeFilterINS0_7MatcherINS0_3FstIS7_EEEESD_EENS0_24GenericComposeStateTableIS7_NS0_18IntegerFilterStateIaEENS0_24DefaultComposeStateTupleIiSH_EENS0_21CompactHashStateTableISJ_NS0_11ComposeHashISJ_EEEEEEEESaIvELN9__gnu_cxx12_Lock_policyE2EE14_M_get_deleterERKSt9type_info
   805: 000000000059ded0   130 FUNC    WEAK   DEFAULT   12 _ZNK5kaldi5nnet325PerElementOffsetComponent4TypeB5cxx11Ev
   806: 000000000062fbb0     5 FUNC    WEAK   DEFAULT   12 _ZN5kaldi12CuVectorBaseIdE5MulTpERKNS_10CuTpMatrixIdEENS_19MatrixTransposeTypeE
   807: 000000000031d8f0     5 FUNC    GLOBAL DEFAULT   12 vosk_recognizer_partial_result
   808: 0000000000370c50    39 FUNC    WEAK   DEFAULT   12 _ZNSt6vectorIN5kaldi23LatticeFasterDecoderTplIN3fst9VectorFstINS2_6ArcTplINS2_17TropicalWeightTplIfEEEENS2_11VectorStateIS7_SaIS7_EEEEENS0_7decoder8StdTokenEE9TokenListESaISF_EED1Ev
   809: 0000000000692d00    30 FUNC    GLOBAL DEFAULT   12 _ZN5kaldi8SpMatrixIdE7AddVec2IdEEvdRKNS_10VectorBaseIT_EE
   810: 000000000063c5f0  1085 FUNC    WEAK   DEFAULT   12 _ZN5kaldi16CompressedMatrix11CopyFromMatIdEEvRKNS_10MatrixBaseIT_EENS_17CompressionMethodE
   811: 00000000005752e0   769 FUNC    GLOBAL DEFAULT   12 _ZN5kaldi5nnet318NormalizeComponent4ReadERSib
   812: 00000000005b6ff0   170 FUNC    GLOBAL DEFAULT   12 _ZNK5kaldi5nnet323time_height_convolution24ConvolutionComputationIo5WriteERSob
   813: 0000000000800730    48 OBJECT  WEAK   DEFAULT   21 _ZTVN3fst8internal7FstImplINS_10ReverseArcINS_6ArcTplINS_16LatticeWeightTplIfEEEEEEEE
   814: 0000000000448490    35 FUNC    GLOBAL DEFAULT   12 _ZN5kaldi18OnlineDeltaFeatureC1ERKNS_20DeltaFeaturesOptionsEPNS_22OnlineFeatureInterfaceE
   815: 00000000004b6280    49 FUNC    WEAK   DEFAULT   12 _ZN3fst8internal14MemoryPoolImplILm3072EED2Ev
   816: 000000000029a060   250 FUNC    WEAK   DEFAULT   12 _ZN3fst8internal7FstImplINS_10ReverseArcINS_6ArcTplINS_23CompactLatticeWeightTplINS_16LatticeWeightTplIfEEiEEEEEEE15SetInputSymbolsEPKNS_11SymbolTableE
   817: 00000000006284c0    21 FUNC    WEAK   DEFAULT   12 _ZN5kaldi12CuMatrixBaseIdE10SymAddMat2EdRKS1_NS_19MatrixTransposeTypeEd
   818: 000000000025cd10    75 FUNC    WEAK   DEFAULT   12 _ZNSt23_Sp_counted_ptr_inplaceIN3fst8internal14ComposeFstImplINS0_17DefaultCacheStoreINS0_6ArcTplINS0_16LatticeWeightTplIfEEEEEENS0_21SequenceComposeFilterINS0_7MatcherINS0_3FstIS7_EEEESD_EENS0_24GenericComposeStateTableIS7_NS0_18IntegerFilterStateIaEENS0_24DefaultComposeStateTupleIiSH_EENS0_21CompactHashStateTableISJ_NS0_11ComposeHashISJ_EEEEEEEESaIvELN9__gnu_cxx12_Lock_policyE2EE14_M_get_deleterERKSt9type_info
   819: 000000000041b510   559 FUNC    WEAK   DEFAULT   12 _ZN3fst14TestPropertiesINS_6ArcTplINS_17TropicalWeightTplIfEEEEEEmRKNS_3FstIT_EEmPm
   820: 000000000055b540   542 FUNC    GLOBAL DEFAULT   12 _ZN5kaldi5nnet341GeneralDropoutComponentPrecomputedIndexes4ReadERSib
   821: 000000000054c230   178 FUNC    GLOBAL DEFAULT   12 _ZNK5kaldi5nnet326SimpleForwardingDescriptor11WriteConfigERSoRKSt6vectorINSt7__cxx1112basic_stringIcSt11char_traitsIcESaIcEEESaIS9_EE
   822: 0000000000443e00    76 FUNC    GLOBAL DEFAULT   12 _ZNK5kaldi17ScalarClusterable4CopyEv
   823: 0000000000278e80   494 FUNC    WEAK   DEFAULT   12 _ZNSt6vectorISt4pairIiN3fst19LatticeDeterminizerINS1_16LatticeWeightTplIfEEiE7ElementEESaIS7_EE17_M_realloc_insertIJRKS7_EEEvN9__gnu_cxx17__normal_iteratorIPS7_S9_EEDpOT_
   824: 0000000000595a30   238 FUNC    GLOBAL DEFAULT   12 _ZNK5kaldi5nnet339NaturalGradientPerElementScaleComponent5WriteERSob
   825: 000000000062cc00    10 FUNC    WEAK   DEFAULT   12 _ZN5kaldi14CuSparseMatrixIdE12CopyFromSmatIfEEvRKNS_12SparseMatrixIT_EE
   826: 00000000004b11d0     1 FUNC    WEAK   DEFAULT   12 _ZN3fst18CacheStateIteratorINS_10ComposeFstINS_6ArcTplINS_23CompactLatticeWeightTplINS_16LatticeWeightTplIfEEiEEEENS_17DefaultCacheStoreIS7_EEEEED1Ev
   827: 000000000054cfd0   764 FUNC    GLOBAL DEFAULT   12 _ZN5kaldi5nnet317GeneralDescriptor5PrintERKSt6vectorINSt7__cxx1112basic_stringIcSt11char_traitsIcESaIcEEESaIS8_EERSo
   828: 000000000062ce60     6 FUNC    WEAK   DEFAULT   12 _ZNK5kaldi14CuSparseMatrixIfE4SmatEv
   829: 0000000000307660   135 FUNC    WEAK   DEFAULT   12 _ZNSt10_HashtableIiSt4pairIKiiESaIS2_ENSt8__detail10_Select1stESt8equal_toIiESt4hashIiENS4_18_Mod_range_hashingENS4_20_Default_ranged_hashENS4_20_Prime_rehash_policyENS4_17_Hashtable_traitsILb0ELb0ELb1EEEED1Ev
   830: 0000000000694d70   490 FUNC    WEAK   DEFAULT   12 _ZN5kaldi15TraceMatSpMatSpIdEET_RKNS_10MatrixBaseIS1_EENS_19MatrixTransposeTypeERKNS_8SpMatrixIS1_EES5_S6_SA_
   831: 00000000004b1270     7 FUNC    WEAK   DEFAULT   12 _ZN3fst18CacheStateIteratorINS_10RandGenFstINS_6ArcTplINS_23CompactLatticeWeightTplINS_16LatticeWeightTplIfEEiEEEES7_NS_10ArcSamplerIS7_NS_18UniformArcSelectorIS7_EEEEEEE4NextEv
   832: 0000000000565a80   134 FUNC    GLOBAL DEFAULT   12 _ZNK5kaldi5nnet34Nnet17GetComponentIndexERKNSt7__cxx1112basic_stringIcSt11char_traitsIcESaIcEEE
   833: 000000000071cee0    90 OBJECT  WEAK   DEFAULT   14 _ZTSN3fst10MemoryPoolINS_13PoolAllocatorINS_6ArcTplINS_16LatticeWeightTplIfEEEEE2TNILi32EEEEE
   834: 0000000000670f00   253 FUNC    WEAK   DEFAULT   12 _ZN5kaldi10VectorBaseIfE11DivElementsIdEEvRKNS0_IT_EE
   835: 0000000000444f00  1090 FUNC    GLOBAL DEFAULT   12 _ZN5kaldi17ScalarClusterable4InfoB5cxx11Ev
   836: 0000000000382130  1721 FUNC    WEAK   DEFAULT   12 _ZN5kaldi23LatticeFasterDecoderTplIN3fst8ConstFstINS1_6ArcTplINS1_17TropicalWeightTplIfEEEEjEENS_7decoder8StdTokenEE15ProcessEmittingEPNS_18DecodableInterfaceE
   837: 00000000003b12a0     5 FUNC    WEAK   DEFAULT   12 _ZN5kaldi29LatticeFasterOnlineDecoderTplIN3fst9VectorFstINS1_6ArcTplINS1_17TropicalWeightTplIfEEEENS1_11VectorStateIS6_SaIS6_EEEEEEC2ERKSA_RKNS_26LatticeFasterDecoderConfigE
   838: 0000000000318660  2482 FUNC    WEAK   DEFAULT   12 _ZN3fst14LabelReachableINS_6ArcTplINS_17TropicalWeightTplIfEEEENS_18FastLogAccumulatorIS4_EENS_18LabelReachableDataIiEEE5ReachINS_11ArcIteratorINS_3FstIS4_EEEEEEbPT_llb
   839: 0000000000626330    93 FUNC    WEAK   DEFAULT   12 _ZNK5kaldi12CuMatrixBaseIfE8RowRangeEii
   840: 00000000006ba920   232 FUNC    WEAK   DEFAULT   12 _ZN5kaldi18StandardOutputImpl5CloseEv
   841: 0000000000801f88    40 OBJECT  WEAK   DEFAULT   21 _ZTVN3fst10MemoryPoolINS_13PoolAllocatorIPNSt8__detail15_Hash_node_baseEE2TNILi2EEEEE
   842: 0000000000803b48    24 OBJECT  WEAK   DEFAULT   21 _ZTIN3fst18ShortestFirstQueueIiNS_8internal18StateWeightCompareIiNS_11NaturalLessINS_17TropicalWeightTplIfEEEEEELb0EEE
   843: 00000000002781a0   333 FUNC    WEAK   DEFAULT   12 _ZNSt10_HashtableIPKSt6vectorIN3fst19LatticeDeterminizerINS1_16LatticeWeightTplIfEEiE7ElementESaIS6_EESt4pairIKSA_iESaISD_ENSt8__detail10_Select1stENS5_11SubsetEqualENS5_9SubsetKeyENSF_18_Mod_range_hashingENSF_20_Default_ranged_hashENSF_20_Prime_rehash_policyENSF_17_Hashtable_traitsILb1ELb0ELb1EEEE9_M_rehashEmRKm
   844: 000000000080a9a8   128 OBJECT  WEAK   DEFAULT   21 _ZTVN5kaldi13basic_pipebufIcSt11char_traitsIcEEE
   845: 00000000003ef8f0  1659 FUNC    WEAK   DEFAULT   12 _ZN5kaldi28LatticeIncrementalDecoderTplIN3fst8ConstFstINS1_6ArcTplINS1_17TropicalWeightTplIfEEEEjEENS_7decoder16BackpointerTokenEE15ProcessEmittingEPNS_18DecodableInterfaceE
   846: 000000000055fa10     6 FUNC    WEAK   DEFAULT   12 _ZNK5kaldi5nnet323GeneralDropoutComponent9OutputDimEv
   847: 000000000062f8c0     5 FUNC    WEAK   DEFAULT   12 _ZN5kaldi12CuVectorBaseIfE11AddDiagMat2EfRKNS_12CuMatrixBaseIfEENS_19MatrixTransposeTypeEf
   848: 000000000033adc0  1740 FUNC    WEAK   DEFAULT   12 _ZN3fst8internal13VectorFstImplINS_11VectorStateINS_10ReverseArcINS_6ArcTplINS_17TropicalWeightTplIfEEEEEESaIS8_EEEEC2ERKNS_3FstIS8_EE
   849: 00000000002fbc60    34 FUNC    WEAK   DEFAULT   12 _ZNK3fst9ImplToFstINS_8internal12ConstFstImplINS_6ArcTplINS_17TropicalWeightTplIfEEEEjEENS_11ExpandedFstIS6_EEE5FinalEi
   850: 000000000026eb30    67 FUNC    WEAK   DEFAULT   12 _ZN3fst10MemoryPoolINS_13PoolAllocatorINS_6ArcTplINS_17TropicalWeightTplIfEEEEE2TNILi64EEEED0Ev
   851: 0000000000802af8    24 OBJECT  WEAK   DEFAULT   21 _ZTISt15_Sp_counted_ptrIPN3fst8internal9AddOnImplINS0_8ConstFstINS0_6ArcTplINS0_17TropicalWeightTplIfEEEEjEENS0_9AddOnPairINS0_18LabelReachableDataIiEESB_EEEELN9__gnu_cxx12_Lock_policyE2EE
   852: 00000000002516b0     1 FUNC    WEAK   DEFAULT   12 _ZNSt23_Sp_counted_ptr_inplaceIN3fst20MemoryPoolCollectionESaIvELN9__gnu_cxx12_Lock_policyE2EED2Ev
   853: 00000000005840a0   266 FUNC    GLOBAL DEFAULT   12 _ZNK5kaldi5nnet324PerElementScaleComponent8BackpropERKNSt7__cxx1112basic_stringIcSt11char_traitsIcESaIcEEEPKNS0_27ComponentPrecomputedIndexesERKNS_12CuMatrixBaseIfEESG_SG_PvPNS0_9ComponentEPSE_
   854: 00000000006941e0   209 FUNC    WEAK   DEFAULT   12 _ZN5kaldi9TraceSpSpIdfEET_RKNS_8SpMatrixIS1_EERKNS2_IT0_EE
   855: 00000000004e3ac0    80 FUNC    GLOBAL DEFAULT   12 _ZN5kaldi14ArpaFileParserD2Ev
   856: 0000000000256a30    74 FUNC    WEAK   DEFAULT   12 _ZNK3fst8internal14ComposeFstImplINS_17DefaultCacheStoreINS_6ArcTplINS_17TropicalWeightTplIfEEEEEENS_23PushLabelsComposeFilterINS_24PushWeightsComposeFilterINS_22LookAheadComposeFilterINS_24AltSequenceComposeFilterINS_16LookAheadMatcherINS_3FstIS6_EEEESF_EESF_SF_LNS_9MatchTypeE3EEESF_SF_LSH_3EEESF_SF_LSH_3EEENS_24GenericComposeStateTableIS6_NS_15PairFilterStateINSM_INS_18IntegerFilterStateIaEENS_17WeightFilterStateIS5_EEEENSN_IiEEEENS_24DefaultComposeStateTupleIiST_EENS_21CompactHashStateTableISV_NS_11ComposeHashISV_EEEEEEE11InitMatcherERKNS_10ComposeFstIS6_S7_EESH_
   857: 0000000000728e64     4 OBJECT  GLOBAL DEFAULT   14 _ZN3fst8internal8kLineLenE
   858: 000000000057c080   865 FUNC    WEAK   DEFAULT   12 _ZN5kaldi5nnet38AnalyzerD1Ev
   859: 0000000000671d00    17 FUNC    WEAK   DEFAULT   12 _ZN5kaldi6VectorIfEC2Ev
   860: 00000000005bc5c0   747 FUNC    WEAK   DEFAULT   12 _ZNSt6vectorIN5kaldi5nnet323time_height_convolution22ConvolutionComputation15ConvolutionStepESaIS4_EE17_M_default_appendEm
   861: 0000000000804e70    64 OBJECT  WEAK   DEFAULT   21 _ZTVN3fst13StateIteratorINS_10RandGenFstINS_6ArcTplINS_16LatticeWeightTplIfEEEES5_NS_10ArcSamplerIS5_NS_18UniformArcSelectorIS5_EEEEEEEE
   862: 000000000041f530   555 FUNC    GLOBAL DEFAULT   12 _ZN5kaldi28OnlineIvectorEstimationStats8AccStatsERKNS_16IvectorExtractorERKNS_10VectorBaseIfEERKSt6vectorISt4pairIifESaISA_EE
   863: 00000000004e7b20    60 FUNC    GLOBAL DEFAULT   12 _ZN5kaldi5rnnlm17RnnlmComputeStateC2ERKS1_
   864: 0000000000805f10    24 OBJECT  WEAK   DEFAULT   21 _ZTIN3fst8internal14ComposeFstImplINS_17DefaultCacheStoreINS_6ArcTplINS_23CompactLatticeWeightTplINS_16LatticeWeightTplIfEEiEEEEEENS_22LookAheadComposeFilterINS_21SequenceComposeFilterINS_16LookAheadMatcherINS_3FstIS8_EEEESF_EESF_SF_LNS_9MatchTypeE3EEENS_24GenericComposeStateTableIS8_NS_18IntegerFilterStateIaEENS_24DefaultComposeStateTupleIiSL_EENS_21CompactHashStateTableISN_NS_11ComposeHashISN_EEEEEEEE
   865: 0000000000429440    19 FUNC    WEAK   DEFAULT   12 _ZNSt6thread11_State_implINS_8_InvokerISt5tupleIJPFvPN5kaldi13TaskSequencerINS3_37IvectorExtractorUpdateProjectionClassEE15RunTaskArgsListEES8_EEEEED2Ev
   866: 0000000000800de8   152 OBJECT  WEAK   DEFAULT   21 _ZTVN3fst14DeterminizeFstINS_10ReverseArcINS_6ArcTplINS_16LatticeWeightTplIfEEEEEEEE
   867: 0000000000723f00   136 OBJECT  WEAK   DEFAULT   14 _ZTSN3fst10MemoryPoolINS_13PoolAllocatorINS_10CacheStateINS_10ReverseArcINS_6ArcTplINS_17TropicalWeightTplIfEEEEEENS1_IS8_EEEEE2TNILi1EEEEE
   868: 000000000062b7c0   113 FUNC    WEAK   DEFAULT   12 _ZN5kaldi14CuPackedMatrixIdE8SetRandnEv
   869: 0000000000309930   290 FUNC    WEAK   DEFAULT   12 _ZNK3fst13SortedMatcherINS_8ConstFstINS_6ArcTplINS_17TropicalWeightTplIfEEEEjEEE4TypeEb
   870: 0000000000676430   565 FUNC    WEAK   DEFAULT   12 _ZN5kaldi10VectorBaseIdE5FloorERKS1_dPi
   871: 0000000000689a90    61 FUNC    WEAK   DEFAULT   12 _ZN5kaldi12PackedMatrixIdE9ScaleDiagEd
   872: 00000000003d8820    39 FUNC    WEAK   DEFAULT   12 _ZNSt6vectorIN5kaldi28LatticeIncrementalDecoderTplIN3fst3FstINS2_6ArcTplINS2_17TropicalWeightTplIfEEEEEENS0_7decoder8StdTokenEE9TokenListESaISC_EED1Ev
   873: 000000000038f9c0   107 FUNC    WEAK   DEFAULT   12 _ZNK5kaldi23LatticeFasterDecoderTplIN3fst13GrammarFstTplIKNS1_8ConstFstINS1_6ArcTplINS1_17TropicalWeightTplIfEEEEjEEEENS_7decoder16BackpointerTokenEE12ReachedFinalEv
   874: 000000000062ca10     5 FUNC    WEAK   DEFAULT   12 _ZN5kaldi10CuSpMatrixIdE7AddMat2EdRKNS_12CuMatrixBaseIdEENS_19MatrixTransposeTypeEd
   875: 00000000006a3a00     5 FUNC    WEAK   DEFAULT   12 _ZNK5kaldi12SparseVectorIfE3DimEv
   876: 00000000003d53c0   381 FUNC    WEAK   DEFAULT   12 _ZN5kaldi28LatticeIncrementalDecoderTplIN3fst13GrammarFstTplINS1_9VectorFstINS1_6ArcTplINS1_17TropicalWeightTplIfEEEENS1_11VectorStateIS7_SaIS7_EEEEEEENS_7decoder8StdTokenEE19PruneTokensForFrameEi
   877: 0000000000806f20   288 OBJECT  WEAK   DEFAULT   21 _ZTVN5kaldi5nnet318UpdatableComponentE
   878: 000000000063a530   577 FUNC    WEAK   DEFAULT   12 _ZN5kaldi16CompressedMatrix19ComputeGlobalHeaderIdEEvRKNS_10MatrixBaseIT_EENS_17CompressionMethodEPNS0_12GlobalHeaderE
   879: 000000000065d9d0   410 FUNC    WEAK   DEFAULT   12 _ZN5kaldi10MatrixBaseIdE8AddSpMatEdRKNS_8SpMatrixIdEERKS1_NS_19MatrixTransposeTypeEd
   880: 0000000000675ec0     1 FUNC    WEAK   DEFAULT   12 _ZN5kaldi10VectorBaseIfED1Ev
   881: 00000000003d1b90    20 FUNC    WEAK   DEFAULT   12 _ZN5kaldi28LatticeIncrementalDecoderTplIN3fst3FstINS1_6ArcTplINS1_17TropicalWeightTplIfEEEEEENS_7decoder8StdTokenEE21AllocateNewTokenLabelEv
   882: 000000000068a630    64 FUNC    WEAK   DEFAULT   12 _ZN5kaldi12PackedMatrixIdEC2ERKS1_
   883: 000000000044b9d0    28 FUNC    WEAK   DEFAULT   12 _ZN5kaldi24OnlineGenericBaseFeatureINS_12MfccComputerEE8GetFrameEiPNS_10VectorBaseIfEE
   884: 000000000062bc30     6 FUNC    WEAK   DEFAULT   12 _ZNK5kaldi14CuPackedMatrixIdE3MatEv
   885: 00000000005410b0  3729 FUNC    GLOBAL DEFAULT   12 _ZN5kaldi5nnet312NnetComputer14ExecuteCommandEv
   886: 0000000000543860   451 FUNC    WEAK   DEFAULT   12 _ZNSt8__detail9_Map_baseIiSt4pairIKiS1_IPfiEESaIS5_ENS_10_Select1stESt8equal_toIiESt4hashIiENS_18_Mod_range_hashingENS_20_Default_ranged_hashENS_20_Prime_rehash_policyENS_17_Hashtable_traitsILb0ELb0ELb1EEELb1EEixERS2_
   887: 000000000062ff50     5 FUNC    WEAK   DEFAULT   12 _ZNK5kaldi12CuVectorBaseIdE3MinEv
   888: 00000000005cd3d0   405 FUNC    GLOBAL DEFAULT   12 _ZNK5kaldi5nnet328RestrictedAttentionComponent16PropagateOneHeadERKNS0_23time_height_convolution24ConvolutionComputationIoERKNS_12CuMatrixBaseIfEEPS7_SA_
   889: 000000000059cdf0     6 FUNC    WEAK   DEFAULT   12 _ZNK5kaldi5nnet325PerElementOffsetComponent8InputDimEv
   890: 00000000002fdac0    75 FUNC    WEAK   DEFAULT   12 _ZNSt23_Sp_counted_ptr_inplaceIN3fst8internal9AddOnImplINS0_8ConstFstINS0_6ArcTplINS0_17TropicalWeightTplIfEEEEjEENS0_9AddOnPairINS0_18LabelReachableDataIiEESB_EEEESaIvELN9__gnu_cxx12_Lock_policyE2EE14_M_get_deleterERKSt9type_info
   891: 00000000002fbdf0    15 FUNC    WEAK   DEFAULT   12 _ZNK3fst15NGramFstMatcherINS_6ArcTplINS_17TropicalWeightTplIfEEEEE4DoneEv
   892: 0000000000815470     8 OBJECT  <OS specific>: 10 DEFAULT   25 _ZZN12FlagRegisterIlE11GetRegisterEvE3reg
   893: 000000000027b310   191 FUNC    WEAK   DEFAULT   12 _ZN3fst11ArcIteratorINS_3FstINS_10ReverseArcINS_6ArcTplINS_23CompactLatticeWeightTplINS_16LatticeWeightTplIfEEiEEEEEEEEEC1ERKSA_i
   894: 00000000005174c0    56 FUNC    GLOBAL DEFAULT   12 _ZN5kaldi5nnet318UpdatableComponentC2ERKS1_
   895: 00000000002b5b80   493 FUNC    WEAK   DEFAULT   12 _ZNSt6vectorIPN3fst11VectorStateINS0_10ReverseArcINS0_6ArcTplINS0_16LatticeWeightTplIfEEEEEESaIS7_EEESaISA_EE17_M_default_appendEm
   896: 000000000055fb60    19 FUNC    WEAK   DEFAULT   12 _ZN5kaldi5nnet341GeneralDropoutComponentPrecomputedIndexesD1Ev
   897: 000000000036a8c0    18 FUNC    WEAK   DEFAULT   12 _ZNK5kaldi23LatticeFasterDecoderTplIN3fst3FstINS1_6ArcTplINS1_17TropicalWeightTplIfEEEEEENS_7decoder8StdTokenEE16NumFramesDecodedEv
   898: 000000000043b440  1242 FUNC    GLOBAL DEFAULT   12 _ZN5kaldi22AddToClustersOptimizedERKSt6vectorIPNS_11ClusterableESaIS2_EERKS0_IiSaIiEERKS1_PS4_
   899: 000000000040ea00    10 FUNC    WEAK   DEFAULT   12 _ZN3fst13GrammarFstTplIKNS_8ConstFstINS_6ArcTplINS_17TropicalWeightTplIfEEEEjEEE17GetPhoneSymbolForENS_17NonterminalValuesE
   900: 0000000000678bd0    17 FUNC    WEAK   DEFAULT   12 _ZN5kaldi10VectorBaseIdEC2Ev
   901: 0000000000727640    47 OBJECT  WEAK   DEFAULT   14 _ZTSN5kaldi5nnet330TimeHeightConvolutionComponentE
   902: 00000000005888e0   662 FUNC    GLOBAL DEFAULT   12 _ZNK5kaldi5nnet316SigmoidComponent15RepairGradientsERKNS_12CuMatrixBaseIfEEPS3_PS1_
   903: 000000000025e930   117 FUNC    WEAK   DEFAULT   12 _ZN3fst8internal14MemoryPoolImplILm24EED2Ev
   904: 00000000002fbad0    14 FUNC    WEAK   DEFAULT   12 _ZNK3fst17ImplToExpandedFstINS_8internal9AddOnImplINS_8ConstFstINS_6ArcTplINS_17TropicalWeightTplIfEEEEjEENS_9AddOnPairINS_18LabelReachableDataIiEESB_EEEENS_11ExpandedFstIS7_EEE9NumStatesEv
   905: 00000000004524a0    10 FUNC    WEAK   DEFAULT   12 _ZNK5kaldi19OnlineMatrixFeature3DimEv
   906: 0000000000728c30    24 OBJECT  WEAK   DEFAULT   14 _ZTSN5kaldi13FileInputImplE
   907: 0000000000259a60   173 FUNC    WEAK   DEFAULT   12 _ZN3fst17ComposeFstMatcherINS_17DefaultCacheStoreINS_6ArcTplINS_17TropicalWeightTplIfEEEEEENS_21SequenceComposeFilterINS_7MatcherINS_3FstIS5_EEEESB_EENS_24GenericComposeStateTableIS5_NS_18IntegerFilterStateIaEENS_24DefaultComposeStateTupleIiSF_EENS_21CompactHashStateTableISH_NS_11ComposeHashISH_EEEEEEED2Ev
   908: 0000000000251bd0     1 FUNC    WEAK   DEFAULT   12 _ZNSt23_Sp_counted_ptr_inplaceIN3fst8internal13VectorFstImplINS0_11VectorStateINS0_6ArcTplINS0_23CompactLatticeWeightTplINS0_16LatticeWeightTplIfEEiEEEESaIS9_EEEEESaIvELN9__gnu_cxx12_Lock_policyE2EED2Ev
   909: 000000000027c900   333 FUNC    WEAK   DEFAULT   12 _ZNSt10_HashtableIiSt4pairIKiN3fst19LatticeDeterminizerINS2_16LatticeWeightTplIfEEiE7ElementEESaIS8_ENSt8__detail10_Select1stESt8equal_toIiESt4hashIiENSA_18_Mod_range_hashingENSA_20_Default_ranged_hashENSA_20_Prime_rehash_policyENSA_17_Hashtable_traitsILb0ELb0ELb1EEEE9_M_rehashEmRKm
   910: 000000000059f0c0    39 FUNC    WEAK   DEFAULT   12 _ZNSt6vectorIPN5kaldi11CuSubMatrixIfEESaIS3_EED1Ev
   911: 000000000037eb80   804 FUNC    WEAK   DEFAULT   12 _ZN5kaldi23LatticeFasterDecoderTplIN3fst13GrammarFstTplIKNS1_8ConstFstINS1_6ArcTplINS1_17TropicalWeightTplIfEEEEjEEEENS_7decoder8StdTokenEEC1ERKSA_RKNS_26LatticeFasterDecoderConfigE
   912: 00000000002db6a0  1129 FUNC    WEAK   DEFAULT   12 _ZN3fst8internal14ComposeFstImplINS_17DefaultCacheStoreINS_6ArcTplINS_17TropicalWeightTplIfEEEEEENS_23PushLabelsComposeFilterINS_24PushWeightsComposeFilterINS_22LookAheadComposeFilterINS_21SequenceComposeFilterINS_16LookAheadMatcherINS_3FstIS6_EEEESF_EESF_SF_LNS_9MatchTypeE3EEESF_SF_LSH_3EEESF_SF_LSH_3EEENS_24GenericComposeStateTableIS6_NS_15PairFilterStateINSM_INS_18IntegerFilterStateIaEENS_17WeightFilterStateIS5_EEEENSN_IiEEEENS_24DefaultComposeStateTupleIiST_EENS_21CompactHashStateTableISV_NS_11ComposeHashISV_EEEEEEE6ExpandEi
   913: 00000000003f3120    84 FUNC    WEAK   DEFAULT   12 _ZNK5kaldi28LatticeIncrementalDecoderTplIN3fst8ConstFstINS1_6ArcTplINS1_17TropicalWeightTplIfEEEEjEENS_7decoder16BackpointerTokenEE12ReachedFinalEv
   914: 0000000000254970     7 FUNC    WEAK   DEFAULT   12 _ZNK3fst17ComposeFstMatcherINS_17DefaultCacheStoreINS_6ArcTplINS_16LatticeWeightTplIfEEEEEENS_18MatchComposeFilterINS_7MatcherINS_3FstIS5_EEEESB_EENS_24GenericComposeStateTableIS5_NS_18IntegerFilterStateIaEENS_24DefaultComposeStateTupleIiSF_EENS_21CompactHashStateTableISH_NS_11ComposeHashISH_EEEEEEE6GetFstEv
   915: 000000000025d910   173 FUNC    WEAK   DEFAULT   12 _ZN3fst17ComposeFstMatcherINS_17DefaultCacheStoreINS_6ArcTplINS_16LatticeWeightTplIfEEEEEENS_22LookAheadComposeFilterINS_24AltSequenceComposeFilterINS_16LookAheadMatcherINS_3FstIS5_EEEESC_EESC_SC_LNS_9MatchTypeE3EEENS_24GenericComposeStateTableIS5_NS_18IntegerFilterStateIaEENS_24DefaultComposeStateTupleIiSI_EENS_21CompactHashStateTableISK_NS_11ComposeHashISK_EEEEEEED2Ev
   916: 000000000025f030   117 FUNC    WEAK   DEFAULT   12 _ZN3fst8internal14MemoryPoolImplILm80EED1Ev
   917: 00000000006245a0   237 FUNC    WEAK   DEFAULT   12 _ZN5kaldi12CuMatrixBaseIfE14ParametricReluERKS1_RKNS_12CuVectorBaseIfEES7_
   918: 000000000028aa40    91 FUNC    WEAK   DEFAULT   12 _ZNSt10unique_ptrIN3fst22LookAheadComposeFilterINS0_24AltSequenceComposeFilterINS0_16LookAheadMatcherINS0_3FstINS0_6ArcTplINS0_16LatticeWeightTplIfEEEEEEEESA_EESA_SA_LNS0_9MatchTypeE3EEESt14default_deleteISD_EED2Ev
   919: 00000000003256c0     7 FUNC    WEAK   DEFAULT   12 _ZNK3fst17ComposeFstMatcherINS_17DefaultCacheStoreINS_6ArcTplINS_17TropicalWeightTplIfEEEEEENS_18MatchComposeFilterINS_7MatcherINS_3FstIS5_EEEESB_EENS_24GenericComposeStateTableIS5_NS_18IntegerFilterStateIaEENS_24DefaultComposeStateTupleIiSF_EENS_21CompactHashStateTableISH_NS_11ComposeHashISH_EEEEEEE6GetFstEv
   920: 00000000004b6110    49 FUNC    WEAK   DEFAULT   12 _ZN3fst8internal14MemoryPoolImplILm88EED2Ev
   921: 000000000025fd30   117 FUNC    WEAK   DEFAULT   12 _ZN3fst10MemoryPoolINS_13PoolAllocatorINS_10CacheStateINS_6ArcTplINS_16LatticeWeightTplIfEEEENS1_IS6_EEEEE2TNILi1EEEED1Ev
   922: 00000000004de550  1569 FUNC    GLOBAL DEFAULT   12 _ZNK5kaldi11ConstArpaLm16WriteArpaRecurseEPiRKSt6vectorIiSaIiEEPS2_INS_8ArpaLineESaIS7_EE
   923: 000000000050eae0   700 FUNC    GLOBAL DEFAULT   12 _ZNK5kaldi5nnet38Compiler25CompileForwardFromIndexesEiifRKSt6vectorIiSaIiEEPNS0_15NnetComputationE
   924: 00000000003a4a10   272 FUNC    WEAK   DEFAULT   12 _ZNK5kaldi23LatticeFasterDecoderTplIN3fst8ConstFstINS1_6ArcTplINS1_17TropicalWeightTplIfEEEEjEENS_7decoder16BackpointerTokenEE11GetBestPathEPNS1_9VectorFstINS3_INS1_16LatticeWeightTplIfEEEENS1_11VectorStateISE_SaISE_EEEEEb
   925: 00000000006264f0    21 FUNC    WEAK   DEFAULT   12 _ZN5kaldi12CuMatrixBaseIfE8SetRandnEv
   926: 00000000005bdbf0   166 FUNC    GLOBAL DEFAULT   12 _ZN5kaldi5nnet321OnlineNaturalGradientC1ERKS1_
   927: 0000000000631b90     6 FUNC    WEAK   DEFAULT   12 _ZNK5kaldi13CuBlockMatrixIfE7NumRowsEv
   928: 0000000000653fa0     1 FUNC    WEAK   DEFAULT   12 _ZN5kaldi10MatrixBaseIfED2Ev
   929: 000000000060eae0  2928 FUNC    GLOBAL DEFAULT   12 _ZN5kaldi5nnet316ComputationCache6InsertERKNS0_18ComputationRequestEPKNS0_15NnetComputationE
   930: 000000000054b690    74 FUNC    GLOBAL DEFAULT   12 _ZNK5kaldi5nnet319SimpleSumDescriptor4CopyEv
   931: 000000000061b030   270 FUNC    WEAK   DEFAULT   12 _ZN5kaldi2cu12RegularizeL1IdEEvPNS_12CuMatrixBaseIT_EES5_S3_S3_
   932: 0000000000606210   262 FUNC    GLOBAL DEFAULT   12 _ZN5kaldi5nnet319ComputationExpander17ComputeMatrixInfoEv
   933: 0000000000595be0   149 FUNC    GLOBAL DEFAULT   12 _ZNK5kaldi5nnet317SumBlockComponent5WriteERSob
   934: 00000000002c67b0   322 FUNC    WEAK   DEFAULT   12 _ZN3fst16ImplToMutableFstINS_8internal13VectorFstImplINS_11VectorStateINS_10ReverseArcINS_6ArcTplINS_16LatticeWeightTplIfEEEEEESaIS9_EEEEENS_10MutableFstIS9_EEE10DeleteArcsEim
   935: 00000000004f7510  2947 FUNC    GLOBAL DEFAULT   12 _ZN5kaldi15TransitionModel15MleUpdateSharedERKNS_6VectorIdEERKNS_25MleTransitionUpdateConfigEPfS8_
   936: 00000000002d30e0   296 FUNC    WEAK   DEFAULT   12 _ZN3fst8internal14ComposeFstImplINS_17DefaultCacheStoreINS_6ArcTplINS_16LatticeWeightTplIfEEEEEENS_18MatchComposeFilterINS_7MatcherINS_3FstIS6_EEEESC_EENS_24GenericComposeStateTableIS6_NS_18IntegerFilterStateIaEENS_24DefaultComposeStateTupleIiSG_EENS_21CompactHashStateTableISI_NS_11ComposeHashISI_EEEEEEE12ComputeStartEv
   937: 000000000062dc20    95 FUNC    WEAK   DEFAULT   12 _ZN5kaldi14CuSparseMatrixIdEC1ERKNS_12SparseMatrixIdEE
   938: 000000000027dac0   559 FUNC    WEAK   DEFAULT   12 _ZN3fst8internal21ShortestDistanceStateINS_6ArcTplINS_23CompactLatticeWeightTplINS_16LatticeWeightTplIfEEiEEEENS_9AutoQueueIiEENS_16EpsilonArcFilterIS7_EENS_17WeightApproxEqualEE26EnsureDistanceIndexIsValidEm
   939: 00000000003246d0     1 FUNC    WEAK   DEFAULT   12 _ZNSt23_Sp_counted_ptr_inplaceIN3fst8internal14ComposeFstImplINS0_17DefaultCacheStoreINS0_6ArcTplINS0_17TropicalWeightTplIfEEEEEENS0_17NullComposeFilterINS0_7MatcherINS0_3FstIS7_EEEESD_EENS0_24GenericComposeStateTableIS7_NS0_18TrivialFilterStateENS0_24DefaultComposeStateTupleIiSG_EENS0_21CompactHashStateTableISI_NS0_11ComposeHashISI_EEEEEEEESaIvELN9__gnu_cxx12_Lock_policyE2EED1Ev
   940: 0000000000673200     9 FUNC    WEAK   DEFAULT   12 _ZNK5kaldi10VectorBaseIfE11SizeInBytesEv
   941: 0000000000440b10    39 FUNC    WEAK   DEFAULT   12 _ZNSt6vectorItSaItEED1Ev
   942: 00000000006505c0   622 FUNC    WEAK   DEFAULT   12 _ZN5kaldi10MatrixBaseIfE8DiffTanhERKS1_S3_
   943: 0000000000284690    39 FUNC    WEAK   DEFAULT   12 _ZNSt6vectorIPN3fst8internal21DeterminizeStateTupleINS0_10ReverseArcINS0_6ArcTplINS0_16LatticeWeightTplIfEEEEEENS0_18IntegerFilterStateIaEEEESaISC_EED1Ev
   944: 0000000000803ec0    24 OBJECT  WEAK   DEFAULT   21 _ZTIN3fst10MemoryPoolINS_13PoolAllocatorINS_10ReverseArcINS_6ArcTplINS_17TropicalWeightTplIfEEEEEEE2TNILi16EEEEE
   945: 0000000000251780     1 FUNC    WEAK   DEFAULT   12 _ZNSt23_Sp_counted_ptr_inplaceIN3fst8internal14ComposeFstImplINS0_17DefaultCacheStoreINS0_6ArcTplINS0_16LatticeWeightTplIfEEEEEENS0_22LookAheadComposeFilterINS0_24AltSequenceComposeFilterINS0_16LookAheadMatcherINS0_3FstIS7_EEEESE_EESE_SE_LNS0_9MatchTypeE3EEENS0_24GenericComposeStateTableIS7_NS0_18IntegerFilterStateIaEENS0_24DefaultComposeStateTupleIiSK_EENS0_21CompactHashStateTableISM_NS0_11ComposeHashISM_EEEEEEEESaIvELN9__gnu_cxx12_Lock_policyE2EED1Ev
   946: 00000000004f1130   433 FUNC    GLOBAL DEFAULT   12 _ZN5kaldi19SortPosteriorByPdfsERKNS_15TransitionModelEPSt6vectorIS3_ISt4pairIifESaIS5_EESaIS7_EE
   947: 000000000044cae0   186 FUNC    WEAK   DEFAULT   12 _ZN5kaldi24OnlineGenericBaseFeatureINS_13FbankComputerEEC2ERKNS_12FbankOptionsE
   948: 00000000003d9690   496 FUNC    WEAK   DEFAULT   12 _ZN5kaldi28LatticeIncrementalDecoderTplIN3fst9VectorFstINS1_6ArcTplINS1_17TropicalWeightTplIfEEEENS1_11VectorStateIS6_SaIS6_EEEEENS_7decoder16BackpointerTokenEED2Ev
   949: 00000000003d1d50    10 FUNC    WEAK   DEFAULT   12 _ZNK5kaldi28LatticeIncrementalDecoderTplIN3fst9VectorFstINS1_6ArcTplINS1_17TropicalWeightTplIfEEEENS1_11VectorStateIS6_SaIS6_EEEEENS_7decoder8StdTokenEE10GetOptionsEv
   950: 0000000000522cb0   921 FUNC    GLOBAL DEFAULT   12 _ZNK5kaldi5nnet323ComputationGraphBuilder17GetComputableInfoEPSt6vectorIS2_IbSaIbEESaIS4_EE
   951: 0000000000371530    39 FUNC    WEAK   DEFAULT   12 _ZNSt6vectorIN5kaldi23LatticeFasterDecoderTplIN3fst9VectorFstINS2_6ArcTplINS2_17TropicalWeightTplIfEEEENS2_11VectorStateIS7_SaIS7_EEEEENS0_7decoder16BackpointerTokenEE9TokenListESaISF_EED2Ev
   952: 0000000000585620    55 FUNC    GLOBAL DEFAULT   12 _ZNK5kaldi5nnet316DropoutComponent4CopyEv
   953: 00000000004c1bf0    64 FUNC    WEAK   DEFAULT   12 _ZNSt10unique_ptrIN3fst7MatcherINS0_3FstINS0_6ArcTplINS0_23CompactLatticeWeightTplINS0_16LatticeWeightTplIfEEiEEEEEEEESt14default_deleteISA_EED1Ev
   954: 00000000006cdd80    11 FUNC    WEAK   DEFAULT   12 _ZN5kaldi12ParseOptions16RegisterStandardIbEEvRKNSt7__cxx1112basic_stringIcSt11char_traitsIcESaIcEEEPT_S9_
   955: 000000000065d090  1215 FUNC    WEAK   DEFAULT   12 _ZN5kaldi10MatrixBaseIdE10AddSmatMatEdRKS1_NS_19MatrixTransposeTypeES3_S4_d
   956: 0000000000343ed0  1128 FUNC    WEAK   DEFAULT   12 _ZNK3fst8internal14ComposeFstImplINS_17DefaultCacheStoreINS_6ArcTplINS_17TropicalWeightTplIfEEEEEENS_20NoMatchComposeFilterINS_7MatcherINS_3FstIS6_EEEESC_EENS_24GenericComposeStateTableIS6_NS_18TrivialFilterStateENS_24DefaultComposeStateTupleIiSF_EENS_21CompactHashStateTableISH_NS_11ComposeHashISH_EEEEEEE4CopyEv
   957: 0000000000251a20    11 FUNC    WEAK   DEFAULT   12 _ZNK3fst16ImplToMutableFstINS_8internal13VectorFstImplINS_11VectorStateINS_10ReverseArcINS_6ArcTplINS_23CompactLatticeWeightTplINS_16LatticeWeightTplIfEEiEEEEEESaISB_EEEEENS_10MutableFstISB_EEE12InputSymbolsEv
   958: 0000000000697040    17 FUNC    WEAK   DEFAULT   12 _ZN5kaldi8SpMatrixIdEC1Ev
   959: 0000000000286800   431 FUNC    WEAK   DEFAULT   12 _ZNK3fst8internal14ComposeFstImplINS_17DefaultCacheStoreINS_6ArcTplINS_16LatticeWeightTplIfEEEEEENS_20TrivialComposeFilterINS_7MatcherINS_3FstIS6_EEEESC_EENS_24GenericComposeStateTableIS6_NS_18TrivialFilterStateENS_24DefaultComposeStateTupleIiSF_EENS_21CompactHashStateTableISH_NS_11ComposeHashISH_EEEEEEE11InitMatcherERKNS_10ComposeFstIS6_S7_EENS_9MatchTypeE
   960: 0000000000677a20    78 FUNC    WEAK   DEFAULT   12 _ZN5kaldi10VectorBaseIdE14CopyDiagFromTpERKNS_8TpMatrixIdEE
   961: 00000000003e7b20   783 FUNC    WEAK   DEFAULT   12 _ZN5kaldi28LatticeIncrementalDecoderTplIN3fst13GrammarFstTplINS1_9VectorFstINS1_6ArcTplINS1_17TropicalWeightTplIfEEEENS1_11VectorStateIS7_SaIS7_EEEEEEENS_7decoder16BackpointerTokenEEC1ERKSC_RKNS_21TransitionInformationERKNS_31LatticeIncrementalDecoderConfigE
   962: 00000000002ddbc0   977 FUNC    WEAK   DEFAULT   12 _ZN3fst8internal14ComposeFstImplINS_17DefaultCacheStoreINS_6ArcTplINS_16LatticeWeightTplIfEEEEEENS_20NoMatchComposeFilterINS_7MatcherINS_3FstIS6_EEEESC_EENS_24GenericComposeStateTableIS6_NS_18TrivialFilterStateENS_24DefaultComposeStateTupleIiSF_EENS_21CompactHashStateTableISH_NS_11ComposeHashISH_EEEEEEE8MatchArcISC_EEviPT_RKS6_b
   963: 000000000062f020     5 FUNC    WEAK   DEFAULT   12 _ZN5kaldi12CuVectorBaseIfE11CopyFromVecIfEEvRKNS_10VectorBaseIT_EE
   964: 0000000000803d88    24 OBJECT  WEAK   DEFAULT   21 _ZTIN3fst8internal14ComposeFstImplINS_17DefaultCacheStoreINS_6ArcTplINS_17TropicalWeightTplIfEEEEEENS_20TrivialComposeFilterINS_7MatcherINS_3FstIS6_EEEESC_EENS_24GenericComposeStateTableIS6_NS_18TrivialFilterStateENS_24DefaultComposeStateTupleIiSF_EENS_21CompactHashStateTableISH_NS_11ComposeHashISH_EEEEEEEE
   965: 0000000000647e50   447 FUNC    WEAK   DEFAULT   12 _ZN5kaldi10MatrixBaseIfE12AddVecToColsIdEEvfRKNS_10VectorBaseIT_EE
   966: 000000000039b480  3575 FUNC    WEAK   DEFAULT   12 _ZN3fst17ComputePropertiesINS_6ArcTplINS_16LatticeWeightTplIfEEEEEEmRKNS_3FstIT_EEmPmb
   967: 00000000003c05b0   123 FUNC    WEAK   DEFAULT   12 _ZN3fst13PoolAllocatorINS_10CacheStateINS_6ArcTplINS_16LatticeWeightTplIfEEEENS0_IS5_EEEEED1Ev
   968: 000000000053db40   292 FUNC    GLOBAL DEFAULT   12 _ZN5kaldi5nnet312NnetComputer5PrintERSo
   969: 000000000062cdb0    45 FUNC    WEAK   DEFAULT   12 _ZN5kaldi14CuSparseMatrixIfEC1Ev
   970: 000000000033c7b0   423 FUNC    WEAK   DEFAULT   12 _ZN3fst16ImplToMutableFstINS_8internal13VectorFstImplINS_11VectorStateINS_10ReverseArcINS_6ArcTplINS_17TropicalWeightTplIfEEEEEESaIS9_EEEEENS_10MutableFstIS9_EEE6AddArcEiOS9_
   971: 000000000037fa30   115 FUNC    WEAK   DEFAULT   12 _ZN5kaldi23LatticeFasterDecoderTplIN3fst3FstINS1_6ArcTplINS1_17TropicalWeightTplIfEEEEEENS_7decoder16BackpointerTokenEE18PossiblyResizeHashEm
   972: 0000000000439440    94 FUNC    WEAK   DEFAULT   12 _ZN5kaldi13FullGmmNormalD1Ev
   973: 00000000005a4640   109 FUNC    GLOBAL DEFAULT   12 _ZN5kaldi5nnet322NumUpdatableComponentsERKNS0_4NnetE
   974: 0000000000334760  1276 FUNC    WEAK   DEFAULT   12 _ZN3fst16VectorCacheStoreINS_10CacheStateINS_10ReverseArcINS_6ArcTplINS_17TropicalWeightTplIfEEEEEENS_13PoolAllocatorIS7_EEEEEC2ERKNS_12CacheOptionsE
   975: 00000000006f6650   279 FUNC    GLOBAL DEFAULT   12 _ZN3fst10StringJoinERKSt6vectorINSt7__cxx1112basic_stringIcSt11char_traitsIcESaIcEEESaIS6_EERKS6_
   976: 00000000003d2e60   219 FUNC    WEAK   DEFAULT   12 _ZN5kaldi28LatticeIncrementalDecoderTplIN3fst13GrammarFstTplIKNS1_8ConstFstINS1_6ArcTplINS1_17TropicalWeightTplIfEEEEjEEEENS_7decoder16BackpointerTokenEE17ClearActiveTokensEv
   977: 00000000005311d0   209 FUNC    GLOBAL DEFAULT   12 _ZN5kaldi5nnet315NnetComputation13SubMatrixInfo4ReadERSib
   978: 0000000000639880  2664 FUNC    WEAK   DEFAULT   12 _ZNK5kaldi16CompressedMatrix9CopyToMatIdEEviiPNS_10MatrixBaseIT_EE
   979: 00000000003853e0   469 FUNC    WEAK   DEFAULT   12 _ZNK5kaldi23LatticeFasterDecoderTplIN3fst3FstINS1_6ArcTplINS1_17TropicalWeightTplIfEEEEEENS_7decoder8StdTokenEE17ComputeFinalCostsEPSt13unordered_mapIPS9_fSt4hashISC_ESt8equal_toISC_ESaISt4pairIKSC_fEEEPfSN_
   980: 00000000004e3b90    29 FUNC    GLOBAL DEFAULT   12 _ZN5kaldi14ArpaFileParser10ShouldWarnEv
   981: 000000000062fac0    29 FUNC    WEAK   DEFAULT   12 _ZN5kaldi12CuVectorBaseIdE7SetZeroEv
   982: 0000000000633580   407 FUNC    WEAK   DEFAULT   12 _ZN5kaldi13CuBlockMatrixIdE11CopyFromMatERKNS_8CuMatrixIdEE
   983: 0000000000515cd0   767 FUNC    WEAK   DEFAULT   12 _ZNSt6vectorIN5kaldi5nnet315NnetComputation22PrecomputedIndexesInfoESaIS3_EE17_M_default_appendEm
   984: 0000000000804768    56 OBJECT  WEAK   DEFAULT   21 _ZTVSt23_Sp_counted_ptr_inplaceIN3fst13StringPrinterINS0_6ArcTplINS0_17TropicalWeightTplIfEEEEEESaIvELN9__gnu_cxx12_Lock_policyE2EE
   985: 000000000033a420   389 FUNC    WEAK   DEFAULT   12 _ZNSt6vectorIPN3fst11VectorStateINS0_10ReverseArcINS0_6ArcTplINS0_17TropicalWeightTplIfEEEEEESaIS7_EEESaISA_EE17_M_realloc_insertIJRKSA_EEEvN9__gnu_cxx17__normal_iteratorIPSA_SC_EEDpOT_
   986: 0000000000725460   145 OBJECT  WEAK   DEFAULT   14 _ZTSN3fst18CacheStateIteratorINS_10ComposeFstINS_6ArcTplINS_23CompactLatticeWeightTplINS_16LatticeWeightTplIfEEiEEEENS_17DefaultCacheStoreIS7_EEEEEE
   987: 00000000008072b8    24 OBJECT  WEAK   DEFAULT   21 _ZTIN5kaldi5nnet326SimpleForwardingDescriptorE
   988: 00000000002569e0    75 FUNC    WEAK   DEFAULT   12 _ZNSt23_Sp_counted_ptr_inplaceIN3fst8internal14ComposeFstImplINS0_17DefaultCacheStoreINS0_6ArcTplINS0_16LatticeWeightTplIfEEEEEENS0_22LookAheadComposeFilterINS0_21SequenceComposeFilterINS0_16LookAheadMatcherINS0_3FstIS7_EEEESE_EESE_SE_LNS0_9MatchTypeE3EEENS0_24GenericComposeStateTableIS7_NS0_18IntegerFilterStateIaEENS0_24DefaultComposeStateTupleIiSK_EENS0_21CompactHashStateTableISM_NS0_11ComposeHashISM_EEEEEEEESaIvELN9__gnu_cxx12_Lock_policyE2EE14_M_get_deleterERKSt9type_info
   989: 00000000002fbda0    10 FUNC    WEAK   DEFAULT   12 _ZNK3fst17ImplToExpandedFstINS_8internal12ConstFstImplINS_6ArcTplINS_17TropicalWeightTplIfEEEEjEENS_11ExpandedFstIS6_EEE9NumStatesEv
   990: 0000000000269f90    80 FUNC    WEAK   DEFAULT   12 _ZN3fst13StateIteratorINS_3FstINS_6ArcTplINS_17TropicalWeightTplIfEEEEEEEC1ERKS6_
   991: 0000000000485860  3655 FUNC    GLOBAL DEFAULT   12 _ZN5kaldi29RescoreCompactLatticeInternalEPKNS_21TransitionInformationEfPNS_18DecodableInterfaceEPN3fst9VectorFstINS5_6ArcTplINS5_23CompactLatticeWeightTplINS5_16LatticeWeightTplIfEEiEEEENS5_11VectorStateISC_SaISC_EEEEE
   992: 00000000004b10b0    21 FUNC    WEAK   DEFAULT   12 _ZNK3fst10ComposeFstINS_6ArcTplINS_23CompactLatticeWeightTplINS_16LatticeWeightTplIfEEiEEEENS_17DefaultCacheStoreIS6_EEE11InitMatcherENS_9MatchTypeE
   993: 000000000044a3e0    10 FUNC    WEAK   DEFAULT   12 _ZNK5kaldi18OnlineDeltaFeature19FrameShiftInSecondsEv
   994: 00000000007191a0   133 OBJECT  WEAK   DEFAULT   14 _ZTSN3fst10MemoryPoolINS_8internal8DfsStateINS_10MutableFstINS_6ArcTplINS_23CompactLatticeWeightTplINS_16LatticeWeightTplIfEEiEEEEEEEEEE
   995: 00000000003c8fb0   203 FUNC    WEAK   DEFAULT   12 _ZNK3fst9ImplToFstINS_8internal14RandGenFstImplINS_6ArcTplINS_16LatticeWeightTplIfEEEES6_NS_10ArcSamplerIS6_NS_18UniformArcSelectorIS6_EEEEEENS_3FstIS6_EEE16NumInputEpsilonsEi
   996: 0000000000403fa0   199 FUNC    WEAK   DEFAULT   12 _ZN5kaldi28LatticeIncrementalDecoderTplIN3fst13GrammarFstTplINS1_9VectorFstINS1_6ArcTplINS1_17TropicalWeightTplIfEEEENS1_11VectorStateIS7_SaIS7_EEEEEEENS_7decoder16BackpointerTokenEE28UpdateLatticeDeterminizationEv
   997: 0000000000370f00    39 FUNC    WEAK   DEFAULT   12 _ZNSt6vectorIPKN5kaldi8HashListIlPNS0_7decoder8StdTokenEE4ElemESaIS8_EED2Ev
   998: 00000000003ee870   314 FUNC    WEAK   DEFAULT   12 _ZN5kaldi28LatticeIncrementalDecoderTplIN3fst13GrammarFstTplIKNS1_8ConstFstINS1_6ArcTplINS1_17TropicalWeightTplIfEEEEjEEEENS_7decoder8StdTokenEE14FindOrAddTokenElifPSC_Pb
   999: 000000000051f660    26 FUNC    GLOBAL DEFAULT   12 _ZN5kaldi5nnet38IndexSetC2ERKNS0_16ComputationGraphERKSt6vectorINS0_23ComputationGraphBuilder10CindexInfoESaIS7_EEib
  1000: 0000000000671340   567 FUNC    WEAK   DEFAULT   12 _ZN5kaldi10VectorBaseIdE6AddVecIfEEvdRKNS0_IT_EE
  1001: 00000000002900b0   160 FUNC    WEAK   DEFAULT   12 _ZN3fst8internal14ComposeFstImplINS_17DefaultCacheStoreINS_6ArcTplINS_16LatticeWeightTplIfEEEEEENS_20TrivialComposeFilterINS_7MatcherINS_3FstIS6_EEEESC_EENS_24GenericComposeStateTableIS6_NS_18TrivialFilterStateENS_24DefaultComposeStateTupleIiSF_EENS_21CompactHashStateTableISH_NS_11ComposeHashISH_EEEEEEED1Ev
  1002: 00000000008064e0    88 OBJECT  WEAK   DEFAULT   21 _ZTVN3fst8internal14ComposeFstImplINS_17DefaultCacheStoreINS_6ArcTplINS_23CompactLatticeWeightTplINS_16LatticeWeightTplIfEEiEEEEEENS_21SequenceComposeFilterINS_7MatcherINS_3FstIS8_EEEESE_EENS_24GenericComposeStateTableIS8_NS_18IntegerFilterStateIaEENS_24DefaultComposeStateTupleIiSI_EENS_21CompactHashStateTableISK_NS_11ComposeHashISK_EEEEEEEE
  1003: 000000000044c1e0   534 FUNC    WEAK   DEFAULT   12 _ZN5kaldi24OnlineGenericBaseFeatureINS_12MfccComputerEE14AcceptWaveformEfRKNS_10VectorBaseIfEE
  1004: 00000000006b42e0    39 FUNC    WEAK   DEFAULT   12 _ZN5kaldi8TpMatrixIdEclEii
  1005: 00000000006b6c40  1747 FUNC    WEAK   DEFAULT   12 _ZN3fst13FstRegistererINS_8ConstFstINS_6ArcTplINS_17TropicalWeightTplIfEEEEjEEEC1Ev
  1006: 000000000055c3d0   671 FUNC    GLOBAL DEFAULT   12 _ZN5kaldi5nnet344StatisticsPoolingComponentPrecomputedIndexes4ReadERSib
  1007: 00000000005f6990   389 FUNC    WEAK   DEFAULT   12 _ZNSt6vectorIPN5kaldi5nnet311NnetExampleESaIS3_EE17_M_realloc_insertIJRKS3_EEEvN9__gnu_cxx17__normal_iteratorIPS3_S5_EEDpOT_
  1008: 000000000044a4b0    45 FUNC    WEAK   DEFAULT   12 _ZNK5kaldi19OnlineAppendFeature14NumFramesReadyEv
  1009: 00000000006a4b20   754 FUNC    WEAK   DEFAULT   12 _ZN5kaldi16FilterMatrixRowsIfEEvRKNS_6MatrixIT_EERKSt6vectorIbSaIbEEPS3_
  1010: 00000000005d0a20    49 FUNC    GLOBAL DEFAULT   12 _ZN5kaldi5nnet325LstmNonlinearityComponent9ZeroStatsEv
  1011: 0000000000689560    61 FUNC    WEAK   DEFAULT   12 _ZN5kaldi12PackedMatrixIfE9ScaleDiagEf
  1012: 00000000002bdce0   326 FUNC    WEAK   DEFAULT   12 _ZSt16__do_uninit_copyIPKN3fst10ReverseArcINS0_6ArcTplINS0_23CompactLatticeWeightTplINS0_16LatticeWeightTplIfEEiEEEEEEPS8_ET0_T_SD_SC_
  1013: 0000000000253ef0     1 FUNC    WEAK   DEFAULT   12 _ZN3fst18MutableArcIteratorINS_9VectorFstINS_6ArcTplINS_16LatticeWeightTplIfEEEENS_11VectorStateIS5_SaIS5_EEEEEE8SetFlagsEhh
  1014: 000000000053eb70   138 FUNC    GLOBAL DEFAULT   12 _ZN5kaldi5nnet312NnetComputerC2ERKNS0_18NnetComputeOptionsERKNS0_15NnetComputationEPNS0_4NnetES9_
  1015: 000000000025ae20   211 FUNC    WEAK   DEFAULT   12 _ZNK3fst9ImplToFstINS_8internal18ComposeFstImplBaseINS_6ArcTplINS_16LatticeWeightTplIfEEEENS_17DefaultCacheStoreIS6_EENS_10ComposeFstIS6_S8_EEEENS_3FstIS6_EEE16NumInputEpsilonsEi
  1016: 000000000062cf00     5 FUNC    WEAK   DEFAULT   12 _ZNK5kaldi14CuSparseMatrixIdE7NumRowsEv
  1017: 0000000000350c70  1421 FUNC    GLOBAL DEFAULT   12 _ZN5kaldi22OnlineSilenceWeightingC1ERKNS_15TransitionModelERKNS_28OnlineSilenceWeightingConfigEi
  1018: 00000000006cee50   815 FUNC    WEAK   DEFAULT   12 _ZN5kaldi12ParseOptions12RegisterTmplIjEEvRKNSt7__cxx1112basic_stringIcSt11char_traitsIcESaIcEEEPT_S9_
  1019: 00000000003e3b20   654 FUNC    WEAK   DEFAULT   12 _ZN5kaldi28LatticeIncrementalDecoderTplIN3fst3FstINS1_6ArcTplINS1_17TropicalWeightTplIfEEEEEENS_7decoder8StdTokenEEC2ERKS7_RKNS_21TransitionInformationERKNS_31LatticeIncrementalDecoderConfigE
  1020: 000000000033adc0  1740 FUNC    WEAK   DEFAULT   12 _ZN3fst8internal13VectorFstImplINS_11VectorStateINS_10ReverseArcINS_6ArcTplINS_17TropicalWeightTplIfEEEEEESaIS8_EEEEC1ERKNS_3FstIS8_EE
  1021: 000000000062bcc0     8 FUNC    WEAK   DEFAULT   12 _ZN5kaldi6CuRandIfE12RandGaussianEPNS_12CuVectorBaseIfEE
  1022: 0000000000630040    17 FUNC    WEAK   DEFAULT   12 _ZN5kaldi8CuVectorIfEC1Ev
  1023: 000000000062b0e0     5 FUNC    WEAK   DEFAULT   12 _ZN5kaldi14CuPackedMatrixIfE7SetUnitEv
  1024: 000000000028ee00   379 FUNC    WEAK   DEFAULT   12 _ZN3fst20MemoryPoolCollection4PoolINS_13PoolAllocatorINS_6ArcTplINS_16LatticeWeightTplIfEEEEE2TNILi16EEEEEPNS_10MemoryPoolIT_EEv
  1025: 00000000004c82c0  3959 FUNC    WEAK   DEFAULT   12 _ZN3fst8internal21ShortestDistanceStateINS_10ReverseArcINS_6ArcTplINS_23CompactLatticeWeightTplINS_16LatticeWeightTplIfEEiEEEEEENS_9AutoQueueIiEENS_12AnyArcFilterIS9_EEE16ShortestDistanceEi
  1026: 000000000062c580     6 FUNC    WEAK   DEFAULT   12 _ZN5kaldi10CuSpMatrixIfE3MatEv
  1027: 0000000000452600    39 FUNC    WEAK   DEFAULT   12 _ZNSt6vectorIN5kaldi18OnlineProcessPitch18NormalizationStatsESaIS2_EED1Ev
  1028: 0000000000720a20    38 OBJECT  WEAK   DEFAULT   14 _ZTSN3fst29MutableFastLogAccumulatorDataE
  1029: 0000000000802420    40 OBJECT  WEAK   DEFAULT   21 _ZTVN3fst10MemoryPoolINS_13PoolAllocatorINS_6ArcTplINS_16LatticeWeightTplIfEEEEE2TNILi16EEEEE
  1030: 0000000000287820    39 FUNC    WEAK   DEFAULT   12 _ZNSt6vectorIN3fst24DefaultComposeStateTupleIiNS0_18TrivialFilterStateEEESaIS3_EED1Ev
  1031: 0000000000587030   206 FUNC    GLOBAL DEFAULT   12 _ZN5kaldi5nnet315LinearComponentC1ERKNS_8CuMatrixIfEE
  1032: 00000000005a6e00   376 FUNC    GLOBAL DEFAULT   12 _ZN5kaldi5nnet313VectorizeNnetERKNS0_4NnetEPNS_10VectorBaseIfEE
  1033: 000000000036b030    53 FUNC    WEAK   DEFAULT   12 _ZN5kaldi23LatticeFasterDecoderTplIN3fst13GrammarFstTplINS1_9VectorFstINS1_6ArcTplINS1_17TropicalWeightTplIfEEEENS1_11VectorStateIS7_SaIS7_EEEEEEENS_7decoder8StdTokenEE10SetOptionsERKNS_26LatticeFasterDecoderConfigE
  1034: 000000000025f730   117 FUNC    WEAK   DEFAULT   12 _ZN3fst10MemoryPoolINS_13PoolAllocatorINS_10ReverseArcINS_6ArcTplINS_16LatticeWeightTplIfEEEEEEE2TNILi1EEEED1Ev
  1035: 0000000000688f40   205 FUNC    WEAK   DEFAULT   12 _ZN5kaldi12PackedMatrixIfE14CopyFromPackedIdEEvRKNS0_IT_EE
  1036: 000000000025fab0   117 FUNC    WEAK   DEFAULT   12 _ZN3fst10MemoryPoolINS_13PoolAllocatorINS_6ArcTplINS_17TropicalWeightTplIfEEEEE2TNILi16EEEED2Ev
  1037: 0000000000627370   243 FUNC    WEAK   DEFAULT   12 _ZN5kaldi12CuMatrixBaseIdE23CopyRangeFromMatClampedERKS1_iiii
  1038: 0000000000319c80  1544 FUNC    WEAK   DEFAULT   12 _ZN3fst21LabelLookAheadMatcherINS_13SortedMatcherINS_8ConstFstINS_6ArcTplINS_17TropicalWeightTplIfEEEEjEEEELj1760ENS_18FastLogAccumulatorIS6_EENS_14LabelReachableIS6_SA_NS_18LabelReachableDataIiEEEEE12LookAheadFstINS_3FstIS6_EEEEbRKT_i
  1039: 000000000067f580   447 FUNC    WEAK   DEFAULT   12 _ZN5kaldi9ComplexFtIfEEvRKNS_10VectorBaseIT_EEPS3_b
  1040: 00000000004152a0   935 FUNC    WEAK   DEFAULT   12 _ZN3fst13GrammarFstTplINS_9VectorFstINS_6ArcTplINS_17TropicalWeightTplIfEEEENS_11VectorStateIS5_SaIS5_EEEEEE18GetChildInstanceIdEiii
  1041: 00000000004a2d70   304 FUNC    WEAK   DEFAULT   12 _ZNSt8_Rb_treeIiSt4pairIKidESt10_Select1stIS2_ESt4lessIiESaIS2_EE17_M_emplace_uniqueIJRS2_EEES0_ISt17_Rb_tree_iteratorIS2_EbEDpOT_
  1042: 0000000000251680     6 FUNC    WEAK   DEFAULT   12 _ZNK3fst8internal15MemoryArenaImplILm88EE4SizeEv
  1043: 00000000006e2b50   414 FUNC    GLOBAL DEFAULT   12 _ZN5kaldi12CharToStringB5cxx11ERKc
  1044: 0000000000504990   181 FUNC    GLOBAL DEFAULT   12 _ZN5kaldi5nnet325DecodableNnetSimpleLoopedC1ERKNS0_29DecodableNnetSimpleLoopedInfoERKNS_10MatrixBaseIfEEPKNS_10VectorBaseIfEEPS7_i
  1045: 00000000004bbd90  2646 FUNC    WEAK   DEFAULT   12 _ZN3fst6ArcMapINS_6ArcTplINS_23CompactLatticeWeightTplINS_16LatticeWeightTplIfEEiEEEENS_28RemoveSomeInputSymbolsMapperIS6_iEEEEvPNS_10MutableFstIT_EEPT0_
  1046: 00000000003713e0   135 FUNC    WEAK   DEFAULT   12 _ZNSt10_HashtableIPN5kaldi7decoder16BackpointerTokenESt4pairIKS3_iESaIS6_ENSt8__detail10_Select1stESt8equal_toIS3_ESt4hashIS3_ENS8_18_Mod_range_hashingENS8_20_Default_ranged_hashENS8_20_Prime_rehash_policyENS8_17_Hashtable_traitsILb0ELb0ELb1EEEED2Ev
  1047: 00000000006f72e0   559 FUNC    GLOBAL DEFAULT   12 _ZNK3fst11BitmapIndex7Select1Em
  1048: 00000000007fea20    24 OBJECT  WEAK   DEFAULT   21 _ZTIN3fst8internal15MemoryArenaImplILm168EEE
  1049: 000000000030a9e0   281 FUNC    WEAK   DEFAULT   12 _ZNSt6vectorIN3fst11IntervalSetIiNS0_19VectorIntervalStoreIiEEEESaIS4_EE13_M_insert_auxIS4_EEvN9__gnu_cxx17__normal_iteratorIPS4_S6_EEOT_
  1050: 000000000043b920   568 FUNC    GLOBAL DEFAULT   12 _ZN5kaldi13AddToClustersERKSt6vectorIPNS_11ClusterableESaIS2_EERKS0_IiSaIiEEPS4_
  1051: 00000000003706e0    39 FUNC    WEAK   DEFAULT   12 _ZNSt6vectorIN5kaldi23LatticeFasterDecoderTplIN3fst3FstINS2_6ArcTplINS2_17TropicalWeightTplIfEEEEEENS0_7decoder8StdTokenEE9TokenListESaISC_EED2Ev
  1052: 00000000002379c0   473 FUNC    GLOBAL DEFAULT   12 _ZN10RecognizerD1Ev
  1053: 00000000005cbf10    89 FUNC    GLOBAL DEFAULT   12 _ZN5kaldi5nnet318ComputationChecker5CheckEv
  1054: 00000000006f5190    75 FUNC    GLOBAL DEFAULT   12 _ZN3fst21CompositeWeightReaderC1ERSi
  1055: 0000000000267550    91 FUNC    WEAK   DEFAULT   12 _ZNSt6vectorIN3fst9VectorFstINS0_6ArcTplINS0_16LatticeWeightTplIfEEEENS0_11VectorStateIS5_SaIS5_EEEEESaIS9_EED1Ev
  1056: 00000000002580b0    10 FUNC    WEAK   DEFAULT   12 _ZNSt23_Sp_counted_ptr_inplaceIN3fst8internal13VectorFstImplINS0_11VectorStateINS0_6ArcTplINS0_23CompactLatticeWeightTplINS0_16LatticeWeightTplIfEEiEEEESaIS9_EEEEESaIvELN9__gnu_cxx12_Lock_policyE2EE10_M_destroyEv
  1057: 00000000006a7780   258 FUNC    WEAK   DEFAULT   12 _ZN5kaldi12SparseVectorIfEC2ERKNS_10VectorBaseIfEE
  1058: 00000000006b42a0    50 FUNC    WEAK   DEFAULT   12 _ZNK5kaldi8TpMatrixIdEclEii
  1059: 0000000000256800    47 FUNC    WEAK   DEFAULT   12 _ZNK3fst8internal15SymbolTableImpl4FindESt17basic_string_viewIcSt11char_traitsIcEE
  1060: 00000000004cf040   296 FUNC    WEAK   DEFAULT   12 _ZN3fst8internal14ComposeFstImplINS_17DefaultCacheStoreINS_6ArcTplINS_23CompactLatticeWeightTplINS_16LatticeWeightTplIfEEiEEEEEENS_21SequenceComposeFilterINS_7MatcherINS_3FstIS8_EEEESE_EENS_24GenericComposeStateTableIS8_NS_18IntegerFilterStateIaEENS_24DefaultComposeStateTupleIiSI_EENS_21CompactHashStateTableISK_NS_11ComposeHashISK_EEEEEEE12ComputeStartEv
  1061: 0000000000727a20    54 OBJECT  WEAK   DEFAULT   14 _ZTSN5kaldi5nnet337DistributeComponentPrecomputedIndexesE
  1062: 0000000000582620   283 FUNC    GLOBAL DEFAULT   12 _ZNK5kaldi5nnet325ConstantFunctionComponent8BackpropERKNSt7__cxx1112basic_stringIcSt11char_traitsIcESaIcEEEPKNS0_27ComponentPrecomputedIndexesERKNS_12CuMatrixBaseIfEESG_SG_PvPNS0_9ComponentEPSE_
  1063: 00000000003727e0   523 FUNC    WEAK   DEFAULT   12 _ZN5kaldi23LatticeFasterDecoderTplIN3fst9VectorFstINS1_6ArcTplINS1_17TropicalWeightTplIfEEEENS1_11VectorStateIS6_SaIS6_EEEEENS_7decoder16BackpointerTokenEED2Ev
  1064: 000000000059f850   196 FUNC    GLOBAL DEFAULT   12 _ZN5kaldi5nnet313TdnnComponent11UnVectorizeERKNS_10VectorBaseIfEE
  1065: 00000000005511f0     6 FUNC    WEAK   DEFAULT   12 _ZNK5kaldi5nnet328RoundingForwardingDescriptor7ModulusEv
  1066: 00000000007fdcd0    24 OBJECT  WEAK   DEFAULT   21 _ZTIN3fst16ImplToMutableFstINS_8internal13VectorFstImplINS_11VectorStateINS_6ArcTplINS_23CompactLatticeWeightTplINS_16LatticeWeightTplIfEEiEEEESaIS9_EEEEENS_10MutableFstIS9_EEEE
  1067: 00000000003929c0   583 FUNC    WEAK   DEFAULT   12 _ZN5kaldi23LatticeFasterDecoderTplIN3fst13GrammarFstTplIKNS1_8ConstFstINS1_6ArcTplINS1_17TropicalWeightTplIfEEEEjEEEENS_7decoder16BackpointerTokenEE12InitDecodingEv
  1068: 0000000000626ca0    24 FUNC    WEAK   DEFAULT   12 _ZNK5kaldi12CuMatrixBaseIdE10CopyToRowsERKNS_11CuArrayBaseIPdEE
  1069: 00000000004b0c50     6 FUNC    WEAK   DEFAULT   12 _ZNK3fst8internal15MemoryArenaImplILm3080EE4SizeEv
  1070: 00000000005fe6d0   154 FUNC    GLOBAL DEFAULT   12 _ZNK5kaldi5nnet319ComputationExpander24GetNewSubmatLocationInfoEiiPiS2_
  1071: 000000000046af10  4500 FUNC    WEAK   DEFAULT   12 _ZN3fst25LatticeDeterminizerPrunedINS_16LatticeWeightTplIfEEiE6OutputEPNS_10MutableFstINS_6ArcTplIS2_EEEEb
  1072: 00000000005a4f30   131 FUNC    GLOBAL DEFAULT   12 _ZN5kaldi5nnet318SetDropoutTestModeEbPNS0_4NnetE
  1073: 000000000060c7b0   176 FUNC    GLOBAL DEFAULT   12 _ZN5kaldi5nnet314MatrixExtender14ExtendMatricesEv
  1074: 0000000000677010   353 FUNC    WEAK   DEFAULT   12 _ZN5kaldi10VectorBaseIdE10AddMatSvecEdRKNS_10MatrixBaseIdEENS_19MatrixTransposeTypeERKS1_d
  1075: 0000000000669c10   389 FUNC    WEAK   DEFAULT   12 _ZNSt6vectorIPS_IfSaIfEESaIS2_EE17_M_realloc_insertIJRKS2_EEEvN9__gnu_cxx17__normal_iteratorIPS2_S4_EEDpOT_
  1076: 0000000000305f60    38 FUNC    WEAK   DEFAULT   12 _ZNSt10unique_ptrIN3fst10MappedFileESt14default_deleteIS1_EED1Ev
  1077: 0000000000524af0   567 FUNC    GLOBAL DEFAULT   12 _ZN5kaldi5nnet324ComputationStepsComputerC1ERKNS0_4NnetEPNS0_16ComputationGraphEPSt6vectorIS7_IiSaIiEESaIS9_EEPS7_ISt4pairIiiESaISE_EE
  1078: 00000000005725b0  2278 FUNC    WEAK   DEFAULT   12 _ZNSt6vectorIN5kaldi10ConfigLineESaIS1_EE17_M_realloc_insertIJRKS1_EEEvN9__gnu_cxx17__normal_iteratorIPS1_S3_EEDpOT_
  1079: 00000000007fde58    24 OBJECT  WEAK   DEFAULT   21 _ZTIN3fst8internal9CacheImplINS_6ArcTplINS_16LatticeWeightTplIfEEEEEE
  1080: 00000000007fdb38    24 OBJECT  WEAK   DEFAULT   21 _ZTIN3fst8internal14MemoryPoolImplILm24EEE
  1081: 0000000000634200   533 FUNC    WEAK   DEFAULT   12 _ZNSt6vectorIN5kaldi13CuBlockMatrixIdE15BlockMatrixDataESaIS3_EE17_M_default_appendEm
  1082: 0000000000274dc0   588 FUNC    WEAK   DEFAULT   12 _ZNK3fst23CompactLatticeWeightTplINS_16LatticeWeightTplIfEEiE7ReverseEv
  1083: 0000000000724400    66 OBJECT  WEAK   DEFAULT   14 _ZTSN3fst10MemoryPoolIN5kaldi7decoder11ForwardLinkINS2_8StdTokenEEEEE
  1084: 00000000004c1cb0   435 FUNC    WEAK   DEFAULT   12 _ZNK3fst8internal14ComposeFstImplINS_17DefaultCacheStoreINS_6ArcTplINS_23CompactLatticeWeightTplINS_16LatticeWeightTplIfEEiEEEEEENS_21SequenceComposeFilterINS_7MatcherINS_3FstIS8_EEEESE_EENS_24GenericComposeStateTableIS8_NS_18IntegerFilterStateIaEENS_24DefaultComposeStateTupleIiSI_EENS_21CompactHashStateTableISK_NS_11ComposeHashISK_EEEEEEE11InitMatcherERKNS_10ComposeFstIS8_S9_EENS_9MatchTypeE
  1085: 00000000006b2d30   309 FUNC    WEAK   DEFAULT   12 _ZN5kaldi20SplitRadixComplexFftIfEC2Ei
  1086: 00000000002fbae0    30 FUNC    WEAK   DEFAULT   12 _ZN3fst21LabelLookAheadMatcherINS_13SortedMatcherINS_8ConstFstINS_6ArcTplINS_17TropicalWeightTplIfEEEEjEEEELj1760ENS_18FastLogAccumulatorIS6_EENS_14LabelReachableIS6_SA_NS_18LabelReachableDataIiEEEEE8SetStateEi
  1087: 0000000000624580     5 FUNC    WEAK   DEFAULT   12 _ZN5kaldi12CuMatrixBaseIfE8GroupMaxERKS1_
  1088: 000000000065aaf0     8 FUNC    WEAK   DEFAULT   12 _ZN5kaldi10MatrixBaseIdE15ApplyExpLimitedEdd
  1089: 000000000059e1a0   134 FUNC    WEAK   DEFAULT   12 _ZNK5kaldi5nnet321ClipGradientComponent4TypeB5cxx11Ev
  1090: 0000000000272dc0   333 FUNC    WEAK   DEFAULT   12 _ZNSt10_HashtableISt4pairIiiES0_IKS1_iESaIS3_ENSt8__detail10_Select1stESt8equal_toIS1_EN5kaldi10PairHasherIiiEENS5_18_Mod_range_hashingENS5_20_Default_ranged_hashENS5_20_Prime_rehash_policyENS5_17_Hashtable_traitsILb0ELb0ELb1EEEE9_M_rehashEmRKm
  1091: 000000000067ffc0  3204 FUNC    WEAK   DEFAULT   12 _ZN5kaldi10ComputePcaIfEEvRKNS_10MatrixBaseIT_EEPS3_S6_bb
  1092: 00000000004c1ff0   120 FUNC    WEAK   DEFAULT   12 _ZN3fst17ComposeFstMatcherINS_17DefaultCacheStoreINS_6ArcTplINS_23CompactLatticeWeightTplINS_16LatticeWeightTplIfEEiEEEEEENS_22LookAheadComposeFilterINS_24AltSequenceComposeFilterINS_16LookAheadMatcherINS_3FstIS7_EEEESE_EESE_SE_LNS_9MatchTypeE3EEENS_24GenericComposeStateTableIS7_NS_18IntegerFilterStateIaEENS_24DefaultComposeStateTupleIiSK_EENS_21CompactHashStateTableISM_NS_11ComposeHashISM_EEEEEEED2Ev
  1093: 00000000005cca40   399 FUNC    WEAK   DEFAULT   12 _ZNSt6vectorIN5kaldi5nnet36AccessESaIS2_EE17_M_realloc_insertIJS2_EEEvN9__gnu_cxx17__normal_iteratorIPS2_S4_EEDpOT_
  1094: 0000000000397860  1765 FUNC    WEAK   DEFAULT   12 _ZN5kaldi23LatticeFasterDecoderTplIN3fst8ConstFstINS1_6ArcTplINS1_17TropicalWeightTplIfEEEEjEENS_7decoder8StdTokenEE13TopSortTokensEPS9_PSt6vectorISB_SaISB_EE
  1095: 0000000000607440   767 FUNC    GLOBAL DEFAULT   12 _ZN5kaldi5nnet321RequestIsDecomposableERKNS0_18ComputationRequestEPS1_Pi
  1096: 00000000007fdab0    16 OBJECT  WEAK   DEFAULT   21 _ZTIN3fst11SymbolTableE
  1097: 00000000004be6a0   950 FUNC    WEAK   DEFAULT   12 _ZSt11__make_heapIN9__gnu_cxx17__normal_iteratorIPN3fst6ArcTplINS2_23CompactLatticeWeightTplINS2_16LatticeWeightTplIfEEiEEEESt6vectorIS8_SaIS8_EEEENS0_5__ops15_Iter_comp_iterINS2_13OLabelCompareIS8_EEEEEvT_SJ_RT0_
  1098: 00000000006186f0   165 FUNC    WEAK   DEFAULT   12 _ZNSt10_HashtableINSt7__cxx1112basic_stringIcSt11char_traitsIcESaIcEEESt4pairIKS5_N5kaldi5nnet321ObjectiveFunctionInfoEESaISB_ENSt8__detail10_Select1stESt8equal_toIS5_ENS8_12StringHasherENSD_18_Mod_range_hashingENSD_20_Default_ranged_hashENSD_20_Prime_rehash_policyENSD_17_Hashtable_traitsILb0ELb0ELb1EEEED2Ev
  1099: 0000000000674950    16 FUNC    WEAK   DEFAULT   12 _ZN5kaldi10VectorBaseIfE5ScaleEf
  1100: 00000000005b00f0  3164 FUNC    WEAK   DEFAULT   12 _ZN5kaldi5nnet310SvdApplier19DecomposeComponentsEv
  1101: 0000000000253fa0     6 FUNC    WEAK   DEFAULT   12 _ZNK3fst18CacheStateIteratorINS_10ComposeFstINS_6ArcTplINS_17TropicalWeightTplIfEEEENS_17DefaultCacheStoreIS5_EEEEE5ValueEv
  1102: 00000000004b0c60     6 FUNC    WEAK   DEFAULT   12 _ZNK3fst8internal15MemoryArenaImplILm96EE4SizeEv
  1103: 0000000000407940    13 FUNC    WEAK   DEFAULT   12 _ZN5kaldi34LatticeIncrementalOnlineDecoderTplIN3fst9VectorFstINS1_6ArcTplINS1_17TropicalWeightTplIfEEEENS1_11VectorStateIS6_SaIS6_EEEEEE16BestPathIteratorC2EPvi
  1104: 00000000006a4a70    15 FUNC    WEAK   DEFAULT   12 _ZNK5kaldi12SparseMatrixIdE3RowEi
  1105: 0000000000251660     6 FUNC    WEAK   DEFAULT   12 _ZNK3fst8internal15MemoryArenaImplILm328EE4SizeEv
  1106: 0000000000371cb0   576 FUNC    WEAK   DEFAULT   12 _ZN5kaldi23LatticeFasterDecoderTplIN3fst9VectorFstINS1_6ArcTplINS1_17TropicalWeightTplIfEEEENS1_11VectorStateIS6_SaIS6_EEEEENS_7decoder8StdTokenEED1Ev
  1107: 000000000026d740   135 FUNC    WEAK   DEFAULT   12 _ZNSt10_HashtableIPKN3fst23LatticeStringRepositoryIiE5EntryES5_SaIS5_ENSt8__detail9_IdentityENS2_10EntryEqualENS2_8EntryKeyENS7_18_Mod_range_hashingENS7_20_Default_ranged_hashENS7_20_Prime_rehash_policyENS7_17_Hashtable_traitsILb1ELb1ELb1EEEED2Ev
  1108: 0000000000308ca0   209 FUNC    WEAK   DEFAULT   12 _ZN3fst21LabelLookAheadMatcherINS_13SortedMatcherINS_8ConstFstINS_6ArcTplINS_17TropicalWeightTplIfEEEEjEEEELj1760ENS_18FastLogAccumulatorIS6_EENS_14LabelReachableIS6_SA_NS_18LabelReachableDataIiEEEEED2Ev
  1109: 0000000000720f60   176 OBJECT  WEAK   DEFAULT   14 _ZTSN3fst17ImplToExpandedFstINS_8internal9AddOnImplINS_8ConstFstINS_6ArcTplINS_17TropicalWeightTplIfEEEEjEENS_9AddOnPairINS_18LabelReachableDataIiEESB_EEEENS_11ExpandedFstIS7_EEEE
  1110: 000000000028e030   534 FUNC    WEAK   DEFAULT   12 _ZNSt10_HashtableIiiN3fst13PoolAllocatorIiEENSt8__detail9_IdentityENS0_18CompactHashBiTableIiNS0_24DefaultComposeStateTupleIiNS0_18IntegerFilterStateIaEEEENS0_11ComposeHashIS9_EESt8equal_toIS9_ELNS0_6HSTypeE3EE9HashEqualENSF_8HashFuncENS3_18_Mod_range_hashingENS3_20_Default_ranged_hashENS3_20_Prime_rehash_policyENS3_17_Hashtable_traitsILb1ELb1ELb1EEEED1Ev
  1111: 0000000000728120    34 OBJECT  WEAK   DEFAULT   14 _ZTSN5kaldi5nnet317SumGroupComponentE
  1112: 000000000055f9d0     6 FUNC    WEAK   DEFAULT   12 _ZNK5kaldi5nnet320DropoutMaskComponent9OutputDimEv
  1113: 00000000002452a0   805 FUNC    GLOBAL DEFAULT   12 _ZN10Recognizer6SetGrmEPKc
  1114: 00000000005d8aa0   604 FUNC    GLOBAL DEFAULT   12 _ZN5kaldi5nnet320ConvolutionComponent4ReadERSib
  1115: 000000000062bef0   224 FUNC    WEAK   DEFAULT   12 _ZN5kaldi6CuRandIdE13BinarizeProbsERKNS_8CuMatrixIdEEPS3_
  1116: 00000000002d1ee0   423 FUNC    WEAK   DEFAULT   12 _ZN3fst16ImplToMutableFstINS_8internal13VectorFstImplINS_11VectorStateINS_6ArcTplINS_17TropicalWeightTplIfEEEESaIS7_EEEEENS_10MutableFstIS7_EEE6AddArcEiOS7_
  1117: 000000000036a140     1 FUNC    WEAK   DEFAULT   12 _ZN3fst18MutableArcIteratorINS_9VectorFstINS_6ArcTplINS_16LatticeWeightTplIfEEEENS_11VectorStateIS5_SaIS5_EEEEEE8SetFlagsEjj
  1118: 000000000044ea20    82 FUNC    GLOBAL DEFAULT   12 _ZN5kaldi22OnlinePitchFeatureImpl8GetFrameEiPNS_10VectorBaseIfEE
  1119: 00000000003b3090    72 FUNC    WEAK   DEFAULT   12 _ZN3fst9LifoQueueIiEC1Ev
  1120: 0000000000300650   862 FUNC    WEAK   DEFAULT   12 _ZN5kaldi5nnet334NnetSimpleLoopedComputationOptions8RegisterEPNS_10OptionsItfE
  1121: 000000000068ea80   885 FUNC    WEAK   DEFAULT   12 _ZN5kaldi8SpMatrixIfE14TridiagonalizeEPNS_10MatrixBaseIfEE
  1122: 0000000000620ee0   297 FUNC    WEAK   DEFAULT   12 _ZN5kaldi12CuMatrixBaseIfE11CopyFromMatIdEEvRKNS_10MatrixBaseIT_EENS_19MatrixTransposeTypeE
  1123: 0000000000665200   662 FUNC    WEAK   DEFAULT   12 _ZN5kaldi10MatrixBaseIfE12InvertDoubleEPfS2_b
  1124: 00000000006de6a0  1295 FUNC    WEAK   DEFAULT   12 _ZN5kaldi19ConvertStringToRealIdEEbRKNSt7__cxx1112basic_stringIcSt11char_traitsIcESaIcEEEPT_
  1125: 0000000000505460   164 FUNC    GLOBAL DEFAULT   12 _ZN5kaldi5nnet325DecodableNnetSimpleLooped17GetOutputForFrameEiPNS_10VectorBaseIfEE
  1126: 00000000004572b0   502 FUNC    GLOBAL DEFAULT   12 _ZN5kaldi11PlpComputerD1Ev
  1127: 00000000004f4fe0    51 FUNC    GLOBAL DEFAULT   12 _ZNK5kaldi15TransitionModel33TransitionStateToSelfLoopPdfClassEi
  1128: 00000000004c9d00   631 FUNC    WEAK   DEFAULT   12 _ZNSt6vectorIN3fst6ArcTplINS0_23CompactLatticeWeightTplINS0_16LatticeWeightTplIfEEiEEEENS0_13PoolAllocatorIS6_EEE17_M_realloc_insertIJiiKS5_RiEEEvN9__gnu_cxx17__normal_iteratorIPS6_S9_EEDpOT_
  1129: 000000000032fa30   250 FUNC    WEAK   DEFAULT   12 _ZN3fst8internal7FstImplINS_10ReverseArcINS_6ArcTplINS_17TropicalWeightTplIfEEEEEEE15SetInputSymbolsEPKNS_11SymbolTableE
  1130: 00000000007296e0   512 OBJECT  GLOBAL DEFAULT   14 _ZN3fst8internal18kPrefixSumOverflowE
  1131: 000000000038eae0    74 FUNC    WEAK   DEFAULT   12 _ZN5kaldi23LatticeFasterDecoderTplIN3fst9VectorFstINS1_6ArcTplINS1_17TropicalWeightTplIfEEEENS1_11VectorStateIS6_SaIS6_EEEEENS_7decoder16BackpointerTokenEE6DecodeEPNS_18DecodableInterfaceE
  1132: 000000000026b910  1785 FUNC    WEAK   DEFAULT   12 _ZNSt6vectorIbSaIbEE6resizeEmb
  1133: 00000000002f72d0  4600 FUNC    GLOBAL DEFAULT   12 _ZN5Model13ReadDataFilesEv
  1134: 0000000000287e10    64 FUNC    WEAK   DEFAULT   12 _ZNSt10unique_ptrIN3fst16LookAheadMatcherINS0_3FstINS0_6ArcTplINS0_17TropicalWeightTplIfEEEEEEEESt14default_deleteIS8_EED2Ev
  1135: 0000000000504800   109 FUNC    GLOBAL DEFAULT   12 _ZN5kaldi5nnet327DecodableAmNnetLoopedOnline13LogLikelihoodEii
  1136: 00000000002ebab0   234 FUNC    WEAK   DEFAULT   12 _ZN3fst17ComposeFstMatcherINS_17DefaultCacheStoreINS_6ArcTplINS_16LatticeWeightTplIfEEEEEENS_24AltSequenceComposeFilterINS_7MatcherINS_3FstIS5_EEEESB_EENS_24GenericComposeStateTableIS5_NS_18IntegerFilterStateIaEENS_24DefaultComposeStateTupleIiSF_EENS_21CompactHashStateTableISH_NS_11ComposeHashISH_EEEEEEE4FindEi
  1137: 000000000026b4c0    39 FUNC    WEAK   DEFAULT   12 _ZNSt6vectorIhSaIhEED2Ev
  1138: 0000000000630240   171 FUNC    WEAK   DEFAULT   12 _ZN5kaldi8CuVectorIfEC1ERKS1_
  1139: 0000000000727e40    44 OBJECT  WEAK   DEFAULT   14 _ZTSN5kaldi5nnet327ElementwiseProductComponentE
  1140: 0000000000805f40    24 OBJECT  WEAK   DEFAULT   21 _ZTISt23_Sp_counted_ptr_inplaceIN3fst8internal14ComposeFstImplINS0_17DefaultCacheStoreINS0_6ArcTplINS0_23CompactLatticeWeightTplINS0_16LatticeWeightTplIfEEiEEEEEENS0_21SequenceComposeFilterINS0_7MatcherINS0_3FstIS9_EEEESF_EENS0_24GenericComposeStateTableIS9_NS0_18IntegerFilterStateIaEENS0_24DefaultComposeStateTupleIiSJ_EENS0_21CompactHashStateTableISL_NS0_11ComposeHashISL_EEEEEEEESaIvELN9__gnu_cxx12_Lock_policyE2EE
  1141: 00000000007fde88    24 OBJECT  WEAK   DEFAULT   21 _ZTIN3fst9ImplToFstINS_8internal13ArcMapFstImplINS_6ArcTplINS_17TropicalWeightTplIfEEEENS3_INS_16LatticeWeightTplIfEEEENS_18StdToLatticeMapperIfEEEENS_3FstIS9_EEEE
  1142: 0000000000394a00  1286 FUNC    WEAK   DEFAULT   12 _ZN5kaldi23LatticeFasterDecoderTplIN3fst13GrammarFstTplINS1_9VectorFstINS1_6ArcTplINS1_17TropicalWeightTplIfEEEENS1_11VectorStateIS7_SaIS7_EEEEEEENS_7decoder16BackpointerTokenEE18ProcessNonemittingEf
  1143: 000000000041e880   581 FUNC    GLOBAL DEFAULT   12 _ZNK5kaldi16IvectorExtractor20GetIvectorDistWeightERKNS_30IvectorExtractorUtteranceStatsERKNS_10VectorBaseIdEEPS5_PNS_8SpMatrixIdEE
  1144: 00000000004453b0    10 FUNC    WEAK   DEFAULT   12 _ZN5kaldi17ScalarClusterableD0Ev
  1145: 00000000002517e0     1 FUNC    WEAK   DEFAULT   12 _ZNSt23_Sp_counted_ptr_inplaceIN3fst8internal14ComposeFstImplINS0_17DefaultCacheStoreINS0_6ArcTplINS0_16LatticeWeightTplIfEEEEEENS0_18MatchComposeFilterINS0_7MatcherINS0_3FstIS7_EEEESD_EENS0_24GenericComposeStateTableIS7_NS0_18IntegerFilterStateIaEENS0_24DefaultComposeStateTupleIiSH_EENS0_21CompactHashStateTableISJ_NS0_11ComposeHashISJ_EEEEEEEESaIvELN9__gnu_cxx12_Lock_policyE2EED1Ev
  1146: 0000000000807880   200 OBJECT  WEAK   DEFAULT   21 _ZTVN5kaldi5nnet319DistributeComponentE
  1147: 000000000059ca80     6 FUNC    WEAK   DEFAULT   12 _ZNK5kaldi5nnet316DropoutComponent10PropertiesEv
  1148: 0000000000801390    88 OBJECT  WEAK   DEFAULT   21 _ZTVN3fst8internal14ComposeFstImplINS_17DefaultCacheStoreINS_6ArcTplINS_17TropicalWeightTplIfEEEEEENS_23PushLabelsComposeFilterINS_24PushWeightsComposeFilterINS_22LookAheadComposeFilterINS_24AltSequenceComposeFilterINS_16LookAheadMatcherINS_3FstIS6_EEEESF_EESF_SF_LNS_9MatchTypeE3EEESF_SF_LSH_3EEESF_SF_LSH_3EEENS_24GenericComposeStateTableIS6_NS_15PairFilterStateINSM_INS_18IntegerFilterStateIaEENS_17WeightFilterStateIS5_EEEENSN_IiEEEENS_24DefaultComposeStateTupleIiST_EENS_21CompactHashStateTableISV_NS_11ComposeHashISV_EEEEEEEE
  1149: 00000000005d06c0    12 FUNC    GLOBAL DEFAULT   12 _ZN5kaldi5nnet330OutputGruNonlinearityComponent21FreezeNaturalGradientEb
  1150: 000000000031d7e0    15 FUNC    GLOBAL DEFAULT   12 vosk_recognizer_set_partial_words
  1151: 00000000005d09f0    42 FUNC    GLOBAL DEFAULT   12 _ZNK5kaldi5nnet330OutputGruNonlinearityComponent10DotProductERKNS0_18UpdatableComponentE
  1152: 0000000000565f40    80 FUNC    GLOBAL DEFAULT   12 _ZNK5kaldi5nnet34Nnet9OutputDimERKNSt7__cxx1112basic_stringIcSt11char_traitsIcESaIcEEE
  1153: 00000000003246a0     1 FUNC    WEAK   DEFAULT   12 _ZNSt23_Sp_counted_ptr_inplaceIN3fst8internal14ComposeFstImplINS0_17DefaultCacheStoreINS0_6ArcTplINS0_17TropicalWeightTplIfEEEEEENS0_20NoMatchComposeFilterINS0_7MatcherINS0_3FstIS7_EEEESD_EENS0_24GenericComposeStateTableIS7_NS0_18TrivialFilterStateENS0_24DefaultComposeStateTupleIiSG_EENS0_21CompactHashStateTableISI_NS0_11ComposeHashISI_EEEEEEEESaIvELN9__gnu_cxx12_Lock_policyE2EED1Ev
  1154: 0000000000800ed0    40 OBJECT  WEAK   DEFAULT   21 _ZTVN3fst10MemoryPoolINS_8internal8DfsStateINS_3FstINS_6ArcTplINS_23CompactLatticeWeightTplINS_16LatticeWeightTplIfEEiEEEEEEEEEE
  1155: 00000000002fbe40     7 FUNC    WEAK   DEFAULT   12 _ZNK3fst15NGramFstMatcherINS_6ArcTplINS_17TropicalWeightTplIfEEEEE6GetFstEv
  1156: 00000000006af0b0   554 FUNC    WEAK   DEFAULT   12 _ZN5kaldi12SparseVectorIdEC2EiRKSt6vectorISt4pairIidESaIS4_EE
  1157: 00000000003b1390    10 FUNC    WEAK   DEFAULT   12 _ZNK5kaldi29LatticeFasterOnlineDecoderTplIN3fst13GrammarFstTplINS1_9VectorFstINS1_6ArcTplINS1_17TropicalWeightTplIfEEEENS1_11VectorStateIS7_SaIS7_EEEEEEEE16BestPathIterator4DoneEv
  1158: 00000000006243f0     5 FUNC    WEAK   DEFAULT   12 _ZN5kaldi12CuMatrixBaseIfE10ExpLimitedERKS1_ff
  1159: 000000000045f6c0   505 FUNC    WEAK   DEFAULT   12 _ZNSt6vectorIN5kaldi28PrunedCompactLatticeComposer16LatticeStateInfoESaIS2_EE17_M_default_appendEm
  1160: 000000000026a2f0   375 FUNC    WEAK   DEFAULT   12 _ZNSt8_Rb_treeINSt7__cxx1112basic_stringIcSt11char_traitsIcESaIcEEESt4pairIKS5_N4json4JSONEESt10_Select1stISA_ESt4lessIS5_ESaISA_EE24_M_get_insert_unique_posERS7_
  1161: 0000000000422090   526 FUNC    GLOBAL DEFAULT   12 _ZNK5kaldi28OnlineIvectorEstimationStats10GetIvectorEiPNS_10VectorBaseIdEE
  1162: 000000000031c1b0  1802 FUNC    GLOBAL DEFAULT   12 _ZN8SpkModelC1EPKc
  1163: 00000000007fe410    24 OBJECT  WEAK   DEFAULT   21 _ZTIN3fst8internal14ComposeFstImplINS_17DefaultCacheStoreINS_6ArcTplINS_17TropicalWeightTplIfEEEEEENS_23PushLabelsComposeFilterINS_24PushWeightsComposeFilterINS_22LookAheadComposeFilterINS_24AltSequenceComposeFilterINS_16LookAheadMatcherINS_3FstIS6_EEEESF_EESF_SF_LNS_9MatchTypeE3EEESF_SF_LSH_3EEESF_SF_LSH_3EEENS_24GenericComposeStateTableIS6_NS_15PairFilterStateINSM_INS_18IntegerFilterStateIaEENS_17WeightFilterStateIS5_EEEENSN_IiEEEENS_24DefaultComposeStateTupleIiST_EENS_21CompactHashStateTableISV_NS_11ComposeHashISV_EEEEEEEE
  1164: 0000000000672490   152 FUNC    WEAK   DEFAULT   12 _ZN5kaldi6VectorIfE4InitEi
  1165: 0000000000547750  1363 FUNC    GLOBAL DEFAULT   12 _ZN5kaldi5nnet330TimeHeightConvolutionComponentC2ERKS1_
  1166: 0000000000316d60   208 FUNC    WEAK   DEFAULT   12 _ZNK3fst8NGramFstINS_6ArcTplINS_17TropicalWeightTplIfEEEEE15InitArcIteratorEiPNS_15ArcIteratorDataIS4_EE
  1167: 00000000003e68f0   115 FUNC    WEAK   DEFAULT   12 _ZN5kaldi28LatticeIncrementalDecoderTplIN3fst9VectorFstINS1_6ArcTplINS1_17TropicalWeightTplIfEEEENS1_11VectorStateIS6_SaIS6_EEEEENS_7decoder16BackpointerTokenEE18PossiblyResizeHashEm
  1168: 000000000062f1c0   303 FUNC    WEAK   DEFAULT   12 _ZN5kaldi12CuVectorBaseIfE6AddVecIdEEvfRKNS0_IT_EEf
  1169: 0000000000252150    11 FUNC    WEAK   DEFAULT   12 _ZNK3fst16ImplToMutableFstINS_8internal13VectorFstImplINS_11VectorStateINS_10ReverseArcINS_6ArcTplINS_16LatticeWeightTplIfEEEEEESaIS9_EEEEENS_10MutableFstIS9_EEE12InputSymbolsEv
  1170: 000000000026f1a0    67 FUNC    WEAK   DEFAULT   12 _ZN3fst10MemoryPoolINS_13PoolAllocatorINS_6ArcTplINS_17TropicalWeightTplIfEEEEE2TNILi1EEEED0Ev
  1171: 0000000000284d20  1105 FUNC    WEAK   DEFAULT   12 _ZN3fst8internal14ComposeFstImplINS_17DefaultCacheStoreINS_6ArcTplINS_17TropicalWeightTplIfEEEEEENS_21SequenceComposeFilterINS_7MatcherINS_3FstIS6_EEEESC_EENS_24GenericComposeStateTableIS6_NS_18IntegerFilterStateIaEENS_24DefaultComposeStateTupleIiSG_EENS_21CompactHashStateTableISI_NS_11ComposeHashISI_EEEEEEE12SetMatchTypeEv
  1172: 00000000002540a0     1 FUNC    WEAK   DEFAULT   12 _ZN3fst18MutableArcIteratorINS_9VectorFstINS_10ReverseArcINS_6ArcTplINS_16LatticeWeightTplIfEEEEEENS_11VectorStateIS7_SaIS7_EEEEEE8SetFlagsEhh
  1173: 000000000059cb80    10 FUNC    WEAK   DEFAULT   12 _ZNK5kaldi5nnet323RepeatedAffineComponent8InputDimEv
  1174: 000000000069dc80   262 FUNC    WEAK   DEFAULT   12 _ZN5kaldi8SpMatrixIfE12InvertDoubleEPfS2_b
  1175: 0000000000391a50   732 FUNC    WEAK   DEFAULT   12 _ZN3fst11ArcIteratorINS_13GrammarFstTplIKNS_8ConstFstINS_6ArcTplINS_17TropicalWeightTplIfEEEEjEEEEEC2ERKS9_l
  1176: 0000000000728b90    29 OBJECT  WEAK   DEFAULT   14 _ZTSN5kaldi18StandardOutputImplE
  1177: 0000000000716640   109 OBJECT  WEAK   DEFAULT   14 _ZTSN3fst13StateIteratorINS_10ComposeFstINS_6ArcTplINS_17TropicalWeightTplIfEEEENS_17DefaultCacheStoreIS5_EEEEEE
  1178: 000000000062b560     6 FUNC    WEAK   DEFAULT   12 _ZNK5kaldi14CuPackedMatrixIfE3MatEv
  1179: 000000000062f960     5 FUNC    WEAK   DEFAULT   12 _ZNK5kaldi12CuVectorBaseIfE3MinEv
  1180: 000000000062c610    56 FUNC    WEAK   DEFAULT   12 _ZN5kaldi10CuSpMatrixIdEC1ERKS1_
  1181: 0000000000632b50    15 FUNC    WEAK   DEFAULT   12 _ZNK5kaldi13CuBlockMatrixIdE9NumBlocksEv
  1182: 000000000026e1c0    67 FUNC    WEAK   DEFAULT   12 _ZN3fst10MemoryPoolINS_13PoolAllocatorINS_10ReverseArcINS_6ArcTplINS_16LatticeWeightTplIfEEEEEEE2TNILi64EEEED0Ev
  1183: 0000000000290880   173 FUNC    WEAK   DEFAULT   12 _ZN3fst8internal14ComposeFstImplINS_17DefaultCacheStoreINS_6ArcTplINS_16LatticeWeightTplIfEEEEEENS_18MatchComposeFilterINS_7MatcherINS_3FstIS6_EEEESC_EENS_24GenericComposeStateTableIS6_NS_18IntegerFilterStateIaEENS_24DefaultComposeStateTupleIiSG_EENS_21CompactHashStateTableISI_NS_11ComposeHashISI_EEEEEEED0Ev
  1184: 000000000071ade0    72 OBJECT  WEAK   DEFAULT   14 _ZTSN3fst13SortedMatcherINS_3FstINS_6ArcTplINS_16LatticeWeightTplIfEEEEEEEE
  1185: 00000000006b4870   446 FUNC    WEAK   DEFAULT   12 _ZN5kaldi8TpMatrixIdE8CholeskyERKNS_8SpMatrixIdEE
  1186: 000000000052e7e0   152 FUNC    GLOBAL DEFAULT   12 _ZNK5kaldi5nnet318ComputationRequest13IndexForInputERKNSt7__cxx1112basic_stringIcSt11char_traitsIcESaIcEEE
  1187: 0000000000324690     1 FUNC    WEAK   DEFAULT   12 _ZNSt23_Sp_counted_ptr_inplaceIN3fst8internal14ComposeFstImplINS0_17DefaultCacheStoreINS0_6ArcTplINS0_17TropicalWeightTplIfEEEEEENS0_20TrivialComposeFilterINS0_7MatcherINS0_3FstIS7_EEEESD_EENS0_24GenericComposeStateTableIS7_NS0_18TrivialFilterStateENS0_24DefaultComposeStateTupleIiSG_EENS0_21CompactHashStateTableISI_NS0_11ComposeHashISI_EEEEEEEESaIvELN9__gnu_cxx12_Lock_policyE2EED1Ev
  1188: 00000000003b1360     5 FUNC    WEAK   DEFAULT   12 _ZN5kaldi29LatticeFasterOnlineDecoderTplIN3fst13GrammarFstTplINS1_9VectorFstINS1_6ArcTplINS1_17TropicalWeightTplIfEEEENS1_11VectorStateIS7_SaIS7_EEEEEEEEC2ERKSC_RKNS_26LatticeFasterDecoderConfigE
  1189: 000000000064ac80   226 FUNC    WEAK   DEFAULT   12 _ZN5kaldi6MatrixIfEaSERKNS_10MatrixBaseIfEE
  1190: 0000000000253c60     1 FUNC    WEAK   DEFAULT   12 _ZNSt15_Sp_counted_ptrIPN3fst8internal22DeterminizeFstImplBaseINS0_10ReverseArcINS0_6ArcTplINS0_16LatticeWeightTplIfEEEEEEEELN9__gnu_cxx12_Lock_policyE2EED1Ev
  1191: 0000000000683790    56 FUNC    WEAK   DEFAULT   12 _ZN5kaldi13OptimizeLbfgsIfE1SEi
  1192: 000000000065b520   378 FUNC    WEAK   DEFAULT   12 _ZN5kaldi10MatrixBaseIdE11DiffSigmoidERKS1_S3_
  1193: 00000000002e7300   156 FUNC    WEAK   DEFAULT   12 _ZN3fst8internal18ComposeFstImplBaseINS_6ArcTplINS_16LatticeWeightTplIfEEEENS_17DefaultCacheStoreIS5_EENS_10ComposeFstIS5_S7_EEEC2ERKSA_
  1194: 00000000004fc460   113 FUNC    WEAK   DEFAULT   12 _ZNSt6vectorIS_ISt4pairIiiESaIS1_EESaIS3_EED2Ev
  1195: 00000000002d05d0   439 FUNC    WEAK   DEFAULT   12 _ZN3fst10MutableFstINS_6ArcTplINS_17TropicalWeightTplIfEEEEE6AddArcEiOS4_
  1196: 00000000005dd250    25 FUNC    GLOBAL DEFAULT   12 _ZNK5kaldi5nnet311IndexHasherclERKNS0_5IndexE
  1197: 0000000000674a70   127 FUNC    WEAK   DEFAULT   12 _ZN5kaldi10VectorBaseIfE15CopyColsFromMatERKNS_10MatrixBaseIfEE
  1198: 0000000000324a60    11 FUNC    WEAK   DEFAULT   12 _ZNK3fst16ImplToMutableFstINS_8internal13VectorFstImplINS_11VectorStateINS_10ReverseArcINS_6ArcTplINS_17TropicalWeightTplIfEEEEEESaIS9_EEEEENS_10MutableFstIS9_EEE13OutputSymbolsEv
  1199: 0000000000721c20   299 OBJECT  WEAK   DEFAULT   14 _ZTSN3fst17ComposeFstMatcherINS_17DefaultCacheStoreINS_6ArcTplINS_17TropicalWeightTplIfEEEEEENS_20NoMatchComposeFilterINS_7MatcherINS_3FstIS5_EEEESB_EENS_24GenericComposeStateTableIS5_NS_18TrivialFilterStateENS_24DefaultComposeStateTupleIiSE_EENS_21CompactHashStateTableISG_NS_11ComposeHashISG_EEEEEEEE
  1200: 0000000000621e60   178 FUNC    WEAK   DEFAULT   12 _ZN5kaldilsIdEERSoS1_RKNS_12CuMatrixBaseIT_EE
  1201: 0000000000255990   186 FUNC    WEAK   DEFAULT   12 _ZNK3fst8internal14ComposeFstImplINS_17DefaultCacheStoreINS_6ArcTplINS_17TropicalWeightTplIfEEEEEENS_23PushLabelsComposeFilterINS_24PushWeightsComposeFilterINS_22LookAheadComposeFilterINS_24AltSequenceComposeFilterINS_16LookAheadMatcherINS_3FstIS6_EEEESF_EESF_SF_LNS_9MatchTypeE3EEESF_SF_LSH_3EEESF_SF_LSH_3EEENS_24GenericComposeStateTableIS6_NS_15PairFilterStateINSM_INS_18IntegerFilterStateIaEENS_17WeightFilterStateIS5_EEEENSN_IiEEEENS_24DefaultComposeStateTupleIiST_EENS_21CompactHashStateTableISV_NS_11ComposeHashISV_EEEEEEE10PropertiesEm
  1202: 000000000040e170    10 FUNC    WEAK   DEFAULT   12 _ZNSt23_Sp_counted_ptr_inplaceIN3fst13GrammarFstTplINS0_9VectorFstINS0_6ArcTplINS0_17TropicalWeightTplIfEEEENS0_11VectorStateIS6_SaIS6_EEEEEE13ExpandedStateESaIvELN9__gnu_cxx12_Lock_policyE2EED0Ev
  1203: 0000000000800f48    80 OBJECT  WEAK   DEFAULT   21 _ZTVN3fst8internal18DeterminizeFsaImplINS_10ReverseArcINS_6ArcTplINS_16LatticeWeightTplIfEEEEEENS_20DefaultCommonDivisorIS5_EENS_24DefaultDeterminizeFilterIS7_EENS_28DefaultDeterminizeStateTableIS7_NS_18IntegerFilterStateIaEEEEEE
  1204: 00000000008028c8    16 OBJECT  WEAK   DEFAULT   21 _ZTIN3fst22FastLogAccumulatorDataE
  1205: 0000000000575c70     1 FUNC    WEAK   DEFAULT   12 _ZN5kaldi5nnet318NormalizeComponentD2Ev
  1206: 000000000059cb00    24 FUNC    WEAK   DEFAULT   12 _ZNK5kaldi5nnet324RectifiedLinearComponent10PropertiesEv
  1207: 000000000048d3a0   404 FUNC    WEAK   DEFAULT   12 _ZNSt6vectorIN5kaldi16LatticeArcRecordESaIS1_EE17_M_realloc_insertIJRKS1_EEEvN9__gnu_cxx17__normal_iteratorIPS1_S3_EEDpOT_
  1208: 0000000000255500     6 FUNC    WEAK   DEFAULT   12 _ZNK3fst17ComposeFstMatcherINS_17DefaultCacheStoreINS_6ArcTplINS_16LatticeWeightTplIfEEEEEENS_22LookAheadComposeFilterINS_21SequenceComposeFilterINS_16LookAheadMatcherINS_3FstIS5_EEEESC_EESC_SC_LNS_9MatchTypeE3EEENS_24GenericComposeStateTableIS5_NS_18IntegerFilterStateIaEENS_24DefaultComposeStateTupleIiSI_EENS_21CompactHashStateTableISK_NS_11ComposeHashISK_EEEEEEE10PropertiesEm
  1209: 000000000044eda0   124 FUNC    GLOBAL DEFAULT   12 _ZN5kaldi18OnlineProcessPitchC1ERKNS_19ProcessPitchOptionsEPNS_22OnlineFeatureInterfaceE
  1210: 000000000025ff30   117 FUNC    WEAK   DEFAULT   12 _ZN3fst10MemoryPoolINS_8internal8DfsStateINS_3FstINS_6ArcTplINS_23CompactLatticeWeightTplINS_16LatticeWeightTplIfEEiEEEEEEEEED1Ev
  1211: 00000000002b2cf0   312 FUNC    WEAK   DEFAULT   12 _ZN3fst8internal7FstImplINS_6ArcTplINS_23CompactLatticeWeightTplINS_16LatticeWeightTplIfEEiEEEEE14WriteFstHeaderERKNS_3FstIS7_EERSoRKNS_15FstWriteOptionsEiRKNSt7__cxx1112basic_stringIcSt11char_traitsIcESaIcEEEmPNS_9FstHeaderE
  1212: 000000000065ee10    25 FUNC    WEAK   DEFAULT   12 _ZN5kaldi10MatrixBaseIdEC1EPdiii
  1213: 00000000007fe138    24 OBJECT  WEAK   DEFAULT   21 _ZTIN3fst8internal9CacheImplINS_10ReverseArcINS_6ArcTplINS_16LatticeWeightTplIfEEEEEEEE
  1214: 000000000025c840   208 FUNC    WEAK   DEFAULT   12 _ZNK3fst8internal14ComposeFstImplINS_17DefaultCacheStoreINS_6ArcTplINS_17TropicalWeightTplIfEEEEEENS_23PushLabelsComposeFilterINS_24PushWeightsComposeFilterINS_22LookAheadComposeFilterINS_24AltSequenceComposeFilterINS_16LookAheadMatcherINS_3FstIS6_EEEESF_EESF_SF_LNS_9MatchTypeE3EEESF_SF_LSH_3EEESF_SF_LSH_3EEENS_24GenericComposeStateTableIS6_NS_15PairFilterStateINSM_INS_18IntegerFilterStateIaEENS_17WeightFilterStateIS5_EEEENSN_IiEEEENS_24DefaultComposeStateTupleIiST_EENS_21CompactHashStateTableISV_NS_11ComposeHashISV_EEEEEEE10PropertiesEv
  1215: 0000000000251350    68 FUNC    WEAK   DEFAULT   12 _ZN3fst29ScaleDeterministicOnDemandFst5FinalEi
  1216: 00000000006b2d00    36 FUNC    WEAK   DEFAULT   12 _ZN5kaldi17SplitRadixRealFftIfEC2ERKS1_
  1217: 0000000000252860     3 FUNC    WEAK   DEFAULT   12 _ZNK3fst8internal18ComposeFstImplBaseINS_6ArcTplINS_16LatticeWeightTplIfEEEENS_17DefaultCacheStoreIS5_EENS_10ComposeFstIS5_S7_EEE11InitMatcherERKS9_NS_9MatchTypeE
  1218: 0000000000413840   939 FUNC    WEAK   DEFAULT   12 _ZN3fst13GrammarFstTplINS_9VectorFstINS_6ArcTplINS_17TropicalWeightTplIfEEEENS_11VectorStateIS5_SaIS5_EEEEEE22InitEntryOrReentryArcsERS9_iiPSt13unordered_mapIiiSt4hashIiESt8equal_toIiESaISt4pairIKiiEEE
  1219: 000000000055c9b0  1435 FUNC    GLOBAL DEFAULT   12 _ZNK5kaldi5nnet319DistributeComponent17PrecomputeIndexesERKNS0_19MiscComputationInfoERKSt6vectorINS0_5IndexESaIS6_EESA_b
  1220: 0000000000327da0   117 FUNC    WEAK   DEFAULT   12 _ZN3fst10MemoryPoolINS_13PoolAllocatorINS_10ReverseArcINS_6ArcTplINS_17TropicalWeightTplIfEEEEEEE2TNILi8EEEED1Ev
  1221: 0000000000420910   415 FUNC    GLOBAL DEFAULT   12 _ZN5kaldi21IvectorExtractorStats3AddERKS0_
  1222: 0000000000628400     5 FUNC    WEAK   DEFAULT   12 _ZN5kaldi12CuMatrixBaseIdE10AddSmatMatEdRKNS_14CuSparseMatrixIdEENS_19MatrixTransposeTypeERKS1_d
  1223: 000000000048ce10   807 FUNC    WEAK   DEFAULT   12 _ZNSt6vectorIS_ISt4pairIifESaIS1_EESaIS3_EE17_M_default_appendEm
  1224: 0000000000696680   432 FUNC    WEAK   DEFAULT   12 _ZN5kaldi8SpMatrixIfE6AddTp2EfRKNS_8TpMatrixIfEENS_19MatrixTransposeTypeEf
  1225: 000000000080a3a0   208 OBJECT  WEAK   DEFAULT   21 _ZTVN5kaldi5nnet319MaxpoolingComponentE
  1226: 0000000000350750  1297 FUNC    GLOBAL DEFAULT   12 _ZN5kaldi20OnlineIvectorFeatureC2ERKNS_27OnlineIvectorExtractionInfoEPNS_22OnlineFeatureInterfaceE
  1227: 0000000000253b80     1 FUNC    WEAK   DEFAULT   12 _ZN3fst13StateIteratorINS_10ComposeFstINS_6ArcTplINS_16LatticeWeightTplIfEEEENS_17DefaultCacheStoreIS5_EEEEED1Ev
  1228: 00000000002fb940    11 FUNC    WEAK   DEFAULT   12 _ZNK3fst9ImplToFstINS_8internal12NGramFstImplINS_6ArcTplINS_17TropicalWeightTplIfEEEEEENS_11ExpandedFstIS6_EEE13OutputSymbolsEv
  1229: 00000000002e5a30   845 FUNC    WEAK   DEFAULT   12 _ZN3fst8internal14ComposeFstImplINS_17DefaultCacheStoreINS_6ArcTplINS_16LatticeWeightTplIfEEEEEENS_24AltSequenceComposeFilterINS_7MatcherINS_3FstIS6_EEEESC_EENS_24GenericComposeStateTableIS6_NS_18IntegerFilterStateIaEENS_24DefaultComposeStateTupleIiSG_EENS_21CompactHashStateTableISI_NS_11ComposeHashISI_EEEEEEE6ExpandEi
  1230: 0000000000306c50   571 FUNC    WEAK   DEFAULT   12 _ZNK3fst15NGramFstMatcherINS_6ArcTplINS_17TropicalWeightTplIfEEEEE4CopyEb
  1231: 0000000000542d80  1230 FUNC    WEAK   DEFAULT   12 _ZNSt6vectorIPvSaIS0_EE14_M_fill_insertEN9__gnu_cxx17__normal_iteratorIPS0_S2_EEmRKS0_
  1232: 0000000000805e40    24 OBJECT  WEAK   DEFAULT   21 _ZTIN3fst10RandGenFstINS_6ArcTplINS_23CompactLatticeWeightTplINS_16LatticeWeightTplIfEEiEEEES6_NS_10ArcSamplerIS6_NS_18UniformArcSelectorIS6_EEEEEE
  1233: 00000000002f6390  2482 FUNC    GLOBAL DEFAULT   12 _ZN5ModelD1Ev
  1234: 00000000006127b0   365 FUNC    WEAK   DEFAULT   12 _ZNSt10_HashtableIN5kaldi5nnet315NnetComputation13SubMatrixInfoESt4pairIKS3_iESaIS6_ENSt8__detail10_Select1stESt8equal_toIS3_ENS1_21ComputationRenumberer15SubMatrixHasherENS8_18_Mod_range_hashingENS8_20_Default_ranged_hashENS8_20_Prime_rehash_policyENS8_17_Hashtable_traitsILb0ELb0ELb1EEEE9_M_rehashEmRKm
  1235: 00000000006251b0     5 FUNC    WEAK   DEFAULT   12 _ZN5kaldi12CuMatrixBaseIfE10MulRowsVecERKNS_12CuVectorBaseIfEE
  1236: 00000000002867c0    64 FUNC    WEAK   DEFAULT   12 _ZNSt10unique_ptrIN3fst7MatcherINS0_3FstINS0_6ArcTplINS0_16LatticeWeightTplIfEEEEEEEESt14default_deleteIS8_EED2Ev
  1237: 00000000007fe498    16 OBJECT  WEAK   DEFAULT   21 _ZTIN3fst3FstINS_10ReverseArcINS_6ArcTplINS_23CompactLatticeWeightTplINS_16LatticeWeightTplIfEEiEEEEEEEE
  1238: 00000000007fdd10    24 OBJECT  WEAK   DEFAULT   21 _ZTIN3fst8internal17VectorFstBaseImplINS_11VectorStateINS_6ArcTplINS_16LatticeWeightTplIfEEEESaIS6_EEEEE
  1239: 0000000000565990    94 FUNC    GLOBAL DEFAULT   12 _ZNK5kaldi5nnet34Nnet20IsComponentInputNodeEi
  1240: 000000000044df30   199 FUNC    GLOBAL DEFAULT   12 _ZN5kaldi11ComputeNccfERKNS_10VectorBaseIfEES3_fPS1_
  1241: 000000000055fa90     1 FUNC    WEAK   DEFAULT   12 _ZN5kaldi5nnet320DropoutMaskComponentD1Ev
  1242: 0000000000694f60   452 FUNC    WEAK   DEFAULT   12 _ZN5kaldi8SpMatrixIfE7AddVec2IdEEvfRKNS_10VectorBaseIT_EE
  1243: 0000000000621c40   352 FUNC    WEAK   DEFAULT   12 _ZN5kaldi8CuMatrixIdEC1IfEERKNS_12CuMatrixBaseIT_EENS_19MatrixTransposeTypeE
  1244: 0000000000422500   747 FUNC    GLOBAL DEFAULT   12 _ZN5kaldi21IvectorExtractorStats10FlushCacheEv
  1245: 000000000036ae90    18 FUNC    WEAK   DEFAULT   12 _ZNK5kaldi23LatticeFasterDecoderTplIN3fst13GrammarFstTplIKNS1_8ConstFstINS1_6ArcTplINS1_17TropicalWeightTplIfEEEEjEEEENS_7decoder8StdTokenEE16NumFramesDecodedEv
  1246: 000000000071c760    41 OBJECT  WEAK   DEFAULT   14 _ZTSN3fst8internal15MemoryArenaImplILm136EEE
  1247: 00000000003855c0    99 FUNC    WEAK   DEFAULT   12 _ZNK5kaldi23LatticeFasterDecoderTplIN3fst3FstINS1_6ArcTplINS1_17TropicalWeightTplIfEEEEEENS_7decoder8StdTokenEE17FinalRelativeCostEv
  1248: 00000000005a8a80    30 FUNC    GLOBAL DEFAULT   12 _ZN5kaldi5nnet323UpdateNnetWithMaxChangeERKNS0_4NnetEfffPS1_PNS0_14MaxChangeStatsE
  1249: 000000000029b3d0   193 FUNC    WEAK   DEFAULT   12 _ZN3fst8internal7FstImplINS_6ArcTplINS_17TropicalWeightTplIfEEEEE16UpdatePropertiesEmm
  1250: 0000000000726f40   121 OBJECT  WEAK   DEFAULT   14 _ZTSN3fst10MemoryPoolINS_13PoolAllocatorINS_6ArcTplINS_23CompactLatticeWeightTplINS_16LatticeWeightTplIfEEiEEEEE2TNILi8EEEEE
  1251: 0000000000654450   382 FUNC    WEAK   DEFAULT   12 _ZN5kaldi6MatrixIdEC1ERKS1_
  1252: 00000000003d66d0   916 FUNC    WEAK   DEFAULT   12 _ZN5kaldi28LatticeIncrementalDecoderTplIN3fst8ConstFstINS1_6ArcTplINS1_17TropicalWeightTplIfEEEEjEENS_7decoder16BackpointerTokenEE17PruneForwardLinksEiPbSB_f
  1253: 00000000002ddfa0   985 FUNC    WEAK   DEFAULT   12 _ZN3fst8internal14ComposeFstImplINS_17DefaultCacheStoreINS_6ArcTplINS_16LatticeWeightTplIfEEEEEENS_17NullComposeFilterINS_7MatcherINS_3FstIS6_EEEESC_EENS_24GenericComposeStateTableIS6_NS_18TrivialFilterStateENS_24DefaultComposeStateTupleIiSF_EENS_21CompactHashStateTableISH_NS_11ComposeHashISH_EEEEEEE8MatchArcISC_EEviPT_RKS6_b
  1254: 0000000000261790    37 FUNC    WEAK   DEFAULT   12 _ZN3fst11SymbolTableD2Ev
  1255: 00000000003b05b0     1 FUNC    WEAK   DEFAULT   12 _ZN3fst18MutableArcIteratorINS_9VectorFstINS_10ReverseArcINS_6ArcTplINS_16LatticeWeightTplIfEEEEEENS_11VectorStateIS7_SaIS7_EEEEEE8SetFlagsEjj
  1256: 0000000000621280   574 FUNC    WEAK   DEFAULT   12 _ZN5kaldi8CuMatrixIdEC1IfEERKNS_10MatrixBaseIT_EENS_19MatrixTransposeTypeE
  1257: 00000000005afad0   171 FUNC    WEAK   DEFAULT   12 _ZNSt6vectorIN5kaldi5nnet310SvdApplier21ModifiedComponentInfoESaIS3_EED2Ev
  1258: 0000000000258020    10 FUNC    WEAK   DEFAULT   12 _ZNSt23_Sp_counted_ptr_inplaceIN3fst8internal14ComposeFstImplINS0_17DefaultCacheStoreINS0_6ArcTplINS0_16LatticeWeightTplIfEEEEEENS0_18MatchComposeFilterINS0_7MatcherINS0_3FstIS7_EEEESD_EENS0_24GenericComposeStateTableIS7_NS0_18IntegerFilterStateIaEENS0_24DefaultComposeStateTupleIiSH_EENS0_21CompactHashStateTableISJ_NS0_11ComposeHashISJ_EEEEEEEESaIvELN9__gnu_cxx12_Lock_policyE2EE10_M_destroyEv
  1259: 00000000003e4b80   115 FUNC    WEAK   DEFAULT   12 _ZN5kaldi28LatticeIncrementalDecoderTplIN3fst8ConstFstINS1_6ArcTplINS1_17TropicalWeightTplIfEEEEjEENS_7decoder8StdTokenEE18PossiblyResizeHashEm
  1260: 000000000027e180   506 FUNC    WEAK   DEFAULT   12 _ZNSt6vectorIN3fst23CompactLatticeWeightTplINS0_16LatticeWeightTplIfEEiEESaIS4_EE14_M_fill_assignEmRKS4_
  1261: 00000000007fdd28    24 OBJECT  WEAK   DEFAULT   21 _ZTIN3fst8internal13VectorFstImplINS_11VectorStateINS_6ArcTplINS_16LatticeWeightTplIfEEEESaIS6_EEEEE
  1262: 0000000000805780    80 OBJECT  WEAK   DEFAULT   21 _ZTVN5kaldi18OnlineSpliceFramesE
  1263: 00000000002645b0   451 FUNC    WEAK   DEFAULT   12 _ZN3fst8internal13VectorFstImplINS_11VectorStateINS_6ArcTplINS_23CompactLatticeWeightTplINS_16LatticeWeightTplIfEEiEEEESaIS8_EEEED0Ev
  1264: 0000000000590630   962 FUNC    GLOBAL DEFAULT   12 _ZNK5kaldi5nnet325ConstantFunctionComponent4InfoB5cxx11Ev
  1265: 0000000000442b70   399 FUNC    WEAK   DEFAULT   12 _ZNSt6vectorISt4pairIfS0_IttEESaIS2_EE17_M_realloc_insertIJS2_EEEvN9__gnu_cxx17__normal_iteratorIPS2_S4_EEDpOT_
  1266: 0000000000253b60     1 FUNC    WEAK   DEFAULT   12 _ZN3fst18MutableArcIteratorINS_9VectorFstINS_10ReverseArcINS_6ArcTplINS_16LatticeWeightTplIfEEEEEENS_11VectorStateIS7_SaIS7_EEEEEED1Ev
  1267: 00000000006789f0   250 FUNC    WEAK   DEFAULT   12 _ZN5kaldi10VectorBaseIdE13AddDiagMatMatEdRKNS_10MatrixBaseIdEENS_19MatrixTransposeTypeES5_S6_d
  1268: 000000000044c870    89 FUNC    WEAK   DEFAULT   12 _ZNSt6vectorISt4pairIiN5kaldi6MatrixIdEEESaIS4_EED2Ev
  1269: 0000000000301f90    80 FUNC    WEAK   DEFAULT   12 _ZN3fst8NGramFstINS_6ArcTplINS_17TropicalWeightTplIfEEEEED1Ev
  1270: 0000000000804d48    24 OBJECT  WEAK   DEFAULT   21 _ZTIN3fst10MemoryPoolIN5kaldi7decoder11ForwardLinkINS2_16BackpointerTokenEEEEE
  1271: 0000000000294be0   245 FUNC    WEAK   DEFAULT   12 _ZN3fst8internal14ComposeFstImplINS_17DefaultCacheStoreINS_6ArcTplINS_17TropicalWeightTplIfEEEEEENS_21SequenceComposeFilterINS_7MatcherINS_3FstIS6_EEEESC_EENS_24GenericComposeStateTableIS6_NS_18IntegerFilterStateIaEENS_24DefaultComposeStateTupleIiSG_EENS_21CompactHashStateTableISI_NS_11ComposeHashISI_EEEEEEED1Ev
  1272: 0000000000801478    48 OBJECT  WEAK   DEFAULT   21 _ZTVN3fst8internal7FstImplINS_10ReverseArcINS_6ArcTplINS_23CompactLatticeWeightTplINS_16LatticeWeightTplIfEEiEEEEEEEE
  1273: 0000000000805fa0    24 OBJECT  WEAK   DEFAULT   21 _ZTIN3fst8internal14MemoryPoolImplILm96EEE
  1274: 0000000000471620  5475 FUNC    WEAK   DEFAULT   12 _ZN3fst25LatticeDeterminizerPrunedINS_16LatticeWeightTplIfEEiE11DeterminizeEPd
  1275: 000000000055d870  2329 FUNC    GLOBAL DEFAULT   12 _ZNK5kaldi5nnet329StatisticsExtractionComponent17PrecomputeIndexesERKNS0_19MiscComputationInfoERKSt6vectorINS0_5IndexESaIS6_EESA_b
  1276: 000000000059f320    13 FUNC    GLOBAL DEFAULT   12 _ZNK5kaldi5nnet313TdnnComponent13NumParametersEv
  1277: 0000000000659fa0   129 FUNC    WEAK   DEFAULT   12 _ZN5kaldi10MatrixBaseIdE18ApplySoftMaxPerRowEv
  1278: 0000000000804d30    24 OBJECT  WEAK   DEFAULT   21 _ZTIN3fst10MemoryPoolIN5kaldi7decoder16BackpointerTokenEEE
  1279: 00000000002fbc50    10 FUNC    WEAK   DEFAULT   12 _ZNK3fst9ImplToFstINS_8internal12ConstFstImplINS_6ArcTplINS_17TropicalWeightTplIfEEEEjEENS_11ExpandedFstIS6_EEE5StartEv
  1280: 00000000005c35a0   701 FUNC    GLOBAL DEFAULT   12 _ZNK5kaldi5nnet318ComputationChecker23CheckComputationRewriteEv
  1281: 000000000033b810   418 FUNC    WEAK   DEFAULT   12 _ZN3fst16ImplToMutableFstINS_8internal13VectorFstImplINS_11VectorStateINS_10ReverseArcINS_6ArcTplINS_17TropicalWeightTplIfEEEEEESaIS9_EEEEENS_10MutableFstIS9_EEE16SetOutputSymbolsEPKNS_11SymbolTableE
  1282: 0000000000648450    19 FUNC    WEAK   DEFAULT   12 _ZN5kaldi6MatrixIfED2Ev
  1283: 00000000007fda90    16 OBJECT  WEAK   DEFAULT   21 _ZTIN3fst15MemoryArenaBaseE
  1284: 00000000005dd2a0   117 FUNC    GLOBAL DEFAULT   12 _ZNK5kaldi5nnet318CindexVectorHasherclERKSt6vectorISt4pairIiNS0_5IndexEESaIS5_EE
  1285: 0000000000676340     9 FUNC    WEAK   DEFAULT   12 _ZNK5kaldi10VectorBaseIdE11SizeInBytesEv
  1286: 0000000000601420   819 FUNC    GLOBAL DEFAULT   12 _ZN5kaldi5nnet321ComputationRenumberer13RenumberMemosEv
  1287: 00000000003d93b0   135 FUNC    WEAK   DEFAULT   12 _ZNSt10_HashtableIPN5kaldi7decoder8StdTokenESt4pairIKS3_lESaIS6_ENSt8__detail10_Select1stESt8equal_toIS3_ESt4hashIS3_ENS8_18_Mod_range_hashingENS8_20_Default_ranged_hashENS8_20_Prime_rehash_policyENS8_17_Hashtable_traitsILb0ELb0ELb1EEEED1Ev
  1288: 00000000008076d8    24 OBJECT  WEAK   DEFAULT   21 _ZTIN5kaldi5nnet315RandomComponentE
  1289: 00000000005f3f20  3168 FUNC    GLOBAL DEFAULT   12 _ZNK5kaldi5nnet317UtteranceSplitter10InitSplitsEPSt6vectorIS2_IiSaIiEESaIS4_EE
  1290: 00000000006ad470   953 FUNC    WEAK   DEFAULT   12 _ZN5kaldi12SparseVectorIfEC2EiRKSt6vectorISt4pairIifESaIS4_EE
  1291: 0000000000324b10     1 FUNC    WEAK   DEFAULT   12 _ZN3fst18ShortestFirstQueueIiNS_8internal18StateWeightCompareIiNS_11NaturalLessINS_17TropicalWeightTplIfEEEEEELb0EE6UpdateEi
  1292: 0000000000251590     6 FUNC    WEAK   DEFAULT   12 _ZNK3fst8internal14MemoryPoolImplILm80EE4SizeEv
  1293: 000000000066fe80   277 FUNC    WEAK   DEFAULT   12 _ZN5kaldi10VectorBaseIfE15CopyRowsFromMatIdEEvRKNS_10MatrixBaseIT_EE
  1294: 000000000037c7e0   149 FUNC    WEAK   DEFAULT   12 _ZN3fst8internal15MemoryArenaImplILm32EEC2Em
  1295: 0000000000627550   139 FUNC    WEAK   DEFAULT   12 _ZN5kaldi12CuMatrixBaseIdE13SoftMaxPerRowERKS1_
  1296: 000000000057c860   548 FUNC    WEAK   DEFAULT   12 _ZNSt8__detail9_Map_baseISt4pairIiiES1_IKS2_S1_ISt6vectorIiSaIiEES6_EESaIS8_ENS_10_Select1stESt8equal_toIS2_EN5kaldi10PairHasherIiiEENS_18_Mod_range_hashingENS_20_Default_ranged_hashENS_20_Prime_rehash_policyENS_17_Hashtable_traitsILb0ELb0ELb1EEELb1EEixERS3_
  1297: 0000000000630400   268 FUNC    WEAK   DEFAULT   12 _ZN5kaldi8CuVectorIfEaSERKNS_12CuVectorBaseIfEE
  1298: 000000000041ffc0   101 FUNC    GLOBAL DEFAULT   12 _ZN5kaldi30IvectorExtractorUtteranceStats5ScaleEd
  1299: 0000000000672f00   355 FUNC    WEAK   DEFAULT   12 _ZN5kaldi10VectorBaseIfE8SetRandnEv
  1300: 00000000006156d0  1077 FUNC    GLOBAL DEFAULT   12 _ZN5kaldi5nnet311NnetTrainerD2Ev
  1301: 000000000052d4b0   467 FUNC    WEAK   DEFAULT   12 _ZNSt6vectorIN5kaldi5nnet323ComputationGraphBuilder10CindexInfoESaIS3_EE17_M_realloc_insertIJS3_EEEvN9__gnu_cxx17__normal_iteratorIPS3_S5_EEDpOT_
  1302: 0000000000802560    40 OBJECT  WEAK   DEFAULT   21 _ZTVN3fst8internal14MemoryPoolImplILm1024EEE
  1303: 00000000003a4b20   272 FUNC    WEAK   DEFAULT   12 _ZNK5kaldi23LatticeFasterDecoderTplIN3fst13GrammarFstTplIKNS1_8ConstFstINS1_6ArcTplINS1_17TropicalWeightTplIfEEEEjEEEENS_7decoder16BackpointerTokenEE11GetBestPathEPNS1_9VectorFstINS4_INS1_16LatticeWeightTplIfEEEENS1_11VectorStateISH_SaISH_EEEEEb
  1304: 0000000000802b40    24 OBJECT  WEAK   DEFAULT   21 _ZTISt15_Sp_counted_ptrIPN3fst9AddOnPairINS0_18LabelReachableDataIiEES3_EELN9__gnu_cxx12_Lock_policyE2EE
  1305: 000000000059f3d0   266 FUNC    GLOBAL DEFAULT   12 _ZN5kaldi5nnet313TdnnComponent13PerturbParamsEf
  1306: 000000000025e2b0   117 FUNC    WEAK   DEFAULT   12 _ZN3fst10MemoryPoolINS_8internal8DfsStateINS_3FstINS_10ReverseArcINS_6ArcTplINS_23CompactLatticeWeightTplINS_16LatticeWeightTplIfEEiEEEEEEEEEEED1Ev
  1307: 00000000003e6660   652 FUNC    WEAK   DEFAULT   12 _ZN5kaldi28LatticeIncrementalDecoderTplIN3fst9VectorFstINS1_6ArcTplINS1_17TropicalWeightTplIfEEEENS1_11VectorStateIS6_SaIS6_EEEEENS_7decoder16BackpointerTokenEEC1ERKNS_31LatticeIncrementalDecoderConfigEPSA_RKNS_21TransitionInformationE
  1308: 000000000071c680    40 OBJECT  WEAK   DEFAULT   14 _ZTSN3fst8internal15MemoryArenaImplILm72EEE
  1309: 00000000005658a0    27 FUNC    GLOBAL DEFAULT   12 _ZNK5kaldi5nnet34Nnet11IsInputNodeEi
  1310: 000000000055fd50    18 FUNC    WEAK   DEFAULT   12 _ZNK5kaldi5nnet320DropoutMaskComponent15GetInputIndexesERKNS0_19MiscComputationInfoERKNS0_5IndexEPSt6vectorIS5_SaIS5_EE
  1311: 00000000004533f0   405 FUNC    WEAK   DEFAULT   12 _ZNSt6vectorIfSaIfEE17_M_realloc_insertIJfEEEvN9__gnu_cxx17__normal_iteratorIPfS1_EEDpOT_
  1312: 00000000002838b0  3538 FUNC    WEAK   DEFAULT   12 _ZN3fst19LatticeDeterminizerINS_16LatticeWeightTplIfEEiE11DeterminizeEPb
  1313: 00000000004b7600   618 FUNC    WEAK   DEFAULT   12 _ZNSt5dequeIPN3fst8internal8DfsStateINS0_10MutableFstINS0_6ArcTplINS0_23CompactLatticeWeightTplINS0_16LatticeWeightTplIfEEiEEEEEEEESaISC_EE16_M_push_back_auxIJSC_EEEvDpOT_
  1314: 000000000040e050   124 FUNC    GLOBAL DEFAULT   12 _ZN3fst20PrepareForGrammarFstEiPNS_9VectorFstINS_6ArcTplINS_17TropicalWeightTplIfEEEENS_11VectorStateIS4_SaIS4_EEEEE
  1315: 0000000000467f90   349 FUNC    WEAK   DEFAULT   12 _ZNSt10_HashtableIPKSt6vectorIN3fst25LatticeDeterminizerPrunedINS1_16LatticeWeightTplIfEEiE7ElementESaIS6_EESt4pairIKSA_S6_ESaISD_ENSt8__detail10_Select1stENS5_11SubsetEqualENS5_9SubsetKeyENSF_18_Mod_range_hashingENSF_20_Default_ranged_hashENSF_20_Prime_rehash_policyENSF_17_Hashtable_traitsILb1ELb0ELb1EEEE4findERSC_
  1316: 00000000004b2170   242 FUNC    WEAK   DEFAULT   12 _ZN3fst17ComposeFstMatcherINS_17DefaultCacheStoreINS_6ArcTplINS_23CompactLatticeWeightTplINS_16LatticeWeightTplIfEEiEEEEEENS_21SequenceComposeFilterINS_7MatcherINS_3FstIS7_EEEESD_EENS_24GenericComposeStateTableIS7_NS_18IntegerFilterStateIaEENS_24DefaultComposeStateTupleIiSH_EENS_21CompactHashStateTableISJ_NS_11ComposeHashISJ_EEEEEEE8PriorityEi
  1317: 0000000000631bb0    15 FUNC    WEAK   DEFAULT   12 _ZNK5kaldi13CuBlockMatrixIfE9NumBlocksEv
  1318: 000000000061cf70   462 FUNC    WEAK   DEFAULT   12 _ZN5kaldi2cu13EnsureNonzeroIfEEvRKNS_12CuVectorBaseIT_EES3_PS4_
  1319: 00000000003421a0  1168 FUNC    WEAK   DEFAULT   12 _ZNK3fst8internal14ComposeFstImplINS_17DefaultCacheStoreINS_6ArcTplINS_17TropicalWeightTplIfEEEEEENS_18MatchComposeFilterINS_7MatcherINS_3FstIS6_EEEESC_EENS_24GenericComposeStateTableIS6_NS_18IntegerFilterStateIaEENS_24DefaultComposeStateTupleIiSG_EENS_21CompactHashStateTableISI_NS_11ComposeHashISI_EEEEEEE4CopyEv
  1320: 0000000000251580     6 FUNC    WEAK   DEFAULT   12 _ZNK3fst8internal14MemoryPoolImplILm160EE4SizeEv
  1321: 0000000000632d20    89 FUNC    WEAK   DEFAULT   12 _ZN5kaldi13CuBlockMatrixIdE5BlockEi
  1322: 0000000000717240   143 OBJECT  WEAK   DEFAULT   14 _ZTSN3fst16ImplToMutableFstINS_8internal13VectorFstImplINS_11VectorStateINS_6ArcTplINS_17TropicalWeightTplIfEEEESaIS7_EEEEENS_10MutableFstIS7_EEEE
  1323: 0000000000728cf0    23 OBJECT  WEAK   DEFAULT   14 _ZTSN5kaldi12ParseOptionsE
  1324: 0000000000621aa0    57 FUNC    WEAK   DEFAULT   12 _ZN5kaldi6MatrixIdE4SwapEPNS_8CuMatrixIdEE
  1325: 0000000000631220   592 FUNC    WEAK   DEFAULT   12 _ZNK5kaldi12CuVectorBaseIfE11ApproxEqualERKS1_f
  1326: 000000000062f6c0     5 FUNC    WEAK   DEFAULT   12 _ZN5kaldi12CuVectorBaseIfE5FloorERKS1_fPi
  1327: 0000000000563b70  1071 FUNC    GLOBAL DEFAULT   12 _ZN5kaldi5nnet319ComputeTopSortOrderERKSt6vectorIS1_IiSaIiEESaIS3_EEPS3_
  1328: 00000000006b8600   109 FUNC    GLOBAL DEFAULT   12 _ZN5kaldi6OutputD1Ev
  1329: 00000000002b1a20   328 FUNC    WEAK   DEFAULT   12 _ZN3fst15MultiEpsMatcherINS_16LookAheadMatcherINS_3FstINS_6ArcTplINS_17TropicalWeightTplIfEEEEEEEEE4FindEi
  1330: 000000000054b3c0    10 FUNC    GLOBAL DEFAULT   12 _ZNK5kaldi5nnet332ReplaceIndexForwardingDescriptor19GetNodeDependenciesEPSt6vectorIiSaIiEE
  1331: 000000000065ef20     1 FUNC    WEAK   DEFAULT   12 _ZN5kaldi9SubMatrixIfED1Ev
  1332: 000000000025e6b0   117 FUNC    WEAK   DEFAULT   12 _ZN3fst10MemoryPoolINS_11ArcIteratorINS_3FstINS_6ArcTplINS_16LatticeWeightTplIfEEEEEEEEED1Ev
  1333: 0000000000698b90    40 FUNC    WEAK   DEFAULT   12 _ZN5kaldi14TraceSpSpLowerIfEET_RKNS_8SpMatrixIS1_EES5_
  1334: 0000000000253b10     1 FUNC    WEAK   DEFAULT   12 _ZN3fst18MutableArcIteratorINS_9VectorFstINS_10ReverseArcINS_6ArcTplINS_23CompactLatticeWeightTplINS_16LatticeWeightTplIfEEiEEEEEENS_11VectorStateIS9_SaIS9_EEEEEED1Ev
  1335: 00000000006bd960  3181 FUNC    GLOBAL DEFAULT   12 _ZN5kaldi18ClassifyWspecifierERKNSt7__cxx1112basic_stringIcSt11char_traitsIcESaIcEEEPS5_S8_PNS_17WspecifierOptionsE
  1336: 000000000033b9c0   386 FUNC    WEAK   DEFAULT   12 _ZN3fst16ImplToMutableFstINS_8internal13VectorFstImplINS_11VectorStateINS_10ReverseArcINS_6ArcTplINS_17TropicalWeightTplIfEEEEEESaIS9_EEEEENS_10MutableFstIS9_EEE8SetFinalEiS7_
  1337: 0000000000446740   191 FUNC    GLOBAL DEFAULT   12 _ZN5kaldi16SlidingWindowCmnERKNS_23SlidingWindowCmnOptionsERKNS_10MatrixBaseIfEEPS4_
  1338: 00000000004c6c00   632 FUNC    WEAK   DEFAULT   12 _ZN3fst10ComposeFstINS_6ArcTplINS_23CompactLatticeWeightTplINS_16LatticeWeightTplIfEEiEEEENS_17DefaultCacheStoreIS6_EEE11CreateBase2INS_16LookAheadMatcherINS_3FstIS6_EEEESE_NS_22LookAheadComposeFilterINS_21SequenceComposeFilterISE_SE_EESE_SE_LNS_9MatchTypeE3EEENS_24GenericComposeStateTableIS6_NS_18IntegerFilterStateIaEENS_24DefaultComposeStateTupleIiSM_EENS_21CompactHashStateTableISO_NS_11ComposeHashISO_EEEEEEEESt10shared_ptrINS_8internal18ComposeFstImplBaseIS6_S8_S9_EEERKNT_3FSTERKNT0_3FSTERKNS_21ComposeFstImplOptionsISZ_S13_T1_T2_S8_EE
  1339: 000000000057ee90  2912 FUNC    GLOBAL DEFAULT   12 _ZN5kaldi5nnet315SummarizeVectorB5cxx11ERKNS_10VectorBaseIfEE
  1340: 0000000000719940   305 OBJECT  WEAK   DEFAULT   14 _ZTSN3fst8internal14ComposeFstImplINS_17DefaultCacheStoreINS_6ArcTplINS_16LatticeWeightTplIfEEEEEENS_18MatchComposeFilterINS_7MatcherINS_3FstIS6_EEEESC_EENS_24GenericComposeStateTableIS6_NS_18IntegerFilterStateIaEENS_24DefaultComposeStateTupleIiSG_EENS_21CompactHashStateTableISI_NS_11ComposeHashISI_EEEEEEEE
  1341: 0000000000459f50  2600 FUNC    GLOBAL DEFAULT   12 _ZN5kaldi8MelBanksC1ERKNS_15MelBanksOptionsERKNS_22FrameExtractionOptionsEf
  1342: 00000000002951d0   303 FUNC    WEAK   DEFAULT   12 _ZNSt23_Sp_counted_ptr_inplaceIN3fst8internal14ComposeFstImplINS0_17DefaultCacheStoreINS0_6ArcTplINS0_17TropicalWeightTplIfEEEEEENS0_21SequenceComposeFilterINS0_7MatcherINS0_3FstIS7_EEEESD_EENS0_24GenericComposeStateTableIS7_NS0_18IntegerFilterStateIaEENS0_24DefaultComposeStateTupleIiSH_EENS0_21CompactHashStateTableISJ_NS0_11ComposeHashISJ_EEEEEEEESaIvELN9__gnu_cxx12_Lock_policyE2EE10_M_disposeEv
  1343: 00000000006e5a70   158 FUNC    WEAK   DEFAULT   12 _ZN12FlagRegisterIiE11GetRegisterEv
  1344: 0000000000258030    10 FUNC    WEAK   DEFAULT   12 _ZNSt23_Sp_counted_ptr_inplaceIN3fst8internal14ComposeFstImplINS0_17DefaultCacheStoreINS0_6ArcTplINS0_16LatticeWeightTplIfEEEEEENS0_24AltSequenceComposeFilterINS0_7MatcherINS0_3FstIS7_EEEESD_EENS0_24GenericComposeStateTableIS7_NS0_18IntegerFilterStateIaEENS0_24DefaultComposeStateTupleIiSH_EENS0_21CompactHashStateTableISJ_NS0_11ComposeHashISJ_EEEEEEEESaIvELN9__gnu_cxx12_Lock_policyE2EE10_M_destroyEv
  1345: 0000000000253e30     6 FUNC    WEAK   DEFAULT   12 _ZNK3fst18MutableArcIteratorINS_9VectorFstINS_6ArcTplINS_23CompactLatticeWeightTplINS_16LatticeWeightTplIfEEiEEEENS_11VectorStateIS7_SaIS7_EEEEEE5FlagsEv
  1346: 000000000051d4b0    98 FUNC    GLOBAL DEFAULT   12 _ZNK5kaldi5nnet39Component15GetInputIndexesERKNS0_19MiscComputationInfoERKNS0_5IndexEPSt6vectorIS5_SaIS5_EE
  1347: 00000000005e5cd0   754 FUNC    GLOBAL DEFAULT   12 _ZN5kaldi5nnet315NnetComputeProbD1Ev
  1348: 0000000000256880   121 FUNC    WEAK   DEFAULT   12 _ZN3fst31ComposeDeterministicOnDemandFstINS_6ArcTplINS_17TropicalWeightTplIfEEEEE5FinalEi
  1349: 0000000000303d30  1391 FUNC    WEAK   DEFAULT   12 _ZN3fst3FstINS_6ArcTplINS_17TropicalWeightTplIfEEEEE4ReadERSiRKNS_14FstReadOptionsE
  1350: 0000000000439bc0    98 FUNC    GLOBAL DEFAULT   12 _ZN5kaldi13DiagGmmNormal15CopyFromDiagGmmERKNS_7DiagGmmE
  1351: 00000000002ceb90   665 FUNC    WEAK   DEFAULT   12 _ZN3fst9RmEpsilonINS_6ArcTplINS_23CompactLatticeWeightTplINS_16LatticeWeightTplIfEEiEEEEEEvPNS_10MutableFstIT_EEbNS8_6WeightENS8_7StateIdEf
  1352: 00000000004a3880   123 FUNC    WEAK   DEFAULT   12 _ZN3fst13PoolAllocatorINS_10ReverseArcINS_6ArcTplINS_17TropicalWeightTplIfEEEEEEED2Ev
  1353: 00000000002794e0   228 FUNC    WEAK   DEFAULT   12 _ZN3fst16LookAheadMatcherINS_3FstINS_6ArcTplINS_16LatticeWeightTplIfEEEEEEEC1ERKS6_NS_9MatchTypeE
  1354: 0000000000386270  1307 FUNC    WEAK   DEFAULT   12 _ZN5kaldi23LatticeFasterDecoderTplIN3fst9VectorFstINS1_6ArcTplINS1_17TropicalWeightTplIfEEEENS1_11VectorStateIS6_SaIS6_EEEEENS_7decoder8StdTokenEE22PruneForwardLinksFinalEv
  1355: 0000000000411ce0   666 FUNC    WEAK   DEFAULT   12 _ZN3fst13GrammarFstTplIKNS_8ConstFstINS_6ArcTplINS_17TropicalWeightTplIfEEEEjEEE13InitInstancesEv
  1356: 000000000051a360  4698 FUNC    GLOBAL DEFAULT   12 _ZN5kaldi5nnet39Component18NewComponentOfTypeERKNSt7__cxx1112basic_stringIcSt11char_traitsIcESaIcEEE
  1357: 00000000006486e0    43 FUNC    WEAK   DEFAULT   12 _ZN5kaldi6MatrixIdE7DestroyEv
  1358: 0000000000634900   896 FUNC    WEAK   DEFAULT   12 _ZN5kaldi13CuBlockMatrixIdE4ReadERSib
  1359: 0000000000275760  8020 FUNC    WEAK   DEFAULT   12 _ZN3fst9AutoQueueIiEC1INS_6ArcTplINS_16LatticeWeightTplIfEEEENS_12AnyArcFilterIS6_EEEERKNS_3FstIT_EEPKSt6vectorINSA_6WeightESaISF_EET0_
  1360: 0000000000724e10    29 OBJECT  WEAK   DEFAULT   14 _ZTSN5kaldi18OnlineCacheFeatureE
  1361: 000000000071a120   528 OBJECT  WEAK   DEFAULT   14 _ZTSN3fst8internal14ComposeFstImplINS_17DefaultCacheStoreINS_6ArcTplINS_17TropicalWeightTplIfEEEEEENS_23PushLabelsComposeFilterINS_24PushWeightsComposeFilterINS_22LookAheadComposeFilterINS_24AltSequenceComposeFilterINS_16LookAheadMatcherINS_3FstIS6_EEEESF_EESF_SF_LNS_9MatchTypeE3EEESF_SF_LSH_3EEESF_SF_LSH_3EEENS_24GenericComposeStateTableIS6_NS_15PairFilterStateINSM_INS_18IntegerFilterStateIaEENS_17WeightFilterStateIS5_EEEENSN_IiEEEENS_24DefaultComposeStateTupleIiST_EENS_21CompactHashStateTableISV_NS_11ComposeHashISV_EEEEEEEE
  1362: 00000000006b31b0    37 FUNC    WEAK   DEFAULT   12 _ZN5kaldi17SplitRadixRealFftIdEC2Ei
  1363: 0000000000353110    39 FUNC    WEAK   DEFAULT   12 _ZNSt6vectorISt4pairIifESaIS1_EED1Ev
  1364: 000000000040ed60   305 FUNC    WEAK   DEFAULT   12 _ZN3fst13GrammarFstTplIKNS_8ConstFstINS_6ArcTplINS_17TropicalWeightTplIfEEEEjEEE12DecodeSymbolEiPiS9_
  1365: 000000000025ee30   117 FUNC    WEAK   DEFAULT   12 _ZN3fst10MemoryPoolINS_13PoolAllocatorINS_10ReverseArcINS_6ArcTplINS_16LatticeWeightTplIfEEEEEEE2TNILi16EEEED2Ev
  1366: 000000000064e600   196 FUNC    WEAK   DEFAULT   12 _ZNK5kaldi10MatrixBaseIfE6IsUnitEf
  1367: 00000000002b2c00   234 FUNC    WEAK   DEFAULT   12 _ZN3fst6ArcTplINS_23CompactLatticeWeightTplINS_16LatticeWeightTplIfEEiEEE4TypeB5cxx11Ev
  1368: 00000000006cfb90   375 FUNC    WEAK   DEFAULT   12 _ZNSt8_Rb_treeINSt7__cxx1112basic_stringIcSt11char_traitsIcESaIcEEESt4pairIKS5_PdESt10_Select1stIS9_ESt4lessIS5_ESaIS9_EE24_M_get_insert_unique_posERS7_
  1369: 000000000059f570   200 FUNC    GLOBAL DEFAULT   12 _ZN5kaldi5nnet313TdnnComponent17ConsolidateMemoryEv
  1370: 000000000060c8f0  1297 FUNC    GLOBAL DEFAULT   12 _ZN5kaldi5nnet326ComputationLoopedOptimizer17CreateMatrixPairsERKNS0_15NnetComputationEPSt6vectorISt4pairIiiESaIS7_EE
  1371: 000000000050e3c0   279 FUNC    GLOBAL DEFAULT   12 _ZN5kaldi5nnet38CompilerC1ERKNS0_18ComputationRequestERKNS0_4NnetE
  1372: 000000000051d6b0     6 FUNC    WEAK   DEFAULT   12 _ZNK5kaldi5nnet318NonlinearComponent9OutputDimEv
  1373: 0000000000657070    63 FUNC    WEAK   DEFAULT   12 _ZN5kaldi10MatrixBaseIdE15CopyDiagFromVecERKNS_10VectorBaseIdEE
  1374: 00000000005e5350  1357 FUNC    GLOBAL DEFAULT   12 _ZN5kaldi5nnet38GetTListERKSt6vectorINS0_5IndexESaIS2_EEPS1_IiSaIiEE
  1375: 0000000000255600    10 FUNC    WEAK   DEFAULT   12 _ZNSt23_Sp_counted_ptr_inplaceIN3fst8internal14ComposeFstImplINS0_17DefaultCacheStoreINS0_6ArcTplINS0_17TropicalWeightTplIfEEEEEENS0_23PushLabelsComposeFilterINS0_24PushWeightsComposeFilterINS0_22LookAheadComposeFilterINS0_24AltSequenceComposeFilterINS0_16LookAheadMatcherINS0_3FstIS7_EEEESG_EESG_SG_LNS0_9MatchTypeE3EEESG_SG_LSI_3EEESG_SG_LSI_3EEENS0_24GenericComposeStateTableIS7_NS0_15PairFilterStateINSN_INS0_18IntegerFilterStateIaEENS0_17WeightFilterStateIS6_EEEENSO_IiEEEENS0_24DefaultComposeStateTupleIiSU_EENS0_21CompactHashStateTableISW_NS0_11ComposeHashISW_EEEEEEEESaIvELN9__gnu_cxx12_Lock_policyE2EED0Ev
  1376: 00000000004b9ab0  4098 FUNC    WEAK   DEFAULT   12 _ZN3fst8internal21ShortestDistanceStateINS_6ArcTplINS_23CompactLatticeWeightTplINS_16LatticeWeightTplIfEEiEEEENS_9AutoQueueIiEENS_12AnyArcFilterIS7_EEE16ShortestDistanceEi
  1377: 0000000000291540   478 FUNC    WEAK   DEFAULT   12 _ZN3fst8internal13CacheBaseImplINS_10CacheStateINS_6ArcTplINS_16LatticeWeightTplIfEEEENS_13PoolAllocatorIS6_EEEENS_17DefaultCacheStoreIS6_EEEC1ERKNS_16CacheImplOptionsISB_EE
  1378: 00000000007fddc8    24 OBJECT  WEAK   DEFAULT   21 _ZTIN3fst9VectorFstINS_6ArcTplINS_16LatticeWeightTplIfEEEENS_11VectorStateIS4_SaIS4_EEEEE
  1379: 00000000007fe5c0    24 OBJECT  WEAK   DEFAULT   21 _ZTISt23_Sp_counted_ptr_inplaceIN3fst8internal13ArcMapFstImplINS0_6ArcTplINS0_17TropicalWeightTplIfEEEES6_NS0_28RemoveSomeInputSymbolsMapperIS6_iEEEESaIvELN9__gnu_cxx12_Lock_policyE2EE
  1380: 0000000000808a38   200 OBJECT  WEAK   DEFAULT   21 _ZTVN5kaldi5nnet324RectifiedLinearComponentE
  1381: 00000000006a3f10    75 FUNC    WEAK   DEFAULT   12 _ZN5kaldi12SparseVectorIdE5ScaleEd
  1382: 00000000003f00d0   347 FUNC    WEAK   DEFAULT   12 _ZN5kaldi28LatticeIncrementalDecoderTplIN3fst9VectorFstINS1_6ArcTplINS1_17TropicalWeightTplIfEEEENS1_11VectorStateIS6_SaIS6_EEEEENS_7decoder16BackpointerTokenEE14FindOrAddTokenEiifPSC_Pb
  1383: 0000000000545d60    19 FUNC    GLOBAL DEFAULT   12 _ZNK5kaldi5nnet330TimeHeightConvolutionComponent5CheckEv
  1384: 0000000000582e70    48 FUNC    GLOBAL DEFAULT   12 _ZNK5kaldi5nnet319FixedScaleComponent8BackpropERKNSt7__cxx1112basic_stringIcSt11char_traitsIcESaIcEEEPKNS0_27ComponentPrecomputedIndexesERKNS_12CuMatrixBaseIfEESG_SG_PvPNS0_9ComponentEPSE_
  1385: 00000000006f6550    45 FUNC    GLOBAL DEFAULT   12 _ZN3fst11CheckSummerC1Ev
  1386: 0000000000808440    24 OBJECT  WEAK   DEFAULT   21 _ZTIN5kaldi5nnet325PerElementOffsetComponentE
  1387: 0000000000609b00   405 FUNC    GLOBAL DEFAULT   12 _ZN5kaldi5nnet321ComputationRenumberer17CreateRenumberingERKSt6vectorIbSaIbEEPS2_IiSaIiEE
  1388: 00000000006283d0     5 FUNC    WEAK   DEFAULT   12 _ZN5kaldi12CuMatrixBaseIdE14InvertElementsEv
  1389: 0000000000260e40   286 FUNC    WEAK   DEFAULT   12 _ZNK3fst3FstINS_10ReverseArcINS_6ArcTplINS_23CompactLatticeWeightTplINS_16LatticeWeightTplIfEEiEEEEEEE5WriteERKNSt7__cxx1112basic_stringIcSt11char_traitsIcESaIcEEE
  1390: 000000000062f930     5 FUNC    WEAK   DEFAULT   12 _ZN5kaldi12CuVectorBaseIfE18CopyDiagFromPackedERKNS_14CuPackedMatrixIfEE
  1391: 0000000000340450   299 FUNC    WEAK   DEFAULT   12 _ZNK3fst9ImplToFstINS_8internal22DeterminizeFstImplBaseINS_10ReverseArcINS_6ArcTplINS_17TropicalWeightTplIfEEEEEEEENS_3FstIS8_EEE10PropertiesEmb
  1392: 0000000000727c20    37 OBJECT  WEAK   DEFAULT   14 _ZTSN5kaldi5nnet320DropoutMaskComponentE
  1393: 000000000025e3b0   117 FUNC    WEAK   DEFAULT   12 _ZN3fst10MemoryPoolINS_13PoolAllocatorIPNSt8__detail15_Hash_node_baseEE2TNILi2EEEED1Ev
  1394: 0000000000583220    79 FUNC    GLOBAL DEFAULT   12 _ZN5kaldi5nnet330NaturalGradientAffineComponent5ScaleEf
  1395: 00000000003d9d50   630 FUNC    WEAK   DEFAULT   12 _ZN5kaldi28LatticeIncrementalDecoderTplIN3fst13GrammarFstTplINS1_9VectorFstINS1_6ArcTplINS1_17TropicalWeightTplIfEEEENS1_11VectorStateIS7_SaIS7_EEEEEEENS_7decoder16BackpointerTokenEED2Ev
  1396: 000000000045d850  2600 FUNC    GLOBAL DEFAULT   12 _ZN5kaldi28PrunedCompactLatticeComposer17ProcessTransitionEii
  1397: 00000000006b2b60   414 FUNC    WEAK   DEFAULT   12 _ZN5kaldi20SplitRadixComplexFftIfEC2ERKS1_
  1398: 000000000026f3e0    67 FUNC    WEAK   DEFAULT   12 _ZN3fst10MemoryPoolINS_13PoolAllocatorINS_10CacheStateINS_6ArcTplINS_17TropicalWeightTplIfEEEENS1_IS6_EEEEE2TNILi1EEEED0Ev
  1399: 00000000003d2be0    48 FUNC    WEAK   DEFAULT   12 _ZN5kaldi28LatticeIncrementalDecoderTplIN3fst8ConstFstINS1_6ArcTplINS1_17TropicalWeightTplIfEEEEjEENS_7decoder16BackpointerTokenEE11DeleteElemsEPNS_8HashListIiPS9_E4ElemE
  1400: 000000000035b810    20 FUNC    WEAK   DEFAULT   12 _ZNK5kaldi41SingleUtteranceNnet3IncrementalDecoderTplIN3fst13GrammarFstTplIKNS1_8ConstFstINS1_6ArcTplINS1_17TropicalWeightTplIfEEEEjEEEEE11GetBestPathEbPNS1_9VectorFstINS4_INS1_16LatticeWeightTplIfEEEENS1_11VectorStateISF_SaISF_EEEEE
  1401: 000000000044ee20   419 FUNC    GLOBAL DEFAULT   12 _ZN5kaldi10SelectLagsERKNS_22PitchExtractionOptionsEPNS_6VectorIfEE
  1402: 00000000004e1330   274 FUNC    WEAK   DEFAULT   12 _ZN5kaldi27ConstArpaLmDeterministicFstD0Ev
  1403: 0000000000720d20   199 OBJECT  WEAK   DEFAULT   14 _ZTSN3fst21LabelLookAheadMatcherINS_13SortedMatcherINS_8ConstFstINS_6ArcTplINS_17TropicalWeightTplIfEEEEjEEEELj1760ENS_18FastLogAccumulatorIS6_EENS_14LabelReachableIS6_SA_NS_18LabelReachableDataIiEEEEEE
  1404: 00000000007ff500   312 OBJECT  WEAK   DEFAULT   21 _ZTVN3fst17ImplToExpandedFstINS_8internal13VectorFstImplINS_11VectorStateINS_6ArcTplINS_23CompactLatticeWeightTplINS_16LatticeWeightTplIfEEiEEEESaIS9_EEEEENS_10MutableFstIS9_EEEE
  1405: 00000000002556b0    10 FUNC    WEAK   DEFAULT   12 _ZNSt15_Sp_counted_ptrIPN3fst8internal18ComposeFstImplBaseINS0_6ArcTplINS0_17TropicalWeightTplIfEEEENS0_17DefaultCacheStoreIS6_EENS0_10ComposeFstIS6_S8_EEEELN9__gnu_cxx12_Lock_policyE2EE10_M_destroyEv
  1406: 000000000033cb20   266 FUNC    WEAK   DEFAULT   12 _ZN3fst16ImplToMutableFstINS_8internal13VectorFstImplINS_11VectorStateINS_10ReverseArcINS_6ArcTplINS_17TropicalWeightTplIfEEEEEESaIS9_EEEEENS_10MutableFstIS9_EEE13SetPropertiesEmm
  1407: 000000000050a120   342 FUNC    WEAK   DEFAULT   12 _ZNSt6vectorIN5kaldi5nnet318ComputationRequestESaIS2_EED2Ev
  1408: 00000000004866e0  5061 FUNC    GLOBAL DEFAULT   12 _ZN5kaldi20ExpandCompactLatticeERKN3fst9VectorFstINS0_6ArcTplINS0_23CompactLatticeWeightTplINS0_16LatticeWeightTplIfEEiEEEENS0_11VectorStateIS7_SaIS7_EEEEEdPSB_
  1409: 0000000000599420   723 FUNC    GLOBAL DEFAULT   12 _ZN5kaldi5nnet316PermuteComponent23ComputeReverseColumnMapEv
  1410: 0000000000269050   187 FUNC    WEAK   DEFAULT   12 _ZN3fst10SccVisitorINS_6ArcTplINS_23CompactLatticeWeightTplINS_16LatticeWeightTplIfEEiEEEEED1Ev
  1411: 0000000000467810   438 FUNC    WEAK   DEFAULT   12 _ZNSt8__detail9_Map_baseIPKSt6vectorIN3fst25LatticeDeterminizerPrunedINS2_16LatticeWeightTplIfEEiE7ElementESaIS7_EESt4pairIKSB_iESaISE_ENS_10_Select1stENS6_11SubsetEqualENS6_9SubsetKeyENS_18_Mod_range_hashingENS_20_Default_ranged_hashENS_20_Prime_rehash_policyENS_17_Hashtable_traitsILb1ELb0ELb1EEELb1EEixEOSB_
  1412: 0000000000252b10    11 FUNC    WEAK   DEFAULT   12 _ZNK3fst16ImplToMutableFstINS_8internal13VectorFstImplINS_11VectorStateINS_6ArcTplINS_23CompactLatticeWeightTplINS_16LatticeWeightTplIfEEiEEEESaIS9_EEEEENS_10MutableFstIS9_EEE12InputSymbolsEv
  1413: 00000000005a1760   541 FUNC    GLOBAL DEFAULT   12 _ZNK5kaldi5nnet313TdnnComponent12IsComputableERKNS0_19MiscComputationInfoERKNS0_5IndexERKNS0_8IndexSetEPSt6vectorIS5_SaIS5_EE
  1414: 00000000003b8390  1408 FUNC    WEAK   DEFAULT   12 _ZNK5kaldi29LatticeFasterOnlineDecoderTplIN3fst13GrammarFstTplIKNS1_8ConstFstINS1_6ArcTplINS1_17TropicalWeightTplIfEEEEjEEEEE11GetBestPathEPNS1_9VectorFstINS4_INS1_16LatticeWeightTplIfEEEENS1_11VectorStateISF_SaISF_EEEEEb
  1415: 0000000000725660   165 OBJECT  WEAK   DEFAULT   14 _ZTSN3fst13StateIteratorINS_10RandGenFstINS_6ArcTplINS_23CompactLatticeWeightTplINS_16LatticeWeightTplIfEEiEEEES7_NS_10ArcSamplerIS7_NS_18UniformArcSelectorIS7_EEEEEEEE
  1416: 0000000000418070  1004 FUNC    WEAK   DEFAULT   12 _ZN3fst13GrammarFstTplIKNS_8ConstFstINS_6ArcTplINS_17TropicalWeightTplIfEEEEjEEE4ReadERSib
  1417: 00000000006b8920   169 FUNC    GLOBAL DEFAULT   12 _ZN5kaldi6Output6StreamEv
  1418: 00000000004c64d0   632 FUNC    WEAK   DEFAULT   12 _ZN3fst10ComposeFstINS_6ArcTplINS_23CompactLatticeWeightTplINS_16LatticeWeightTplIfEEiEEEENS_17DefaultCacheStoreIS6_EEE11CreateBase2INS_16LookAheadMatcherINS_3FstIS6_EEEESE_NS_22LookAheadComposeFilterINS_24AltSequenceComposeFilterISE_SE_EESE_SE_LNS_9MatchTypeE3EEENS_24GenericComposeStateTableIS6_NS_18IntegerFilterStateIaEENS_24DefaultComposeStateTupleIiSM_EENS_21CompactHashStateTableISO_NS_11ComposeHashISO_EEEEEEEESt10shared_ptrINS_8internal18ComposeFstImplBaseIS6_S8_S9_EEERKNT_3FSTERKNT0_3FSTERKNS_21ComposeFstImplOptionsISZ_S13_T1_T2_S8_EE
  1419: 0000000000718f60    71 OBJECT  WEAK   DEFAULT   14 _ZTSN3fst22MutableArcIteratorBaseINS_6ArcTplINS_16LatticeWeightTplIfEEEEEE
  1420: 000000000055fac0     1 FUNC    WEAK   DEFAULT   12 _ZN5kaldi5nnet319DistributeComponentD1Ev
  1421: 000000000062f7d0    72 FUNC    WEAK   DEFAULT   12 _ZN5kaldi12CuVectorBaseIfE14SetRandUniformEv
  1422: 0000000000370710    39 FUNC    WEAK   DEFAULT   12 _ZNSt6vectorIPKN5kaldi8HashListIiPNS0_7decoder8StdTokenEE4ElemESaIS8_EED2Ev
  1423: 0000000000667090  1298 FUNC    WEAK   DEFAULT   12 _ZNK5kaldi10MatrixBaseIfE3SvdEPNS_10VectorBaseIfEEPS1_S5_
  1424: 00000000002615a0   258 FUNC    WEAK   DEFAULT   12 _ZN9__gnu_cxx6__stoaIllcJiEEET0_PFT_PKT1_PPS3_DpT2_EPKcS5_PmS9_
  1425: 0000000000633790    54 FUNC    WEAK   DEFAULT   12 _ZN5kaldi13CuBlockMatrixIdE7DestroyEv
  1426: 000000000036c140   567 FUNC    WEAK   DEFAULT   12 _ZN5kaldi23LatticeFasterDecoderTplIN3fst3FstINS1_6ArcTplINS1_17TropicalWeightTplIfEEEEEENS_7decoder8StdTokenEE17PruneActiveTokensEf
  1427: 0000000000370c80    39 FUNC    WEAK   DEFAULT   12 _ZNSt6vectorIN5kaldi23LatticeFasterDecoderTplIN3fst8ConstFstINS2_6ArcTplINS2_17TropicalWeightTplIfEEEEjEENS0_7decoder8StdTokenEE9TokenListESaISC_EED1Ev
  1428: 0000000000292ed0  1821 FUNC    WEAK   DEFAULT   12 _ZN3fst8internal14ComposeFstImplINS_17DefaultCacheStoreINS_6ArcTplINS_16LatticeWeightTplIfEEEEEENS_21SequenceComposeFilterINS_7MatcherINS_3FstIS6_EEEESC_EENS_24GenericComposeStateTableIS6_NS_18IntegerFilterStateIaEENS_24DefaultComposeStateTupleIiSG_EENS_21CompactHashStateTableISI_NS_11ComposeHashISI_EEEEEEEC1ISC_SC_EERKSB_SR_RKNS_21ComposeFstImplOptionsIT_T0_SD_SN_S7_EE
  1429: 0000000000384f70   347 FUNC    WEAK   DEFAULT   12 _ZN5kaldi23LatticeFasterDecoderTplIN3fst3FstINS1_6ArcTplINS1_17TropicalWeightTplIfEEEEEENS_7decoder8StdTokenEE15AdvanceDecodingEPNS_18DecodableInterfaceEi
  1430: 00000000003c0530   123 FUNC    WEAK   DEFAULT   12 _ZN3fst13PoolAllocatorINS_10ReverseArcINS_6ArcTplINS_16LatticeWeightTplIfEEEEEEED1Ev
  1431: 0000000000565830    98 FUNC    GLOBAL DEFAULT   12 _ZNK5kaldi5nnet34Nnet12IsOutputNodeEi
  1432: 000000000055ef80   485 FUNC    GLOBAL DEFAULT   12 _ZNK5kaldi5nnet329StatisticsExtractionComponent14ReorderIndexesEPSt6vectorINS0_5IndexESaIS3_EES6_
  1433: 0000000000676c10    93 FUNC    WEAK   DEFAULT   12 _ZN5kaldi10VectorBaseIdE10ApplyFloorERKS1_
  1434: 00000000006723b0   214 FUNC    WEAK   DEFAULT   12 _ZN5kaldi6VectorIfEaSERKNS_10VectorBaseIfEE
  1435: 000000000059d140    37 FUNC    WEAK   DEFAULT   12 _ZN5kaldi5nnet319FixedScaleComponentD2Ev
  1436: 00000000008023f8    40 OBJECT  WEAK   DEFAULT   21 _ZTVN3fst8internal14MemoryPoolImplILm320EEE
  1437: 00000000005059b0   110 FUNC    WEAK   DEFAULT   12 _ZNK5kaldi5nnet327DecodableAmNnetSimpleLooped11IsLastFrameEi
  1438: 0000000000261a90    37 FUNC    WEAK   DEFAULT   12 _ZN3fst14DeterminizeFstINS_10ReverseArcINS_6ArcTplINS_16LatticeWeightTplIfEEEEEEED1Ev
  1439: 0000000000396450   618 FUNC    WEAK   DEFAULT   12 _ZNSt5dequeIPN3fst8internal8DfsStateINS0_3FstINS0_6ArcTplINS0_16LatticeWeightTplIfEEEEEEEESaISA_EE16_M_push_back_auxIJSA_EEEvDpOT_
  1440: 00000000008023a8    40 OBJECT  WEAK   DEFAULT   21 _ZTVN3fst10MemoryPoolINS_13PoolAllocatorINS_6ArcTplINS_16LatticeWeightTplIfEEEEE2TNILi8EEEEE
  1441: 0000000000627320    21 FUNC    WEAK   DEFAULT   12 _ZNK5kaldi12CuMatrixBaseIdE11SizeInBytesEv
  1442: 00000000006a0640   203 FUNC    GLOBAL DEFAULT   12 _ZN5kaldi13GeneralMatrix20SwapCompressedMatrixEPNS_16CompressedMatrixE
  1443: 00000000006251c0     5 FUNC    WEAK   DEFAULT   12 _ZN5kaldi12CuMatrixBaseIfE15MulRowsGroupMatERKS1_
  1444: 0000000000808230    24 OBJECT  WEAK   DEFAULT   21 _ZTIN5kaldi5nnet316DropoutComponentE
  1445: 000000000044c400   534 FUNC    WEAK   DEFAULT   12 _ZN5kaldi24OnlineGenericBaseFeatureINS_11PlpComputerEE14AcceptWaveformEfRKNS_10VectorBaseIfEE
  1446: 00000000003052c0   375 FUNC    WEAK   DEFAULT   12 _ZNSt8_Rb_treeINSt7__cxx1112basic_stringIcSt11char_traitsIcESaIcEEESt4pairIKS5_N3fst16FstRegisterEntryINS8_6ArcTplINS8_17TropicalWeightTplIfEEEEEEESt10_Select1stISF_ESt4lessIS5_ESaISF_EE24_M_get_insert_unique_posERS7_
  1447: 00000000007fdc60    16 OBJECT  WEAK   DEFAULT   21 _ZTIN3fst3FstINS_6ArcTplINS_23CompactLatticeWeightTplINS_16LatticeWeightTplIfEEiEEEEEE
  1448: 0000000000728b50    25 OBJECT  WEAK   DEFAULT   14 _ZTSN5kaldi14OutputImplBaseE
  1449: 0000000000622b50    19 FUNC    WEAK   DEFAULT   12 _ZN5kaldi8CuMatrixIfED1Ev
  1450: 000000000059d3c0    66 FUNC    WEAK   DEFAULT   12 _ZN5kaldi5nnet339NaturalGradientPerElementScaleComponentD2Ev
  1451: 00000000006654a0   559 FUNC    WEAK   DEFAULT   12 _ZNK5kaldi10MatrixBaseIdE6LogDetEPd
  1452: 00000000006562f0   501 FUNC    WEAK   DEFAULT   12 _ZN5kaldi6MatrixIdEC1IfEERKNS_10MatrixBaseIT_EENS_19MatrixTransposeTypeE
  1453: 0000000000393400    74 FUNC    WEAK   DEFAULT   12 _ZN5kaldi23LatticeFasterDecoderTplIN3fst13GrammarFstTplIKNS1_8ConstFstINS1_6ArcTplINS1_17TropicalWeightTplIfEEEEjEEEENS_7decoder8StdTokenEE6DecodeEPNS_18DecodableInterfaceE
  1454: 0000000000576cb0   131 FUNC    GLOBAL DEFAULT   12 _ZN5kaldi5nnet325CachingOptimizingCompilerC1ERKNS0_4NnetENS0_32CachingOptimizingCompilerOptionsE
  1455: 0000000000546fe0   588 FUNC    GLOBAL DEFAULT   12 _ZNK5kaldi5nnet330TimeHeightConvolutionComponent17PrecomputeIndexesERKNS0_19MiscComputationInfoERKSt6vectorINS0_5IndexESaIS6_EESA_b
  1456: 0000000000626ff0     6 FUNC    WEAK   DEFAULT   12 _ZNK5kaldi12CuMatrixBaseIdE7NumRowsEv
  1457: 0000000000661ca0  1541 FUNC    WEAK   DEFAULT   12 _ZN5kaldi7ReadHtkIfEEbRSiPNS_6MatrixIT_EEPNS_9HtkHeaderE
  1458: 00000000004080e0   423 FUNC    WEAK   DEFAULT   12 _ZNK5kaldi34LatticeIncrementalOnlineDecoderTplIN3fst13GrammarFstTplINS1_9VectorFstINS1_6ArcTplINS1_17TropicalWeightTplIfEEEENS1_11VectorStateIS7_SaIS7_EEEEEEEE17TraceBackBestPathENSD_16BestPathIteratorEPNS4_INS1_16LatticeWeightTplIfEEEE
  1459: 0000000000432a60  1198 FUNC    GLOBAL DEFAULT   12 _ZN5kaldi13FullGmmNormal13CopyToFullGmmEPNS_7FullGmmEt
  1460: 00000000002ff180    23 FUNC    WEAK   DEFAULT   12 _ZN5kaldi12ParseOptionsD0Ev
  1461: 00000000003beb40   123 FUNC    WEAK   DEFAULT   12 _ZN3fst13PoolAllocatorINSt8__detail10_Hash_nodeIiLb1EEEED1Ev
  1462: 000000000062bc60     1 FUNC    WEAK   DEFAULT   12 _ZN5kaldi6CuRandIfE7SeedGpuEv
  1463: 0000000000717a80    59 OBJECT  WEAK   DEFAULT   14 _ZTSN3fst10MutableFstINS_6ArcTplINS_16LatticeWeightTplIfEEEEEE
  1464: 000000000069bbd0  1012 FUNC    WEAK   DEFAULT   12 _ZN5kaldi8SpMatrixIfE9LimitCondEfb
  1465: 0000000000805410   136 OBJECT  WEAK   DEFAULT   21 _ZTVN5kaldi16GaussClusterableE
  1466: 000000000071c840    41 OBJECT  WEAK   DEFAULT   14 _ZTSN3fst8internal15MemoryArenaImplILm264EEE
  1467: 000000000071c700    82 OBJECT  WEAK   DEFAULT   14 _ZTSN3fst10MemoryPoolINS_13PoolAllocatorIPNSt8__detail15_Hash_node_baseEE2TNILi8EEEEE
  1468: 0000000000410960   861 FUNC    WEAK   DEFAULT   12 _ZN3fst13GrammarFstTplIKNS_8ConstFstINS_6ArcTplINS_17TropicalWeightTplIfEEEEjEEE7DestroyEv
  1469: 00000000003cd8b0   708 FUNC    GLOBAL DEFAULT   12 _ZN5kaldi30LatticeIncrementalDeterminizer12AddArcToClatEiRKN3fst6ArcTplINS1_23CompactLatticeWeightTplINS1_16LatticeWeightTplIfEEiEEEE
  1470: 0000000000273ae0   500 FUNC    WEAK   DEFAULT   12 _ZN3fst10SccVisitorINS_6ArcTplINS_16LatticeWeightTplIfEEEEE9InitStateEii
  1471: 00000000006574d0  2384 FUNC    WEAK   DEFAULT   12 _ZN5kaldi10MatrixBaseIdE11MulElementsERKS1_
  1472: 0000000000622d20    25 FUNC    WEAK   DEFAULT   12 _ZN5kaldi8CuMatrixIdEC2Ev
  1473: 0000000000370740   135 FUNC    WEAK   DEFAULT   12 _ZNSt10_HashtableIPN5kaldi7decoder8StdTokenESt4pairIKS3_fESaIS6_ENSt8__detail10_Select1stESt8equal_toIS3_ESt4hashIS3_ENS8_18_Mod_range_hashingENS8_20_Default_ranged_hashENS8_20_Prime_rehash_policyENS8_17_Hashtable_traitsILb0ELb0ELb1EEEED2Ev
  1474: 0000000000333650   336 FUNC    WEAK   DEFAULT   12 _ZN3fst8internal18DeterminizeFsaImplINS_10ReverseArcINS_6ArcTplINS_17TropicalWeightTplIfEEEEEENS_20DefaultCommonDivisorIS5_EENS_24DefaultDeterminizeFilterIS7_EENS_28DefaultDeterminizeStateTableIS7_NS_18IntegerFilterStateIaEEEEED0Ev
  1475: 0000000000427ec0   823 FUNC    GLOBAL DEFAULT   12 _ZN5kaldi16IvectorExtractorC1ERKNS_23IvectorExtractorOptionsERKNS_7FullGmmE
  1476: 000000000071c7e0    83 OBJECT  WEAK   DEFAULT   14 _ZTSN3fst10MemoryPoolINS_13PoolAllocatorIPNSt8__detail15_Hash_node_baseEE2TNILi16EEEEE
  1477: 00000000007fe630    24 OBJECT  WEAK   DEFAULT   21 _ZTISt23_Sp_counted_ptr_inplaceIN3fst8internal14ComposeFstImplINS0_17DefaultCacheStoreINS0_6ArcTplINS0_16LatticeWeightTplIfEEEEEENS0_21SequenceComposeFilterINS0_7MatcherINS0_3FstIS7_EEEESD_EENS0_24GenericComposeStateTableIS7_NS0_18IntegerFilterStateIaEENS0_24DefaultComposeStateTupleIiSH_EENS0_21CompactHashStateTableISJ_NS0_11ComposeHashISJ_EEEEEEEESaIvELN9__gnu_cxx12_Lock_policyE2EE
  1478: 0000000000805df8    24 OBJECT  WEAK   DEFAULT   21 _ZTIN3fst8internal9CacheImplINS_6ArcTplINS_23CompactLatticeWeightTplINS_16LatticeWeightTplIfEEiEEEEEE
  1479: 000000000061b210   205 FUNC    WEAK   DEFAULT   12 _ZN5kaldi2cu6SpliceIdEEvRKNS_12CuMatrixBaseIT_EERKNS_7CuArrayIiEEPS4_
  1480: 00000000005e2170  1078 FUNC    GLOBAL DEFAULT   12 _ZN5kaldi5nnet315GetSubmatCountsERKSt6vectorIS1_ISt4pairIiiESaIS3_EESaIS5_EEPSt13unordered_mapIiiSt4hashIiESt8equal_toIiESaIS2_IKiiEEEPS1_IiSaIiEE
  1481: 00000000008024c0    40 OBJECT  WEAK   DEFAULT   21 _ZTVN3fst8internal15MemoryArenaImplILm1288EEE
  1482: 00000000005edd90   632 FUNC    GLOBAL DEFAULT   12 _ZNK5kaldi5nnet317UtteranceSplitter16SetOutputWeightsEiPSt6vectorINS0_13ChunkTimeInfoESaIS3_EE
  1483: 00000000005d2770    45 FUNC    GLOBAL DEFAULT   12 _ZN5kaldi5nnet319MaxpoolingComponentC1ERKS1_
  1484: 0000000000721560   136 OBJECT  WEAK   DEFAULT   14 _ZTSSt23_Sp_counted_ptr_inplaceIN3fst8internal12NGramFstImplINS0_6ArcTplINS0_17TropicalWeightTplIfEEEEEESaIvELN9__gnu_cxx12_Lock_policyE2EE
  1485: 0000000000575c90    61 FUNC    WEAK   DEFAULT   12 _ZN5kaldi5nnet318BatchNormComponentD1Ev
  1486: 00000000007fea80    24 OBJECT  WEAK   DEFAULT   21 _ZTIN3fst8internal14MemoryPoolImplILm320EEE
  1487: 000000000028ff70   160 FUNC    WEAK   DEFAULT   12 _ZN3fst8internal14ComposeFstImplINS_17DefaultCacheStoreINS_6ArcTplINS_16LatticeWeightTplIfEEEEEENS_24AltSequenceComposeFilterINS_7MatcherINS_3FstIS6_EEEESC_EENS_24GenericComposeStateTableIS6_NS_18IntegerFilterStateIaEENS_24DefaultComposeStateTupleIiSG_EENS_21CompactHashStateTableISI_NS_11ComposeHashISI_EEEEEEED1Ev
  1488: 0000000000727240    43 OBJECT  WEAK   DEFAULT   14 _ZTSN5kaldi5rnnlm26KaldiRnnlmDeterministicFstE
  1489: 0000000000646c10  1949 FUNC    WEAK   DEFAULT   12 _ZN5kaldi10MatrixBaseIfE12AddVecToRowsIdEEvfRKNS_10VectorBaseIT_EE
  1490: 0000000000437d10  5933 FUNC    GLOBAL DEFAULT   12 _ZN5kaldi7FullGmm14MergePreselectEiRKSt6vectorISt4pairIiiESaIS3_EE
  1491: 0000000000604e90  1038 FUNC    GLOBAL DEFAULT   12 _ZN5kaldi5nnet314RowOpsSplitter12SplitIndexesEv
  1492: 0000000000719400    94 OBJECT  WEAK   DEFAULT   14 _ZTSN3fst10MemoryPoolINS_8internal8DfsStateINS_3FstINS_6ArcTplINS_17TropicalWeightTplIfEEEEEEEEEE
  1493: 00000000006535b0   586 FUNC    WEAK   DEFAULT   12 _ZN5kaldi10MatrixBaseIfE8AddMatTpEfRKS1_NS_19MatrixTransposeTypeERKNS_8TpMatrixIfEES4_f
  1494: 00000000006ec410  2658 FUNC    GLOBAL DEFAULT   12 _ZN3fst10MappedFile3MapEPSibRKNSt7__cxx1112basic_stringIcSt11char_traitsIcESaIcEEEm
  1495: 00000000003b2ed0   102 FUNC    WEAK   DEFAULT   12 _ZN3fst8internal21ShortestDistanceStateINS_6ArcTplINS_16LatticeWeightTplIfEEEENS_9AutoQueueIiEENS_12AnyArcFilterIS5_EEED2Ev
  1496: 0000000000517500    42 FUNC    GLOBAL DEFAULT   12 _ZN5kaldi5nnet318UpdatableComponent19SetUpdatableConfigsERKS1_
  1497: 00000000003eb300   581 FUNC    WEAK   DEFAULT   12 _ZNK5kaldi28LatticeIncrementalDecoderTplIN3fst3FstINS1_6ArcTplINS1_17TropicalWeightTplIfEEEEEENS_7decoder8StdTokenEE17ComputeFinalCostsEPSt13unordered_mapIPS9_fSt4hashISC_ESt8equal_toISC_ESaISt4pairIKSC_fEEEPfSN_
  1498: 0000000000586470    81 FUNC    GLOBAL DEFAULT   12 _ZN5kaldi5nnet324PerElementScaleComponentC1ERKS1_
  1499: 00000000002ecec0   629 FUNC    WEAK   DEFAULT   12 _ZN3fst17ComposeFstMatcherINS_17DefaultCacheStoreINS_6ArcTplINS_16LatticeWeightTplIfEEEEEENS_22LookAheadComposeFilterINS_21SequenceComposeFilterINS_16LookAheadMatcherINS_3FstIS5_EEEESC_EESC_SC_LNS_9MatchTypeE3EEENS_24GenericComposeStateTableIS5_NS_18IntegerFilterStateIaEENS_24DefaultComposeStateTupleIiSI_EENS_21CompactHashStateTableISK_NS_11ComposeHashISK_EEEEEEE8FindNextISC_SC_EEbPT_PT0_
  1500: 0000000000718f20    64 OBJECT  WEAK   DEFAULT   14 _ZTSN3fst15ArcIteratorBaseINS_6ArcTplINS_16LatticeWeightTplIfEEEEEE
  1501: 000000000057c4b0   440 FUNC    WEAK   DEFAULT   12 _ZN5kaldi15CopyVectorToSetIiEEvRKSt6vectorIT_SaIS2_EEPSt3setIS2_St4lessIS2_ES3_E
  1502: 00000000006ac670  3018 FUNC    WEAK   DEFAULT   12 _ZN5kaldi12SparseMatrixIdE4ReadERSib
  1503: 00000000005e6120   248 FUNC    GLOBAL DEFAULT   12 _ZNK5kaldi5nnet315NnetComputeProb12GetObjectiveERKNSt7__cxx1112basic_stringIcSt11char_traitsIcESaIcEEE
  1504: 00000000002bb320   299 FUNC    WEAK   DEFAULT   12 _ZNK3fst9ImplToFstINS_8internal22DeterminizeFstImplBaseINS_10ReverseArcINS_6ArcTplINS_16LatticeWeightTplIfEEEEEEEENS_3FstIS8_EEE10PropertiesEmb
  1505: 00000000003dda00  1253 FUNC    WEAK   DEFAULT   12 _ZN5kaldi28LatticeIncrementalDecoderTplIN3fst13GrammarFstTplINS1_9VectorFstINS1_6ArcTplINS1_17TropicalWeightTplIfEEEENS1_11VectorStateIS7_SaIS7_EEEEEEENS_7decoder16BackpointerTokenEE9GetCutoffEPNS_8HashListIlPSE_E4ElemEPmPfPSK_
  1506: 0000000000692ce0    30 FUNC    GLOBAL DEFAULT   12 _ZN5kaldi8SpMatrixIfE7AddVec2IfEEvfRKNS_10VectorBaseIT_EE
  1507: 000000000030d590   449 FUNC    WEAK   DEFAULT   12 _ZN3fst8internal13VectorFstImplINS_11VectorStateINS_6ArcTplINS_17TropicalWeightTplIfEEEESaIS6_EEEE27UpdatePropertiesAfterAddArcEi
  1508: 00000000008034a8    56 OBJECT  WEAK   DEFAULT   21 _ZTVSt15_Sp_counted_ptrIPN3fst8internal9AddOnImplINS0_8ConstFstINS0_6ArcTplINS0_17TropicalWeightTplIfEEEEjEENS0_9AddOnPairINS0_18LabelReachableDataIiEESB_EEEELN9__gnu_cxx12_Lock_policyE2EE
  1509: 00000000007280e0    37 OBJECT  WEAK   DEFAULT   14 _ZTSN5kaldi5nnet320FixedAffineComponentE
  1510: 0000000000645d00   292 FUNC    WEAK   DEFAULT   12 _ZN5kaldi10MatrixBaseIdE11CopyFromMatIdEEvRKNS0_IT_EENS_19MatrixTransposeTypeE
  1511: 0000000000717a40    60 OBJECT  WEAK   DEFAULT   14 _ZTSN3fst11ExpandedFstINS_6ArcTplINS_16LatticeWeightTplIfEEEEEE
  1512: 0000000000288220    39 FUNC    WEAK   DEFAULT   12 _ZNSt6vectorIN3fst24DefaultComposeStateTupleIiNS0_15PairFilterStateINS2_INS0_18IntegerFilterStateIaEENS0_17WeightFilterStateINS0_17TropicalWeightTplIfEEEEEENS3_IiEEEEEESaISC_EED1Ev
  1513: 0000000000334f80   173 FUNC    WEAK   DEFAULT   12 _ZN3fst8internal14ComposeFstImplINS_17DefaultCacheStoreINS_6ArcTplINS_17TropicalWeightTplIfEEEEEENS_20NoMatchComposeFilterINS_7MatcherINS_3FstIS6_EEEESC_EENS_24GenericComposeStateTableIS6_NS_18TrivialFilterStateENS_24DefaultComposeStateTupleIiSF_EENS_21CompactHashStateTableISH_NS_11ComposeHashISH_EEEEEEED0Ev
  1514: 0000000000803008   160 OBJECT  WEAK   DEFAULT   21 _ZTVN3fst17ImplToExpandedFstINS_8internal9AddOnImplINS_8ConstFstINS_6ArcTplINS_17TropicalWeightTplIfEEEEjEENS_9AddOnPairINS_18LabelReachableDataIiEESB_EEEENS_11ExpandedFstIS7_EEEE
  1515: 00000000006318e0   224 FUNC    WEAK   DEFAULT   12 _ZN5kaldi13CuBlockMatrixIfEC1ERKS1_
  1516: 00000000005bcf40    93 FUNC    GLOBAL DEFAULT   12 _ZN5kaldi5nnet321OnlineNaturalGradientC1Ev
  1517: 000000000062f780    72 FUNC    WEAK   DEFAULT   12 _ZN5kaldi12CuVectorBaseIfE8SetRandnEv
  1518: 0000000000554e30    45 FUNC    GLOBAL DEFAULT   12 _ZN5kaldi5nnet320DropoutMaskComponentC1ERKS1_
  1519: 00000000002948a0   402 FUNC    WEAK   DEFAULT   12 _ZN3fst8internal14ComposeFstImplINS_17DefaultCacheStoreINS_6ArcTplINS_17TropicalWeightTplIfEEEEEENS_23PushLabelsComposeFilterINS_24PushWeightsComposeFilterINS_22LookAheadComposeFilterINS_21SequenceComposeFilterINS_16LookAheadMatcherINS_3FstIS6_EEEESF_EESF_SF_LNS_9MatchTypeE3EEESF_SF_LSH_3EEESF_SF_LSH_3EEENS_24GenericComposeStateTableIS6_NS_15PairFilterStateINSM_INS_18IntegerFilterStateIaEENS_17WeightFilterStateIS5_EEEENSN_IiEEEENS_24DefaultComposeStateTupleIiST_EENS_21CompactHashStateTableISV_NS_11ComposeHashISV_EEEEEEED1Ev
  1520: 00000000006277d0   289 FUNC    WEAK   DEFAULT   12 _ZN5kaldi12CuMatrixBaseIdE18DiffParametricReluERKS1_S3_RKNS_12CuVectorBaseIdEES7_
  1521: 00000000002c35c0   150 FUNC    WEAK   DEFAULT   12 _ZN3fst16ImplToMutableFstINS_8internal13VectorFstImplINS_11VectorStateINS_10ReverseArcINS_6ArcTplINS_16LatticeWeightTplIfEEEEEESaIS9_EEEEENS_10MutableFstIS9_EEE19MutableInputSymbolsEv
  1522: 00000000007fe180    24 OBJECT  WEAK   DEFAULT   21 _ZTIN3fst14DeterminizeFstINS_10ReverseArcINS_6ArcTplINS_16LatticeWeightTplIfEEEEEEEE
  1523: 000000000065a6a0   303 FUNC    WEAK   DEFAULT   12 _ZN5kaldi10MatrixBaseIdE5FloorERKS1_d
  1524: 0000000000624340     5 FUNC    WEAK   DEFAULT   12 _ZN5kaldi12CuMatrixBaseIfE15CopyRowsFromVecERKNS_10VectorBaseIfEE
  1525: 00000000005677a0  1168 FUNC    GLOBAL DEFAULT   12 _ZN5kaldi5nnet34NnetC2ERKS1_
  1526: 0000000000687d00   170 FUNC    WEAK   DEFAULT   12 _ZN5kaldi13OptimizeLbfgsIdE7RestartERKNS_10VectorBaseIdEEdS5_
  1527: 00000000008003d0   152 OBJECT  WEAK   DEFAULT   21 _ZTVN3fst9ImplToFstINS_8internal18ComposeFstImplBaseINS_6ArcTplINS_16LatticeWeightTplIfEEEENS_17DefaultCacheStoreIS6_EENS_10ComposeFstIS6_S8_EEEENS_3FstIS6_EEEE
  1528: 00000000007fdf70    24 OBJECT  WEAK   DEFAULT   21 _ZTIN3fst10ComposeFstINS_6ArcTplINS_16LatticeWeightTplIfEEEENS_17DefaultCacheStoreIS4_EEEE
  1529: 0000000000555fd0    40 FUNC    GLOBAL DEFAULT   12 _ZN5kaldi5nnet329StatisticsExtractionComponentC2ERKS1_
  1530: 00000000003ec950    84 FUNC    WEAK   DEFAULT   12 _ZNK5kaldi28LatticeIncrementalDecoderTplIN3fst8ConstFstINS1_6ArcTplINS1_17TropicalWeightTplIfEEEEjEENS_7decoder8StdTokenEE12ReachedFinalEv
  1531: 000000000025ef30   117 FUNC    WEAK   DEFAULT   12 _ZN3fst10MemoryPoolINS_13PoolAllocatorINS_6ArcTplINS_16LatticeWeightTplIfEEEEE2TNILi32EEEED1Ev
  1532: 00000000005a32d0    71 FUNC    WEAK   DEFAULT   12 _ZNK5kaldi5nnet313TdnnComponent4CopyEv
  1533: 000000000064d680   147 FUNC    WEAK   DEFAULT   12 _ZNK5kaldi10MatrixBaseIfE9AddToRowsEfPKiPS1_
  1534: 00000000003f4200   684 FUNC    WEAK   DEFAULT   12 _ZNK5kaldi28LatticeIncrementalDecoderTplIN3fst13GrammarFstTplINS1_9VectorFstINS1_6ArcTplINS1_17TropicalWeightTplIfEEEENS1_11VectorStateIS7_SaIS7_EEEEEEENS_7decoder16BackpointerTokenEE17ComputeFinalCostsEPSt13unordered_mapIPSE_fSt4hashISH_ESt8equal_toISH_ESaISt4pairIKSH_fEEEPfSS_
  1535: 000000000069d840  1079 FUNC    WEAK   DEFAULT   12 _ZN5kaldi8SpMatrixIdE6InvertEPdS2_b
  1536: 00000000005062a0    62 FUNC    GLOBAL DEFAULT   12 _ZN5kaldi5nnet312GetChunkSizeERKNS0_4NnetEii
  1537: 0000000000390e40   389 FUNC    WEAK   DEFAULT   12 _ZNSt6vectorIPN5kaldi8HashListIlPNS0_7decoder16BackpointerTokenEE4ElemESaIS7_EE17_M_realloc_insertIJRKS7_EEEvN9__gnu_cxx17__normal_iteratorIPS7_S9_EEDpOT_
  1538: 0000000000721960   113 OBJECT  WEAK   DEFAULT   14 _ZTSSt23_Sp_counted_ptr_inplaceIN3fst9AddOnPairINS0_18LabelReachableDataIiEES3_EESaIvELN9__gnu_cxx12_Lock_policyE2EE
  1539: 00000000004c0ca0   105 FUNC    WEAK   DEFAULT   12 _ZNSt6vectorISt10unique_ptrIN3fst9RandStateINS1_6ArcTplINS1_23CompactLatticeWeightTplINS1_16LatticeWeightTplIfEEiEEEEEESt14default_deleteIS9_EESaISC_EED2Ev
  1540: 0000000000727e00    33 OBJECT  WEAK   DEFAULT   14 _ZTSN5kaldi5nnet316DropoutComponentE
  1541: 0000000000815340     4 OBJECT  GLOBAL DEFAULT   25 _ZN5kaldi21g_kaldi_verbose_levelE
  1542: 00000000005d2970   318 FUNC    GLOBAL DEFAULT   12 _ZN5kaldi5nnet325LstmNonlinearityComponent4InitEibffff
  1543: 00000000008025b0    40 OBJECT  WEAK   DEFAULT   21 _ZTVN3fst10MemoryPoolINS_13PoolAllocatorINS_6ArcTplINS_17TropicalWeightTplIfEEEEE2TNILi2EEEEE
  1544: 0000000000697060    12 FUNC    WEAK   DEFAULT   12 _ZN5kaldi8SpMatrixIdEC2EiNS_16MatrixResizeTypeE
  1545: 0000000000728200    34 OBJECT  WEAK   DEFAULT   14 _ZTSN5kaldi5nnet317SumBlockComponentE
  1546: 00000000003e5810   783 FUNC    WEAK   DEFAULT   12 _ZN5kaldi28LatticeIncrementalDecoderTplIN3fst13GrammarFstTplIKNS1_8ConstFstINS1_6ArcTplINS1_17TropicalWeightTplIfEEEEjEEEENS_7decoder8StdTokenEEC2ERKNS_31LatticeIncrementalDecoderConfigEPSA_RKNS_21TransitionInformationE
  1547: 00000000003e8140   333 FUNC    WEAK   DEFAULT   12 _ZNSt10_HashtableIiSt4pairIKifESaIS2_ENSt8__detail10_Select1stESt8equal_toIiESt4hashIiENS4_18_Mod_range_hashingENS4_20_Default_ranged_hashENS4_20_Prime_rehash_policyENS4_17_Hashtable_traitsILb0ELb0ELb1EEEE9_M_rehashEmRKm
  1548: 00000000002520a0    33 FUNC    WEAK   DEFAULT   12 _ZNK3fst9ImplToFstINS_8internal13VectorFstImplINS_11VectorStateINS_10ReverseArcINS_6ArcTplINS_16LatticeWeightTplIfEEEEEESaIS9_EEEEENS_10MutableFstIS9_EEE5FinalEi
  1549: 000000000053d060   205 FUNC    WEAK   DEFAULT   12 _ZSt16__do_uninit_copyIN9__gnu_cxx17__normal_iteratorIPKN5kaldi7CuArrayI9Int32PairEESt6vectorIS5_SaIS5_EEEEPS5_ET0_T_SE_SD_
  1550: 00000000003549e0   591 FUNC    WEAK   DEFAULT   12 _ZN5kaldi22OnlineSilenceWeighting23ComputeCurrentTracebackIN3fst3FstINS2_6ArcTplINS2_17TropicalWeightTplIfEEEEEEEEvRKNS_34LatticeIncrementalOnlineDecoderTplIT_EEb
  1551: 00000000003b12e0     5 FUNC    WEAK   DEFAULT   12 _ZN5kaldi29LatticeFasterOnlineDecoderTplIN3fst8ConstFstINS1_6ArcTplINS1_17TropicalWeightTplIfEEEEjEEEC1ERKS7_RKNS_26LatticeFasterDecoderConfigE
  1552: 00000000004c2870   107 FUNC    WEAK   DEFAULT   12 _ZNK3fst16LookAheadMatcherINS_3FstINS_6ArcTplINS_23CompactLatticeWeightTplINS_16LatticeWeightTplIfEEiEEEEEEE4CopyEb
  1553: 00000000006bfb70    23 FUNC    GLOBAL DEFAULT   12 _ZN5kaldi15MultiThreadableD0Ev
  1554: 0000000000804f40   152 OBJECT  WEAK   DEFAULT   21 _ZTVN3fst9ImplToFstINS_8internal14RandGenFstImplINS_6ArcTplINS_16LatticeWeightTplIfEEEES6_NS_10ArcSamplerIS6_NS_18UniformArcSelectorIS6_EEEEEENS_3FstIS6_EEEE
  1555: 00000000003d2f90    53 FUNC    WEAK   DEFAULT   12 _ZN5kaldi28LatticeIncrementalDecoderTplIN3fst13GrammarFstTplINS1_9VectorFstINS1_6ArcTplINS1_17TropicalWeightTplIfEEEENS1_11VectorStateIS7_SaIS7_EEEEEEENS_7decoder16BackpointerTokenEE10SetOptionsERKNS_31LatticeIncrementalDecoderConfigE
  1556: 000000000026e850    67 FUNC    WEAK   DEFAULT   12 _ZN3fst10MemoryPoolINS_11ArcIteratorINS_3FstINS_6ArcTplINS_17TropicalWeightTplIfEEEEEEEEED0Ev
  1557: 000000000032ec20  1017 FUNC    WEAK   DEFAULT   12 _ZN3fst8internal21ConvertStringToLabelsIiEEbRKNSt7__cxx1112basic_stringIcSt11char_traitsIcESaIcEEENS_9TokenTypeEPKNS_11SymbolTableET_bPSt6vectorISE_SaISE_EES9_
  1558: 00000000005ebae0   343 FUNC    GLOBAL DEFAULT   12 _ZNK5kaldi5nnet320ExampleMergingConfig13MinibatchSizeEiib
  1559: 000000000045f4a0   137 FUNC    WEAK   DEFAULT   12 _ZNSt6vectorIN5kaldi28PrunedCompactLatticeComposer16LatticeStateInfoESaIS2_EED2Ev
  1560: 0000000000253610    16 FUNC    WEAK   DEFAULT   12 _ZNSt23_Sp_counted_ptr_inplaceIN3fst8internal13VectorFstImplINS0_11VectorStateINS0_10ReverseArcINS0_6ArcTplINS0_16LatticeWeightTplIfEEEEEESaIS9_EEEEESaIvELN9__gnu_cxx12_Lock_policyE2EE10_M_disposeEv
  1561: 00000000007277a0    43 OBJECT  WEAK   DEFAULT   14 _ZTSN5kaldi5nnet326OffsetForwardingDescriptorE
  1562: 000000000028a550   266 FUNC    WEAK   DEFAULT   12 _ZN3fst16ImplToMutableFstINS_8internal13VectorFstImplINS_11VectorStateINS_6ArcTplINS_16LatticeWeightTplIfEEEESaIS7_EEEEENS_10MutableFstIS7_EEE13SetPropertiesEmm
  1563: 00000000005d03c0   130 FUNC    WEAK   DEFAULT   12 _ZNK5kaldi5nnet328RestrictedAttentionComponent4TypeB5cxx11Ev
  1564: 0000000000516b70   127 FUNC    GLOBAL DEFAULT   12 _ZN5kaldi5nnet318NonlinearComponent5ScaleEf
  1565: 0000000000552b20   113 FUNC    GLOBAL DEFAULT   12 _ZN5kaldi5nnet317ConstantComponent17ConsolidateMemoryEv
  1566: 00000000006b9d60     6 FUNC    WEAK   DEFAULT   12 _ZN5kaldi19OffsetFileInputImpl6MyTypeEv
  1567: 0000000000386790   847 FUNC    WEAK   DEFAULT   12 _ZN5kaldi23LatticeFasterDecoderTplIN3fst9VectorFstINS1_6ArcTplINS1_17TropicalWeightTplIfEEEENS1_11VectorStateIS6_SaIS6_EEEEENS_7decoder8StdTokenEE16FinalizeDecodingEv
  1568: 0000000000328030   173 FUNC    WEAK   DEFAULT   12 _ZN3fst17ComposeFstMatcherINS_17DefaultCacheStoreINS_6ArcTplINS_17TropicalWeightTplIfEEEEEENS_24AltSequenceComposeFilterINS_7MatcherINS_3FstIS5_EEEESB_EENS_24GenericComposeStateTableIS5_NS_18IntegerFilterStateIaEENS_24DefaultComposeStateTupleIiSF_EENS_21CompactHashStateTableISH_NS_11ComposeHashISH_EEEEEEED2Ev
  1569: 000000000059d080    37 FUNC    WEAK   DEFAULT   12 _ZN5kaldi5nnet324PerElementScaleComponentD2Ev
  1570: 0000000000622b80     6 FUNC    WEAK   DEFAULT   12 _ZN5kaldi8CuMatrixIfE3MatEv
  1571: 0000000000626480    34 FUNC    WEAK   DEFAULT   12 _ZNK5kaldi12CuMatrixBaseIfEclEii
  1572: 00000000007fd470   128 OBJECT  WEAK   DEFAULT   21 _ZTVN3fst17ComposeFstMatcherINS_17DefaultCacheStoreINS_6ArcTplINS_16LatticeWeightTplIfEEEEEENS_24AltSequenceComposeFilterINS_7MatcherINS_3FstIS5_EEEESB_EENS_24GenericComposeStateTableIS5_NS_18IntegerFilterStateIaEENS_24DefaultComposeStateTupleIiSF_EENS_21CompactHashStateTableISH_NS_11ComposeHashISH_EEEEEEEE
  1573: 00000000005dc9c0    79 FUNC    WEAK   DEFAULT   12 _ZN5kaldi5nnet330OutputGruNonlinearityComponentD1Ev
  1574: 000000000080a268    24 OBJECT  WEAK   DEFAULT   21 _ZTIN5kaldi5nnet330OutputGruNonlinearityComponentE
  1575: 00000000007feaf8    24 OBJECT  WEAK   DEFAULT   21 _ZTIN3fst8internal15MemoryArenaImplILm1288EEE
  1576: 0000000000803ae8    40 OBJECT  WEAK   DEFAULT   21 _ZTVN3fst10MemoryPoolINS_8internal8DfsStateINS_3FstINS_10ReverseArcINS_6ArcTplINS_17TropicalWeightTplIfEEEEEEEEEEEE
  1577: 00000000005d1030    79 FUNC    GLOBAL DEFAULT   12 _ZN5kaldi5nnet320ConvolutionComponent5ScaleEf
  1578: 00000000004c28e0   456 FUNC    WEAK   DEFAULT   12 _ZNK3fst8internal14ComposeFstImplINS_17DefaultCacheStoreINS_6ArcTplINS_23CompactLatticeWeightTplINS_16LatticeWeightTplIfEEiEEEEEENS_22LookAheadComposeFilterINS_21SequenceComposeFilterINS_16LookAheadMatcherINS_3FstIS8_EEEESF_EESF_SF_LNS_9MatchTypeE3EEENS_24GenericComposeStateTableIS8_NS_18IntegerFilterStateIaEENS_24DefaultComposeStateTupleIiSL_EENS_21CompactHashStateTableISN_NS_11ComposeHashISN_EEEEEEE11InitMatcherERKNS_10ComposeFstIS8_S9_EESH_
  1579: 0000000000345f40   432 FUNC    WEAK   DEFAULT   12 _ZN3fst12GCCacheStoreINS_15FirstCacheStoreINS_16VectorCacheStoreINS_10CacheStateINS_10ReverseArcINS_6ArcTplINS_17TropicalWeightTplIfEEEEEENS_13PoolAllocatorIS9_EEEEEEEEE15GetMutableStateEi
  1580: 000000000065a9f0   250 FUNC    WEAK   DEFAULT   12 _ZN5kaldi10MatrixBaseIdE10ExpLimitedERKS1_dd
  1581: 0000000000676250   218 FUNC    WEAK   DEFAULT   12 _ZNK5kaldi10VectorBaseIdE15RandCategoricalEv
  1582: 000000000027d1e0   537 FUNC    WEAK   DEFAULT   12 _ZNSt6vectorIN3fst23CompactLatticeWeightTplINS0_16LatticeWeightTplIfEEiEESaIS4_EE17_M_realloc_insertIJS4_EEEvN9__gnu_cxx17__normal_iteratorIPS4_S6_EEDpOT_
  1583: 0000000000657e20   348 FUNC    WEAK   DEFAULT   12 _ZN5kaldi10MatrixBaseIdE11DivElementsERKS1_
  1584: 0000000000287f80   301 FUNC    WEAK   DEFAULT   12 _ZNSt10unique_ptrIN3fst23PushLabelsComposeFilterINS0_24PushWeightsComposeFilterINS0_22LookAheadComposeFilterINS0_21SequenceComposeFilterINS0_16LookAheadMatcherINS0_3FstINS0_6ArcTplINS0_17TropicalWeightTplIfEEEEEEEESC_EESC_SC_LNS0_9MatchTypeE3EEESC_SC_LSE_3EEESC_SC_LSE_3EEESt14default_deleteISH_EED1Ev
  1585: 00000000003a52d0  9832 FUNC    WEAK   DEFAULT   12 _ZN3fst17ComputePropertiesINS_10ReverseArcINS_6ArcTplINS_16LatticeWeightTplIfEEEEEEEEmRKNS_3FstIT_EEmPmb
  1586: 0000000000588680   604 FUNC    GLOBAL DEFAULT   12 _ZN5kaldi5nnet327ElementwiseProductComponent14InitFromConfigEPNS_10ConfigLineE
  1587: 00000000002584b0   290 FUNC    WEAK   DEFAULT   12 _ZNK3fst10ComposeFstINS_6ArcTplINS_16LatticeWeightTplIfEEEENS_17DefaultCacheStoreIS4_EEE17InitStateIteratorEPNS_17StateIteratorDataIS4_EE
  1588: 000000000025ca90    75 FUNC    WEAK   DEFAULT   12 _ZNSt23_Sp_counted_ptr_inplaceIN3fst8internal14ComposeFstImplINS0_17DefaultCacheStoreINS0_6ArcTplINS0_17TropicalWeightTplIfEEEEEENS0_21SequenceComposeFilterINS0_7MatcherINS0_3FstIS7_EEEESD_EENS0_24GenericComposeStateTableIS7_NS0_18IntegerFilterStateIaEENS0_24DefaultComposeStateTupleIiSH_EENS0_21CompactHashStateTableISJ_NS0_11ComposeHashISJ_EEEEEEEESaIvELN9__gnu_cxx12_Lock_policyE2EE14_M_get_deleterERKSt9type_info
  1589: 0000000000689f90   418 FUNC    WEAK   DEFAULT   12 _ZN5kaldi12PackedMatrixIfE6ResizeEiNS_16MatrixResizeTypeE
  1590: 00000000008152d8     8 OBJECT  <OS specific>: 10 DEFAULT   25 _ZGVZN3fst12LogWeightTplIdE4TypeB5cxx11EvE4type
  1591: 00000000004b33e0   365 FUNC    WEAK   DEFAULT   12 _ZN5kaldi18LatticeWordAlignerD2Ev
  1592: 0000000000324fe0     7 FUNC    WEAK   DEFAULT   12 _ZNK3fst18MutableArcIteratorINS_9VectorFstINS_10ReverseArcINS_6ArcTplINS_17TropicalWeightTplIfEEEEEENS_11VectorStateIS7_SaIS7_EEEEEE8PositionEv
  1593: 00000000003476b0   988 FUNC    WEAK   DEFAULT   12 _ZN3fst8internal14ComposeFstImplINS_17DefaultCacheStoreINS_6ArcTplINS_17TropicalWeightTplIfEEEEEENS_24AltSequenceComposeFilterINS_7MatcherINS_3FstIS6_EEEESC_EENS_24GenericComposeStateTableIS6_NS_18IntegerFilterStateIaEENS_24DefaultComposeStateTupleIiSG_EENS_21CompactHashStateTableISI_NS_11ComposeHashISI_EEEEEEE8MatchArcISC_EEviPT_RKS6_b
  1594: 00000000006251d0   178 FUNC    WEAK   DEFAULT   12 _ZN5kaldi12CuMatrixBaseIfE10DivRowsVecERKNS_12CuVectorBaseIfEE
  1595: 00000000002529b0    24 FUNC    WEAK   DEFAULT   12 _ZNK3fst9ImplToFstINS_8internal13VectorFstImplINS_11VectorStateINS_6ArcTplINS_16LatticeWeightTplIfEEEESaIS7_EEEEENS_10MutableFstIS7_EEE16NumInputEpsilonsEi
  1596: 00000000006214c0   574 FUNC    WEAK   DEFAULT   12 _ZN5kaldi8CuMatrixIfEC2IdEERKNS_10MatrixBaseIT_EENS_19MatrixTransposeTypeE
  1597: 00000000003850d0   333 FUNC    WEAK   DEFAULT   12 _ZNSt10_HashtableIPN5kaldi7decoder8StdTokenESt4pairIKS3_fESaIS6_ENSt8__detail10_Select1stESt8equal_toIS3_ESt4hashIS3_ENS8_18_Mod_range_hashingENS8_20_Default_ranged_hashENS8_20_Prime_rehash_policyENS8_17_Hashtable_traitsILb0ELb0ELb1EEEE9_M_rehashEmRKm
  1598: 0000000000328d80   362 FUNC    WEAK   DEFAULT   12 _ZN3fst8internal17VectorFstBaseImplINS_11VectorStateINS_10ReverseArcINS_6ArcTplINS_17TropicalWeightTplIfEEEEEESaIS8_EEEED0Ev
  1599: 000000000025fe30   117 FUNC    WEAK   DEFAULT   12 _ZN3fst10MemoryPoolINS_8internal8DfsStateINS_3FstINS_6ArcTplINS_16LatticeWeightTplIfEEEEEEEEED1Ev
  1600: 000000000036b290    69 FUNC    WEAK   DEFAULT   12 _ZN5kaldi23LatticeFasterDecoderTplIN3fst3FstINS1_6ArcTplINS1_17TropicalWeightTplIfEEEEEENS_7decoder16BackpointerTokenEE18DeleteForwardLinksEPS9_
  1601: 0000000000722200   103 OBJECT  WEAK   DEFAULT   14 _ZTSN3fst13StateIteratorINS_14DeterminizeFstINS_10ReverseArcINS_6ArcTplINS_17TropicalWeightTplIfEEEEEEEEEE
  1602: 00000000003807c0   125 FUNC    WEAK   DEFAULT   12 _ZN5kaldi8HashListIlPNS_7decoder16BackpointerTokenEE7SetSizeEm
  1603: 00000000006f4090   113 FUNC    WEAK   DEFAULT   12 _ZNK3fst8internal19SymbolTableImplBase6MemberEl
  1604: 0000000000689ad0    53 FUNC    WEAK   DEFAULT   12 _ZN5kaldi12PackedMatrixIdE7SetDiagEd
  1605: 0000000000410860   135 FUNC    WEAK   DEFAULT   12 _ZNSt10_HashtableIlSt4pairIKliESaIS2_ENSt8__detail10_Select1stESt8equal_toIlESt4hashIlENS4_18_Mod_range_hashingENS4_20_Default_ranged_hashENS4_20_Prime_rehash_policyENS4_17_Hashtable_traitsILb0ELb0ELb1EEEED2Ev
  1606: 00000000006508f0   813 FUNC    WEAK   DEFAULT   12 _ZN5kaldi10MatrixBaseIfE6AddMatEfRKS1_NS_19MatrixTransposeTypeE
  1607: 0000000000269fe0    99 FUNC    WEAK   DEFAULT   12 _ZNSt11_Deque_baseIiSaIiEED1Ev
  1608: 00000000005866f0   217 FUNC    GLOBAL DEFAULT   12 _ZN5kaldi5nnet323ScaleAndOffsetComponentC1ERKS1_
  1609: 000000000055f9a0     6 FUNC    WEAK   DEFAULT   12 _ZNK5kaldi5nnet317ConstantComponent9OutputDimEv
  1610: 0000000000251760     1 FUNC    WEAK   DEFAULT   12 _ZNSt23_Sp_counted_ptr_inplaceIN3fst8internal13VectorFstImplINS0_11VectorStateINS0_10ReverseArcINS0_6ArcTplINS0_23CompactLatticeWeightTplINS0_16LatticeWeightTplIfEEiEEEEEESaISB_EEEEESaIvELN9__gnu_cxx12_Lock_policyE2EED1Ev
  1611: 0000000000801c80    56 OBJECT  WEAK   DEFAULT   21 _ZTVSt23_Sp_counted_ptr_inplaceIN3fst8internal14ComposeFstImplINS0_17DefaultCacheStoreINS0_6ArcTplINS0_17TropicalWeightTplIfEEEEEENS0_21SequenceComposeFilterINS0_7MatcherINS0_3FstIS7_EEEESD_EENS0_24GenericComposeStateTableIS7_NS0_18IntegerFilterStateIaEENS0_24DefaultComposeStateTupleIiSH_EENS0_21CompactHashStateTableISJ_NS0_11ComposeHashISJ_EEEEEEEESaIvELN9__gnu_cxx12_Lock_policyE2EE
  1612: 0000000000309c30  1452 FUNC    WEAK   DEFAULT   12 _ZN3fst13FstRegistererINS_10MatcherFstINS_8ConstFstINS_6ArcTplINS_17TropicalWeightTplIfEEEEjEENS_21LabelLookAheadMatcherINS_13SortedMatcherIS7_EELj1760ENS_18FastLogAccumulatorIS6_EENS_14LabelReachableIS6_SC_NS_18LabelReachableDataIiEEEEEEXadL_ZNS_25olabel_lookahead_fst_typeEEENS_23LabelLookAheadRelabelerIS6_SF_EENS_9AddOnPairISF_SF_EEEEEC2Ev
  1613: 0000000000581e70    62 FUNC    GLOBAL DEFAULT   12 _ZNK5kaldi5nnet315LinearComponent9PropagateEPKNS0_27ComponentPrecomputedIndexesERKNS_12CuMatrixBaseIfEEPS6_
  1614: 0000000000803900   128 OBJECT  WEAK   DEFAULT   21 _ZTVN3fst17ComposeFstMatcherINS_17DefaultCacheStoreINS_6ArcTplINS_17TropicalWeightTplIfEEEEEENS_24AltSequenceComposeFilterINS_7MatcherINS_3FstIS5_EEEESB_EENS_24GenericComposeStateTableIS5_NS_18IntegerFilterStateIaEENS_24DefaultComposeStateTupleIiSF_EENS_21CompactHashStateTableISH_NS_11ComposeHashISH_EEEEEEEE
  1615: 0000000000288430  1586 FUNC    WEAK   DEFAULT   12 _ZN3fst8internal13VectorFstImplINS_11VectorStateINS_6ArcTplINS_16LatticeWeightTplIfEEEESaIS6_EEEEC2ERKNS_3FstIS6_EE
  1616: 0000000000726060   406 OBJECT  WEAK   DEFAULT   14 _ZTSN3fst8internal14ComposeFstImplINS_17DefaultCacheStoreINS_6ArcTplINS_23CompactLatticeWeightTplINS_16LatticeWeightTplIfEEiEEEEEENS_22LookAheadComposeFilterINS_24AltSequenceComposeFilterINS_16LookAheadMatcherINS_3FstIS8_EEEESF_EESF_SF_LNS_9MatchTypeE3EEENS_24GenericComposeStateTableIS8_NS_18IntegerFilterStateIaEENS_24DefaultComposeStateTupleIiSL_EENS_21CompactHashStateTableISN_NS_11ComposeHashISN_EEEEEEEE
  1617: 000000000025d9c0   173 FUNC    WEAK   DEFAULT   12 _ZN3fst17ComposeFstMatcherINS_17DefaultCacheStoreINS_6ArcTplINS_16LatticeWeightTplIfEEEEEENS_22LookAheadComposeFilterINS_21SequenceComposeFilterINS_16LookAheadMatcherINS_3FstIS5_EEEESC_EESC_SC_LNS_9MatchTypeE3EEENS_24GenericComposeStateTableIS5_NS_18IntegerFilterStateIaEENS_24DefaultComposeStateTupleIiSI_EENS_21CompactHashStateTableISK_NS_11ComposeHashISK_EEEEEEED1Ev
  1618: 00000000006700c0   243 FUNC    WEAK   DEFAULT   12 _ZN5kaldi10VectorBaseIfE14CopyRowFromMatIdEEvRKNS_10MatrixBaseIT_EEi
  1619: 00000000006b0a50   972 FUNC    WEAK   DEFAULT   12 _ZN5kaldi20SplitRadixComplexFftIfE13ComputeTablesEv
  1620: 00000000004c0b60   305 FUNC    WEAK   DEFAULT   12 _ZN3fst7ArcSortINS_6ArcTplINS_23CompactLatticeWeightTplINS_16LatticeWeightTplIfEEiEEEENS_13ILabelCompareIS6_EEEEvPNS_10MutableFstIT_EET0_
  1621: 000000000052f410   473 FUNC    GLOBAL DEFAULT   12 _ZN5kaldi5nnet315IoSpecificationC2ERKNSt7__cxx1112basic_stringIcSt11char_traitsIcESaIcEEEii
  1622: 0000000000448950   531 FUNC    GLOBAL DEFAULT   12 _ZN5kaldi15OnlineTransformC1ERKNS_10MatrixBaseIfEEPNS_22OnlineFeatureInterfaceE
  1623: 00000000006e1c70   141 FUNC    GLOBAL DEFAULT   12 _ZN5kaldi8internal17LocateSymbolRangeERKNSt7__cxx1112basic_stringIcSt11char_traitsIcESaIcEEEPmS9_
  1624: 00000000003c7a20   578 FUNC    WEAK   DEFAULT   12 _ZNSt6vectorIN3fst6ArcTplINS0_16LatticeWeightTplIfEEEENS0_13PoolAllocatorIS4_EEE12emplace_backIJRKiSA_S3_iEEEvDpOT_
  1625: 0000000000594c00  1285 FUNC    GLOBAL DEFAULT   12 _ZN5kaldi5nnet318CompositeComponent4ReadERSib
  1626: 0000000000445fc0     1 FUNC    GLOBAL DEFAULT   12 _ZNK5kaldi23SlidingWindowCmnOptions5CheckEv
  1627: 00000000002529f0    11 FUNC    WEAK   DEFAULT   12 _ZNK3fst9ImplToFstINS_8internal13VectorFstImplINS_11VectorStateINS_6ArcTplINS_16LatticeWeightTplIfEEEESaIS7_EEEEENS_10MutableFstIS7_EEE4TypeB5cxx11Ev
  1628: 000000000062f980     5 FUNC    WEAK   DEFAULT   12 _ZN5kaldi12CuVectorBaseIfE11MulElementsERKS1_
  1629: 0000000000620ea0    21 FUNC    WEAK   DEFAULT   12 _ZN5kaldi12CuMatrixBaseIdE10CopyFromTpIfEEvRKNS_10CuTpMatrixIT_EENS_19MatrixTransposeTypeE
  1630: 0000000000326190    10 FUNC    WEAK   DEFAULT   12 _ZNSt23_Sp_counted_ptr_inplaceIN3fst13StringPrinterINS0_6ArcTplINS0_17TropicalWeightTplIfEEEEEESaIvELN9__gnu_cxx12_Lock_policyE2EE10_M_destroyEv
  1631: 00000000004098b0  1538 FUNC    WEAK   DEFAULT   12 _ZNK5kaldi34LatticeIncrementalOnlineDecoderTplIN3fst13GrammarFstTplIKNS1_8ConstFstINS1_6ArcTplINS1_17TropicalWeightTplIfEEEEjEEEEE11GetBestPathEPNS1_9VectorFstINS4_INS1_16LatticeWeightTplIfEEEENS1_11VectorStateISF_SaISF_EEEEEb
  1632: 0000000000327f80   173 FUNC    WEAK   DEFAULT   12 _ZN3fst17ComposeFstMatcherINS_17DefaultCacheStoreINS_6ArcTplINS_17TropicalWeightTplIfEEEEEENS_17NullComposeFilterINS_7MatcherINS_3FstIS5_EEEESB_EENS_24GenericComposeStateTableIS5_NS_18TrivialFilterStateENS_24DefaultComposeStateTupleIiSE_EENS_21CompactHashStateTableISG_NS_11ComposeHashISG_EEEEEEED1Ev
  1633: 00000000002fbf40    10 FUNC    WEAK   DEFAULT   12 _ZNSt15_Sp_counted_ptrIPN3fst9AddOnPairINS0_18LabelReachableDataIiEES3_EELN9__gnu_cxx12_Lock_policyE2EED0Ev
  1634: 000000000064bb10    39 FUNC    WEAK   DEFAULT   12 _ZN5kaldi10MatrixBaseIfE3RowEi
  1635: 000000000025d0b0   108 FUNC    WEAK   DEFAULT   12 _ZN3fst9FifoQueueIiED0Ev
  1636: 0000000000809d58   288 OBJECT  WEAK   DEFAULT   21 _ZTVN5kaldi5nnet318CompositeComponentE
  1637: 00000000002f01a0   371 FUNC    WEAK   DEFAULT   12 _ZNSt10_HashtableISt6vectorIiSaIiEESt4pairIKS2_iESaIS5_ENSt8__detail10_Select1stESt8equal_toIS2_EN5kaldi12VectorHasherIiEENS7_18_Mod_range_hashingENS7_20_Default_ranged_hashENS7_20_Prime_rehash_policyENS7_17_Hashtable_traitsILb0ELb0ELb1EEEE9_M_rehashEmRKm
  1638: 00000000004ec430   680 FUNC    GLOBAL DEFAULT   12 _ZN5kaldi14WritePosteriorERSobRKSt6vectorIS1_ISt4pairIifESaIS3_EESaIS5_EE
  1639: 0000000000723380   305 OBJECT  WEAK   DEFAULT   14 _ZTSN3fst8internal14ComposeFstImplINS_17DefaultCacheStoreINS_6ArcTplINS_17TropicalWeightTplIfEEEEEENS_20NoMatchComposeFilterINS_7MatcherINS_3FstIS6_EEEESC_EENS_24GenericComposeStateTableIS6_NS_18TrivialFilterStateENS_24DefaultComposeStateTupleIiSF_EENS_21CompactHashStateTableISH_NS_11ComposeHashISH_EEEEEEEE
  1640: 0000000000466730   333 FUNC    WEAK   DEFAULT   12 _ZNSt10_HashtableIPKSt6vectorIN3fst25LatticeDeterminizerPrunedINS1_16LatticeWeightTplIfEEiE7ElementESaIS6_EESt4pairIKSA_iESaISD_ENSt8__detail10_Select1stENS5_11SubsetEqualENS5_9SubsetKeyENSF_18_Mod_range_hashingENSF_20_Default_ranged_hashENSF_20_Prime_rehash_policyENSF_17_Hashtable_traitsILb1ELb0ELb1EEEE9_M_rehashEmRKm
  1641: 0000000000434200   379 FUNC    GLOBAL DEFAULT   12 _ZNK5kaldi7FullGmm19ComponentPosteriorsERKNS_10VectorBaseIfEEPS2_
  1642: 00000000006262d0    90 FUNC    WEAK   DEFAULT   12 _ZNK5kaldi12CuMatrixBaseIfE5RangeEiiii
  1643: 000000000064d260   181 FUNC    WEAK   DEFAULT   12 _ZN5kaldi10MatrixBaseIfE8CopyRowsERKS1_PKi
  1644: 0000000000800640    80 OBJECT  WEAK   DEFAULT   21 _ZTVN3fst9FifoQueueIiEE
  1645: 000000000059cbe0     6 FUNC    WEAK   DEFAULT   12 _ZNK5kaldi5nnet315LinearComponent8InputDimEv
  1646: 000000000040e1c0    10 FUNC    WEAK   DEFAULT   12 _ZNSt15_Sp_counted_ptrIPN3fst8internal15SymbolTableImplELN9__gnu_cxx12_Lock_policyE2EE10_M_destroyEv
  1647: 00000000002fbfb0    10 FUNC    WEAK   DEFAULT   12 _ZNSt23_Sp_counted_ptr_inplaceIN3fst8internal12ConstFstImplINS0_6ArcTplINS0_17TropicalWeightTplIfEEEEjEESaIvELN9__gnu_cxx12_Lock_policyE2EED0Ev
  1648: 0000000000439b50   112 FUNC    GLOBAL DEFAULT   12 _ZN5kaldi13DiagGmmNormal6ResizeEii
  1649: 0000000000627130   493 FUNC    WEAK   DEFAULT   12 _ZNK5kaldi12CuMatrixBaseIdE11ApproxEqualERKS1_f
  1650: 00000000003d44a0   381 FUNC    WEAK   DEFAULT   12 _ZN5kaldi28LatticeIncrementalDecoderTplIN3fst8ConstFstINS1_6ArcTplINS1_17TropicalWeightTplIfEEEEjEENS_7decoder8StdTokenEE19PruneTokensForFrameEi
  1651: 00000000006f1dc0  2156 FUNC    GLOBAL DEFAULT   12 _ZN3fst8internal15SymbolTableImpl8ReadTextERSiRKNSt7__cxx1112basic_stringIcSt11char_traitsIcESaIcEEERKNS_22SymbolTableTextOptionsE
  1652: 0000000000724c60   144 OBJECT  WEAK   DEFAULT   14 _ZTSNSt6thread11_State_implINS_8_InvokerISt5tupleIJPFvPN5kaldi13TaskSequencerINS3_33IvectorExtractorUpdateWeightClassEE15RunTaskArgsListEES8_EEEEEE
  1653: 0000000000628410     5 FUNC    WEAK   DEFAULT   12 _ZN5kaldi12CuMatrixBaseIdE10AddMatSmatEdRKS1_RKNS_14CuSparseMatrixIdEENS_19MatrixTransposeTypeEd
  1654: 00000000003d1b00    10 FUNC    WEAK   DEFAULT   12 _ZNK5kaldi28LatticeIncrementalDecoderTplIN3fst3FstINS1_6ArcTplINS1_17TropicalWeightTplIfEEEEEENS_7decoder8StdTokenEE10GetOptionsEv
  1655: 000000000065b6a0   366 FUNC    WEAK   DEFAULT   12 _ZN5kaldi10MatrixBaseIdE8DiffTanhERKS1_S3_
  1656: 00000000006eb630   375 FUNC    WEAK   DEFAULT   12 _ZNSt8_Rb_treeINSt7__cxx1112basic_stringIcSt11char_traitsIcESaIcEEESt4pairIKS5_15FlagDescriptionIlEESt10_Select1stISA_ESt4lessIS5_ESaISA_EE24_M_get_insert_unique_posERS7_
  1657: 0000000000251340     9 FUNC    WEAK   DEFAULT   12 _ZN3fst29ScaleDeterministicOnDemandFst5StartEv
  1658: 000000000054d800   430 FUNC    GLOBAL DEFAULT   12 _ZNK5kaldi5nnet329SwitchingForwardingDescriptor15GetScaleForNodeEi
  1659: 00000000006bd030    83 FUNC    GLOBAL DEFAULT   12 _ZN5kaldi9Semaphore7TryWaitEv
  1660: 0000000000453720   291 FUNC    GLOBAL DEFAULT   12 _ZNK5kaldi14LinearResample10FilterFuncEf
  1661: 000000000059dd50   123 FUNC    WEAK   DEFAULT   12 _ZN5kaldi5nnet318CompositeComponentD2Ev
  1662: 0000000000425360   996 FUNC    GLOBAL DEFAULT   12 _ZN5kaldi21IvectorExtractorStatsC1ERKS0_
  1663: 00000000006f6a90   917 FUNC    GLOBAL DEFAULT   12 _ZN3fst11StringSplitERKNSt7__cxx1112basic_stringIcSt11char_traitsIcESaIcEEES7_
  1664: 000000000044a460    59 FUNC    WEAK   DEFAULT   12 _ZNK5kaldi19OnlineAppendFeature11IsLastFrameEi
  1665: 00000000006546e0   321 FUNC    WEAK   DEFAULT   12 _ZN5kaldi6MatrixIdEC1EiiNS_16MatrixResizeTypeENS_16MatrixStrideTypeE
  1666: 0000000000332790  1634 FUNC    WEAK   DEFAULT   12 _ZN3fst13PoolAllocatorINS_10ReverseArcINS_6ArcTplINS_17TropicalWeightTplIfEEEEEEE10deallocateEPS6_m
  1667: 000000000025ada0    55 FUNC    WEAK   DEFAULT   12 _ZN3fst8SccQueueIiNS_9QueueBaseIiEEED1Ev
  1668: 000000000054f700   431 FUNC    GLOBAL DEFAULT   12 _ZN5kaldi5nnet317GeneralDescriptor13ParseFailoverERKSt6vectorINSt7__cxx1112basic_stringIcSt11char_traitsIcESaIcEEESaIS8_EEPPKS8_
  1669: 000000000054cc20   214 FUNC    GLOBAL DEFAULT   12 _ZNK5kaldi5nnet310Descriptor11WriteConfigERSoRKSt6vectorINSt7__cxx1112basic_stringIcSt11char_traitsIcESaIcEEESaIS9_EE
  1670: 000000000035b5a0    24 FUNC    WEAK   DEFAULT   12 _ZNK5kaldi41SingleUtteranceNnet3IncrementalDecoderTplIN3fst3FstINS1_6ArcTplINS1_17TropicalWeightTplIfEEEEEEE16NumFramesDecodedEv
  1671: 00000000005c2630   184 FUNC    GLOBAL DEFAULT   12 _ZNK5kaldi5nnet319ComputationAnalysis27FirstNontrivialMatrixAccessEi
  1672: 0000000000626770   184 FUNC    WEAK   DEFAULT   12 _ZNK5kaldi12CuMatrixBaseIfE6LookupERKSt6vectorI9Int32PairSaIS3_EEPf
  1673: 000000000041f760   212 FUNC    GLOBAL DEFAULT   12 _ZN5kaldi28OnlineIvectorEstimationStats5ScaleEd
  1674: 0000000000610120   134 FUNC    WEAK   DEFAULT   12 _ZN5kaldi5nnet321ComputationRenumbererD2Ev
  1675: 00000000003f4d40   443 FUNC    WEAK   DEFAULT   12 _ZNSt8__detail9_Map_baseIPN5kaldi7decoder16BackpointerTokenESt4pairIKS4_lESaIS7_ENS_10_Select1stESt8equal_toIS4_ESt4hashIS4_ENS_18_Mod_range_hashingENS_20_Default_ranged_hashENS_20_Prime_rehash_policyENS_17_Hashtable_traitsILb0ELb0ELb1EEELb1EEixERS6_
  1676: 00000000005428e0   241 FUNC    WEAK   DEFAULT   12 _ZNSt6vectorIN5kaldi5nnet317CommandAttributesESaIS2_EED2Ev
  1677: 0000000000260480   263 FUNC    WEAK   DEFAULT   12 _ZNK3fst3FstINS_6ArcTplINS_16LatticeWeightTplIfEEEEE5WriteERKNSt7__cxx1112basic_stringIcSt11char_traitsIcESaIcEEE
  1678: 000000000027e380   347 FUNC    WEAK   DEFAULT   12 _ZN3fst15TopOrderVisitorINS_10ReverseArcINS_6ArcTplINS_23CompactLatticeWeightTplINS_16LatticeWeightTplIfEEiEEEEEEE11FinishVisitEv
  1679: 0000000000676920    87 FUNC    WEAK   DEFAULT   12 _ZN5kaldi10VectorBaseIdE15ApplyLogAndCopyERKS1_
  1680: 00000000002fd9d0    75 FUNC    WEAK   DEFAULT   12 _ZNSt23_Sp_counted_ptr_inplaceIN3fst8internal12NGramFstImplINS0_6ArcTplINS0_17TropicalWeightTplIfEEEEEESaIvELN9__gnu_cxx12_Lock_policyE2EE14_M_get_deleterERKSt9type_info
  1681: 0000000000674f80   334 FUNC    WEAK   DEFAULT   12 _ZNK5kaldi10VectorBaseIfE3MinEv
  1682: 0000000000805520    24 OBJECT  WEAK   DEFAULT   21 _ZTIN5kaldi17OnlineBaseFeatureE
  1683: 0000000000683300   663 FUNC    WEAK   DEFAULT   12 _ZN5kaldi13OptimizeLbfgsIfEC2ERKNS_10VectorBaseIfEERKNS_12LbfgsOptionsE
  1684: 0000000000801e48    40 OBJECT  WEAK   DEFAULT   21 _ZTVN3fst10MemoryPoolINS_13PoolAllocatorINS_10CacheStateINS_6ArcTplINS_17TropicalWeightTplIfEEEENS1_IS6_EEEEE2TNILi1EEEEE
  1685: 000000000055e190  1759 FUNC    GLOBAL DEFAULT   12 _ZNK5kaldi5nnet323GeneralDropoutComponent17PrecomputeIndexesERKNS0_19MiscComputationInfoERKSt6vectorINS0_5IndexESaIS6_EESA_b
  1686: 00000000004f20d0   193 FUNC    WEAK   DEFAULT   12 _ZSt13__heap_selectIN9__gnu_cxx17__normal_iteratorIPSt4pairIifESt6vectorIS3_SaIS3_EEEENS0_5__ops15_Iter_comp_iterIN5kaldi20CompareReverseSecondEEEEvT_SE_SE_T0_
  1687: 000000000025fdb0   117 FUNC    WEAK   DEFAULT   12 _ZN3fst10MemoryPoolINS_8internal8DfsStateINS_3FstINS_10ReverseArcINS_6ArcTplINS_16LatticeWeightTplIfEEEEEEEEEEED2Ev
  1688: 00000000005f84a0   561 FUNC    WEAK   DEFAULT   12 _ZNSt8__detail9_Map_baseISt4pairIimES1_IKS2_N5kaldi5nnet319ExampleMergingStats19StatsForExampleSizeEESaIS8_ENS_10_Select1stESt8equal_toIS2_ENS4_10PairHasherIimEENS_18_Mod_range_hashingENS_20_Default_ranged_hashENS_20_Prime_rehash_policyENS_17_Hashtable_traitsILb0ELb0ELb1EEELb1EEixERS3_
  1689: 0000000000728160    36 OBJECT  WEAK   DEFAULT   14 _ZTSN5kaldi5nnet319FixedScaleComponentE
  1690: 000000000052f070    66 FUNC    GLOBAL DEFAULT   12 _ZNK5kaldi5nnet315NnetComputation13SubMatrixInfoeqERKS2_
  1691: 0000000000279200   722 FUNC    WEAK   DEFAULT   12 _ZN3fst11make_uniqueINS_13SortedMatcherINS_3FstINS_6ArcTplINS_16LatticeWeightTplIfEEEEEEEEJPKS7_RNS_9MatchTypeEEEESt10unique_ptrIT_St14default_deleteISE_EEDpOT0_
  1692: 00000000007feca8    24 OBJECT  WEAK   DEFAULT   21 _ZTIN3fst10MemoryPoolINS_13PoolAllocatorINS_10ReverseArcINS_6ArcTplINS_16LatticeWeightTplIfEEEEEEE2TNILi64EEEEE
  1693: 00000000007fe0c0    24 OBJECT  WEAK   DEFAULT   21 _ZTIN3fst9ImplToFstINS_8internal13VectorFstImplINS_11VectorStateINS_10ReverseArcINS_6ArcTplINS_16LatticeWeightTplIfEEEEEESaIS9_EEEEENS_10MutableFstIS9_EEEE
  1694: 00000000006b3040    36 FUNC    WEAK   DEFAULT   12 _ZN5kaldi17SplitRadixRealFftIdEC1ERKS1_
  1695: 0000000000726b20    41 OBJECT  WEAK   DEFAULT   14 _ZTSN3fst8internal15MemoryArenaImplILm392EEE
  1696: 0000000000576cb0   131 FUNC    GLOBAL DEFAULT   12 _ZN5kaldi5nnet325CachingOptimizingCompilerC2ERKNS0_4NnetENS0_32CachingOptimizingCompilerOptionsE
  1697: 0000000000286b30   125 FUNC    WEAK   DEFAULT   12 _ZN3fst17ComposeFstMatcherINS_17DefaultCacheStoreINS_6ArcTplINS_16LatticeWeightTplIfEEEEEENS_24AltSequenceComposeFilterINS_7MatcherINS_3FstIS5_EEEESB_EENS_24GenericComposeStateTableIS5_NS_18IntegerFilterStateIaEENS_24DefaultComposeStateTupleIiSF_EENS_21CompactHashStateTableISH_NS_11ComposeHashISH_EEEEEEED1Ev
  1698: 00000000003550d0   591 FUNC    WEAK   DEFAULT   12 _ZN5kaldi22OnlineSilenceWeighting23ComputeCurrentTracebackIN3fst13GrammarFstTplIKNS2_8ConstFstINS2_6ArcTplINS2_17TropicalWeightTplIfEEEEjEEEEEEvRKNS_29LatticeFasterOnlineDecoderTplIT_EEb
  1699: 0000000000308a10   644 FUNC    WEAK   DEFAULT   12 _ZN3fst14LabelReachableINS_6ArcTplINS_17TropicalWeightTplIfEEEENS_18FastLogAccumulatorIS4_EENS_18LabelReachableDataIiEEED1Ev
  1700: 0000000000441360   493 FUNC    WEAK   DEFAULT   12 _ZNSt6vectorIPN5kaldi11ClusterableESaIS2_EE17_M_default_appendEm
  1701: 0000000000683bf0    55 FUNC    WEAK   DEFAULT   12 _ZN5kaldi13OptimizeLbfgsIdE1YEi
  1702: 000000000026a830   813 FUNC    WEAK   DEFAULT   12 _ZN4json4JSONC2ERKS0_
  1703: 00000000005f9ec0   170 FUNC    GLOBAL DEFAULT   12 _ZNK5kaldi5nnet321NnetIoStructureHasherclERKNS0_6NnetIoE
  1704: 00000000005d0fc0   111 FUNC    GLOBAL DEFAULT   12 _ZN5kaldi5nnet325LstmNonlinearityComponent17ConsolidateMemoryEv
  1705: 0000000000289040   274 FUNC    WEAK   DEFAULT   12 _ZN3fst16ImplToMutableFstINS_8internal13VectorFstImplINS_11VectorStateINS_6ArcTplINS_16LatticeWeightTplIfEEEESaIS7_EEEEENS_10MutableFstIS7_EEE10DeleteArcsEi
  1706: 0000000000583a70   177 FUNC    GLOBAL DEFAULT   12 _ZN5kaldi5nnet320BlockAffineComponent11UnVectorizeERKNS_10VectorBaseIfEE
  1707: 00000000002fbfc0    10 FUNC    WEAK   DEFAULT   12 _ZNSt23_Sp_counted_ptr_inplaceIN3fst8internal12NGramFstImplINS0_6ArcTplINS0_17TropicalWeightTplIfEEEEEESaIvELN9__gnu_cxx12_Lock_policyE2EED0Ev
  1708: 00000000002be430  2270 FUNC    WEAK   DEFAULT   12 _ZN3fst8internal13VectorFstImplINS_11VectorStateINS_10ReverseArcINS_6ArcTplINS_23CompactLatticeWeightTplINS_16LatticeWeightTplIfEEiEEEEEESaISA_EEEEC2ERKNS_3FstISA_EE
  1709: 0000000000452510     1 FUNC    WEAK   DEFAULT   12 _ZN5kaldi19OnlineMatrixFeatureD2Ev
  1710: 00000000006c8460     5 FUNC    GLOBAL DEFAULT   12 _ZN5kaldi12ParseOptions8RegisterERKNSt7__cxx1112basic_stringIcSt11char_traitsIcESaIcEEEPdS8_
  1711: 000000000065ef30    31 FUNC    WEAK   DEFAULT   12 _ZN5kaldi9SubMatrixIfEC2ERKS1_
  1712: 00000000008030a8   160 OBJECT  WEAK   DEFAULT   21 _ZTVN3fst10MatcherFstINS_8ConstFstINS_6ArcTplINS_17TropicalWeightTplIfEEEEjEENS_21LabelLookAheadMatcherINS_13SortedMatcherIS6_EELj1760ENS_18FastLogAccumulatorIS5_EENS_14LabelReachableIS5_SB_NS_18LabelReachableDataIiEEEEEEXadL_ZNS_25olabel_lookahead_fst_typeEEENS_23LabelLookAheadRelabelerIS5_SE_EENS_9AddOnPairISE_SE_EEEE
  1713: 000000000059ce40     6 FUNC    WEAK   DEFAULT   12 _ZNK5kaldi5nnet325ConstantFunctionComponent9OutputDimEv
  1714: 00000000007fd3f0   128 OBJECT  WEAK   DEFAULT   21 _ZTVN3fst17ComposeFstMatcherINS_17DefaultCacheStoreINS_6ArcTplINS_16LatticeWeightTplIfEEEEEENS_18MatchComposeFilterINS_7MatcherINS_3FstIS5_EEEESB_EENS_24GenericComposeStateTableIS5_NS_18IntegerFilterStateIaEENS_24DefaultComposeStateTupleIiSF_EENS_21CompactHashStateTableISH_NS_11ComposeHashISH_EEEEEEEE
  1715: 00000000005fad40   123 FUNC    WEAK   DEFAULT   12 _ZN5kaldi13GeneralMatrixD2Ev
  1716: 00000000002eba70    59 FUNC    WEAK   DEFAULT   12 _ZN3fst17ComposeFstMatcherINS_17DefaultCacheStoreINS_6ArcTplINS_16LatticeWeightTplIfEEEEEENS_24AltSequenceComposeFilterINS_7MatcherINS_3FstIS5_EEEESB_EENS_24GenericComposeStateTableIS5_NS_18IntegerFilterStateIaEENS_24DefaultComposeStateTupleIiSF_EENS_21CompactHashStateTableISH_NS_11ComposeHashISH_EEEEEEE4NextEv
  1717: 0000000000720bc0    58 OBJECT  WEAK   DEFAULT   14 _ZTSN3fst8ConstFstINS_6ArcTplINS_17TropicalWeightTplIfEEEEjEE
  1718: 000000000043cfc0  1040 FUNC    GLOBAL DEFAULT   12 _ZN5kaldi13ClusterKMeansERKSt6vectorIPNS_11ClusterableESaIS2_EEiPS4_PS0_IiSaIiEENS_20ClusterKMeansOptionsE
  1719: 00000000006b9d40     1 FUNC    WEAK   DEFAULT   12 _ZN5kaldi17StandardInputImplD1Ev
  1720: 000000000062aee0   172 FUNC    WEAK   DEFAULT   12 _ZN5kaldi14CuPackedMatrixIfEC2EiNS_16MatrixResizeTypeE
  1721: 00000000003a46e0   272 FUNC    WEAK   DEFAULT   12 _ZNK5kaldi23LatticeFasterDecoderTplIN3fst13GrammarFstTplINS1_9VectorFstINS1_6ArcTplINS1_17TropicalWeightTplIfEEEENS1_11VectorStateIS7_SaIS7_EEEEEEENS_7decoder8StdTokenEE11GetBestPathEPNS3_INS4_INS1_16LatticeWeightTplIfEEEENS8_ISI_SaISI_EEEEEb
  1722: 00000000004b1230    21 FUNC    WEAK   DEFAULT   12 _ZNSt15_Sp_counted_ptrIPN3fst8internal18ComposeFstImplBaseINS0_6ArcTplINS0_23CompactLatticeWeightTplINS0_16LatticeWeightTplIfEEiEEEENS0_17DefaultCacheStoreIS8_EENS0_10ComposeFstIS8_SA_EEEELN9__gnu_cxx12_Lock_policyE2EE10_M_disposeEv
  1723: 0000000000545d80   177 FUNC    GLOBAL DEFAULT   12 _ZN5kaldi5nnet330TimeHeightConvolutionComponent12UpdateSimpleERKNS1_18PrecomputedIndexesERKNS_12CuMatrixBaseIfEES8_
  1724: 0000000000805ef8    24 OBJECT  WEAK   DEFAULT   21 _ZTIN3fst8internal14ComposeFstImplINS_17DefaultCacheStoreINS_6ArcTplINS_23CompactLatticeWeightTplINS_16LatticeWeightTplIfEEiEEEEEENS_22LookAheadComposeFilterINS_24AltSequenceComposeFilterINS_16LookAheadMatcherINS_3FstIS8_EEEESF_EESF_SF_LNS_9MatchTypeE3EEENS_24GenericComposeStateTableIS8_NS_18IntegerFilterStateIaEENS_24DefaultComposeStateTupleIiSL_EENS_21CompactHashStateTableISN_NS_11ComposeHashISN_EEEEEEEE
  1725: 00000000008057d0    80 OBJECT  WEAK   DEFAULT   21 _ZTVN5kaldi15OnlineTransformE
  1726: 0000000000344670   951 FUNC    WEAK   DEFAULT   12 _ZN3fst8internal22DeterminizeFstImplBaseINS_10ReverseArcINS_6ArcTplINS_17TropicalWeightTplIfEEEEEEEC1ERKS8_
  1727: 00000000003b1300    13 FUNC    WEAK   DEFAULT   12 _ZN5kaldi29LatticeFasterOnlineDecoderTplIN3fst8ConstFstINS1_6ArcTplINS1_17TropicalWeightTplIfEEEEjEEE16BestPathIteratorC1EPvi
  1728: 00000000005707c0   165 FUNC    WEAK   DEFAULT   12 _ZNSt10_HashtableINSt7__cxx1112basic_stringIcSt11char_traitsIcESaIcEEES5_SaIS5_ENSt8__detail9_IdentityESt8equal_toIS5_EN5kaldi12StringHasherENS7_18_Mod_range_hashingENS7_20_Default_ranged_hashENS7_20_Prime_rehash_policyENS7_17_Hashtable_traitsILb0ELb1ELb1EEEED1Ev
  1729: 000000000028e9a0   371 FUNC    WEAK   DEFAULT   12 _ZN3fst20MemoryPoolCollection4PoolINS_13PoolAllocatorINSt8__detail10_Hash_nodeIiLb1EEEE2TNILi1EEEEEPNS_10MemoryPoolIT_EEv
  1730: 0000000000718e40   127 OBJECT  WEAK   DEFAULT   14 _ZTSN3fst9ImplToFstINS_8internal22DeterminizeFstImplBaseINS_10ReverseArcINS_6ArcTplINS_16LatticeWeightTplIfEEEEEEEENS_3FstIS8_EEEE
  1731: 0000000000560c80    39 FUNC    WEAK   DEFAULT   12 _ZNSt6vectorI9Int32PairSaIS0_EED2Ev
  1732: 000000000063b470  1064 FUNC    WEAK   DEFAULT   12 _ZN5kaldi16CompressedMatrix11CopyFromMatIfEEvRKNS_10MatrixBaseIT_EENS_17CompressionMethodE
  1733: 0000000000610260   263 FUNC    WEAK   DEFAULT   12 _ZN5kaldi5nnet321DerivativeTimeLimiterD1Ev
  1734: 00000000003f36a0   366 FUNC    WEAK   DEFAULT   12 _ZN5kaldi28LatticeIncrementalDecoderTplIN3fst8ConstFstINS1_6ArcTplINS1_17TropicalWeightTplIfEEEEjEENS_7decoder16BackpointerTokenEE16FinalizeDecodingEv
  1735: 000000000036ab20    48 FUNC    WEAK   DEFAULT   12 _ZN5kaldi23LatticeFasterDecoderTplIN3fst9VectorFstINS1_6ArcTplINS1_17TropicalWeightTplIfEEEENS1_11VectorStateIS6_SaIS6_EEEEENS_7decoder8StdTokenEE11DeleteElemsEPNS_8HashListIiPSC_E4ElemE
  1736: 00000000006c6b40  2567 FUNC    GLOBAL DEFAULT   12 _ZN5kaldi12ParseOptions16RegisterSpecificERKNSt7__cxx1112basic_stringIcSt11char_traitsIcESaIcEEES8_PfS8_b
  1737: 0000000000551600    39 FUNC    WEAK   DEFAULT   12 _ZNSt6vectorIPN5kaldi5nnet320ForwardingDescriptorESaIS3_EED2Ev
  1738: 0000000000299240   375 FUNC    WEAK   DEFAULT   12 _ZN3fst8internal9CacheImplINS_10ReverseArcINS_6ArcTplINS_16LatticeWeightTplIfEEEEEEED0Ev
  1739: 00000000002c2900   463 FUNC    WEAK   DEFAULT   12 _ZN3fst16ImplToMutableFstINS_8internal13VectorFstImplINS_11VectorStateINS_10ReverseArcINS_6ArcTplINS_23CompactLatticeWeightTplINS_16LatticeWeightTplIfEEiEEEEEESaISB_EEEEENS_10MutableFstISB_EEE6AddArcEiRKSB_
  1740: 0000000000324670     1 FUNC    WEAK   DEFAULT   12 _ZNSt15_Sp_counted_ptrIPN3fst8internal13VectorFstImplINS0_11VectorStateINS0_6ArcTplINS0_17TropicalWeightTplIfEEEESaIS7_EEEEELN9__gnu_cxx12_Lock_policyE2EED2Ev
  1741: 0000000000447a90   213 FUNC    GLOBAL DEFAULT   12 _ZN5kaldi15RecyclingVectorD1Ev
  1742: 0000000000501920   113 FUNC    WEAK   DEFAULT   12 _ZNSt6vectorIN5kaldi11HmmTopology8HmmStateESaIS2_EED1Ev
  1743: 00000000003d9a70    39 FUNC    WEAK   DEFAULT   12 _ZNSt6vectorIN5kaldi28LatticeIncrementalDecoderTplIN3fst9VectorFstINS2_6ArcTplINS2_17TropicalWeightTplIfEEEENS2_11VectorStateIS7_SaIS7_EEEEENS0_7decoder16BackpointerTokenEE9TokenListESaISF_EED2Ev
  1744: 00000000007fe230    24 OBJECT  WEAK   DEFAULT   21 _ZTIN3fst10MemoryPoolINS_8internal8DfsStateINS_10MutableFstINS_6ArcTplINS_23CompactLatticeWeightTplINS_16LatticeWeightTplIfEEiEEEEEEEEEE
  1745: 00000000006a47c0   142 FUNC    WEAK   DEFAULT   12 _ZNK5kaldi12SparseMatrixIdE17CopyElementsToVecEPNS_10VectorBaseIdEE
  1746: 00000000008024e8    40 OBJECT  WEAK   DEFAULT   21 _ZTVN3fst8internal14MemoryPoolImplILm1280EEE
  1747: 00000000003256a0    17 FUNC    WEAK   DEFAULT   12 _ZNK3fst17ComposeFstMatcherINS_17DefaultCacheStoreINS_6ArcTplINS_17TropicalWeightTplIfEEEEEENS_18MatchComposeFilterINS_7MatcherINS_3FstIS5_EEEESB_EENS_24GenericComposeStateTableIS5_NS_18IntegerFilterStateIaEENS_24DefaultComposeStateTupleIiSF_EENS_21CompactHashStateTableISH_NS_11ComposeHashISH_EEEEEEE5ValueEv
  1748: 000000000025fcb0   117 FUNC    WEAK   DEFAULT   12 _ZN3fst8internal14MemoryPoolImplILm48EED1Ev
  1749: 000000000071cd80    41 OBJECT  WEAK   DEFAULT   14 _ZTSN3fst8internal15MemoryArenaImplILm328EEE
  1750: 00000000005813e0   237 FUNC    GLOBAL DEFAULT   12 _ZN5kaldi5nnet316SigmoidComponent10StoreStatsERKNS_12CuMatrixBaseIfEES5_Pv
  1751: 00000000003350e0   173 FUNC    WEAK   DEFAULT   12 _ZN3fst8internal14ComposeFstImplINS_17DefaultCacheStoreINS_6ArcTplINS_17TropicalWeightTplIfEEEEEENS_17NullComposeFilterINS_7MatcherINS_3FstIS6_EEEESC_EENS_24GenericComposeStateTableIS6_NS_18TrivialFilterStateENS_24DefaultComposeStateTupleIiSF_EENS_21CompactHashStateTableISH_NS_11ComposeHashISH_EEEEEEED0Ev
  1752: 0000000000580ca0    13 FUNC    GLOBAL DEFAULT   12 _ZNK5kaldi5nnet320BlockAffineComponent13NumParametersEv
  1753: 00000000006edfa0   221 FUNC    GLOBAL DEFAULT   12 _ZN3fst8internal20ConstSymbolTableImpl9AddSymbolESt17basic_string_viewIcSt11char_traitsIcEEl
  1754: 000000000044ac30    12 FUNC    WEAK   DEFAULT   12 _ZNK5kaldi24OnlineGenericBaseFeatureINS_13FbankComputerEE14NumFramesReadyEv
  1755: 00000000005331c0   722 FUNC    GLOBAL DEFAULT   12 _ZN5kaldi5nnet315NnetComputation18ComputeCudaIndexesEv
  1756: 0000000000412b60   249 FUNC    WEAK   DEFAULT   12 _ZNSt8_Rb_treeIN3fst18GrammarFstPreparer11ArcCategoryESt4pairIKS2_S3_IifEESt10_Select1stIS6_ESt4lessIS2_ESaIS6_EE24_M_get_insert_unique_posERS4_
  1757: 000000000036d700   567 FUNC    WEAK   DEFAULT   12 _ZN5kaldi23LatticeFasterDecoderTplIN3fst13GrammarFstTplIKNS1_8ConstFstINS1_6ArcTplINS1_17TropicalWeightTplIfEEEEjEEEENS_7decoder8StdTokenEE17PruneActiveTokensEf
  1758: 00000000003e60c0   652 FUNC    WEAK   DEFAULT   12 _ZN5kaldi28LatticeIncrementalDecoderTplIN3fst3FstINS1_6ArcTplINS1_17TropicalWeightTplIfEEEEEENS_7decoder16BackpointerTokenEEC2ERKNS_31LatticeIncrementalDecoderConfigEPS7_RKNS_21TransitionInformationE
  1759: 00000000008061c8    48 OBJECT  WEAK   DEFAULT   21 _ZTVN3fst8internal9CacheImplINS_6ArcTplINS_23CompactLatticeWeightTplINS_16LatticeWeightTplIfEEiEEEEEE
  1760: 000000000026f340    67 FUNC    WEAK   DEFAULT   12 _ZN3fst8internal14MemoryPoolImplILm72EED0Ev
  1761: 0000000000592ee0   380 FUNC    GLOBAL DEFAULT   12 _ZN5kaldi5nnet327ElementwiseProductComponent4ReadERSib
  1762: 00000000005dc940    10 FUNC    WEAK   DEFAULT   12 _ZN5kaldi5nnet319MaxpoolingComponentD0Ev
  1763: 00000000008152a8     8 OBJECT  <OS specific>: 10 DEFAULT   25 _ZZN3fst17TropicalWeightTplIfE4TypeB5cxx11EvE4type
  1764: 00000000006a02f0   100 FUNC    GLOBAL DEFAULT   12 _ZNK5kaldi13GeneralMatrix9CopyToMatEPNS_10MatrixBaseIfEENS_19MatrixTransposeTypeE
  1765: 000000000062f990   115 FUNC    WEAK   DEFAULT   12 _ZN5kaldi12CuVectorBaseIfE11DivElementsERKS1_
  1766: 0000000000291720   224 FUNC    WEAK   DEFAULT   12 _ZN3fst8internal15MemoryArenaImplILm24EE8AllocateEm
  1767: 0000000000692c40   136 FUNC    GLOBAL DEFAULT   12 _ZN5kaldi9TraceSpSpERKNS_8SpMatrixIfEES3_
  1768: 00000000002557c0    10 FUNC    WEAK   DEFAULT   12 _ZN3fst13StateIteratorINS_14DeterminizeFstINS_10ReverseArcINS_6ArcTplINS_16LatticeWeightTplIfEEEEEEEEED0Ev
  1769: 000000000037b750  1920 FUNC    WEAK   DEFAULT   12 _ZNSt6vectorIN5kaldi23LatticeFasterDecoderTplIN3fst13GrammarFstTplIKNS2_8ConstFstINS2_6ArcTplINS2_17TropicalWeightTplIfEEEEjEEEENS0_7decoder16BackpointerTokenEE9TokenListESaISF_EE17_M_default_appendEm
  1770: 0000000000262dc0   367 FUNC    WEAK   DEFAULT   12 _ZN3fst8internal17VectorFstBaseImplINS_11VectorStateINS_6ArcTplINS_17TropicalWeightTplIfEEEESaIS6_EEEED2Ev
  1771: 00000000003d3970   916 FUNC    WEAK   DEFAULT   12 _ZN5kaldi28LatticeIncrementalDecoderTplIN3fst9VectorFstINS1_6ArcTplINS1_17TropicalWeightTplIfEEEENS1_11VectorStateIS6_SaIS6_EEEEENS_7decoder8StdTokenEE17PruneForwardLinksEiPbSE_f
  1772: 00000000006d64a0  1230 FUNC    WEAK   DEFAULT   12 _ZNSt8_Rb_treeINSt7__cxx1112basic_stringIcSt11char_traitsIcESaIcEEESt4pairIKS5_S6_IS5_bEESt10_Select1stIS9_ESt4lessIS5_ESaIS9_EE17_M_emplace_uniqueIJS6_IS5_S8_EEEES6_ISt17_Rb_tree_iteratorIS9_EbEDpOT_
  1773: 00000000007263a0   225 OBJECT  WEAK   DEFAULT   14 _ZTSSt23_Sp_counted_ptr_inplaceIN3fst8internal14RandGenFstImplINS0_6ArcTplINS0_23CompactLatticeWeightTplINS0_16LatticeWeightTplIfEEiEEEES8_NS0_10ArcSamplerIS8_NS0_18UniformArcSelectorIS8_EEEEEESaIvELN9__gnu_cxx12_Lock_policyE2EE
  1774: 00000000005e6260  1619 FUNC    GLOBAL DEFAULT   12 _ZNK5kaldi5nnet315NnetComputeProb15PrintTotalStatsEv
  1775: 000000000025e050    89 FUNC    WEAK   DEFAULT   12 _ZN3fst8internal15MemoryArenaImplILm16EED2Ev
  1776: 0000000000280870  4489 FUNC    WEAK   DEFAULT   12 _ZN3fst19LatticeDeterminizerINS_16LatticeWeightTplIfEEiE14EpsilonClosureEPSt6vectorINS3_7ElementESaIS5_EE
  1777: 0000000000439970   467 FUNC    WEAK   DEFAULT   12 _ZNSt6vectorISt4pairIfS0_IiiEESaIS2_EE17_M_realloc_insertIJS2_EEEvN9__gnu_cxx17__normal_iteratorIPS2_S4_EEDpOT_
  1778: 0000000000625080     5 FUNC    WEAK   DEFAULT   12 _ZN5kaldi12CuMatrixBaseIfE7SetZeroEv
  1779: 000000000025dd50    89 FUNC    WEAK   DEFAULT   12 _ZN3fst8internal15MemoryArenaImplILm40EED1Ev
  1780: 00000000002528d0     6 FUNC    WEAK   DEFAULT   12 _ZN3fst31ComposeDeterministicOnDemandFstINS_6ArcTplINS_17TropicalWeightTplIfEEEEE5StartEv
  1781: 00000000005de090  4342 FUNC    GLOBAL DEFAULT   12 _ZN5kaldi5nnet315ReadIndexVectorERSibPSt6vectorINS0_5IndexESaIS3_EE
  1782: 00000000007189e0    77 OBJECT  WEAK   DEFAULT   14 _ZTSN3fst10MutableFstINS_10ReverseArcINS_6ArcTplINS_16LatticeWeightTplIfEEEEEEEE
  1783: 000000000025dc30    89 FUNC    WEAK   DEFAULT   12 _ZN3fst8internal15MemoryArenaImplILm48EED2Ev
  1784: 0000000000806bd8    24 OBJECT  WEAK   DEFAULT   21 _ZTIN5kaldi5rnnlm26KaldiRnnlmDeterministicFstE
  1785: 00000000004e18e0   389 FUNC    WEAK   DEFAULT   12 _ZNSt6vectorIPiSaIS0_EE17_M_realloc_insertIJRKS0_EEEvN9__gnu_cxx17__normal_iteratorIPS0_S2_EEDpOT_
  1786: 00000000003d2720    20 FUNC    WEAK   DEFAULT   12 _ZN5kaldi28LatticeIncrementalDecoderTplIN3fst3FstINS1_6ArcTplINS1_17TropicalWeightTplIfEEEEEENS_7decoder16BackpointerTokenEE21AllocateNewTokenLabelEv
  1787: 000000000066fc10    41 FUNC    WEAK   DEFAULT   12 _ZN5kaldi10VectorBaseIdE14CopyFromPackedIdEEvRKNS_12PackedMatrixIT_EE
  1788: 000000000025dc90    89 FUNC    WEAK   DEFAULT   12 _ZN3fst8internal15MemoryArenaImplILm72EED1Ev
  1789: 00000000006593d0   437 FUNC    WEAK   DEFAULT   12 _ZN5kaldi23EigenvalueDecompositionIdEC2ERKNS_10MatrixBaseIdEE
  1790: 0000000000261b20    46 FUNC    WEAK   DEFAULT   12 _ZN3fst9VectorFstINS_10ReverseArcINS_6ArcTplINS_16LatticeWeightTplIfEEEEEENS_11VectorStateIS6_SaIS6_EEEED0Ev
  1791: 000000000057c670   145 FUNC    WEAK   DEFAULT   12 _ZNSt10_HashtableISt4pairIiiES0_IKS1_S0_ISt6vectorIiSaIiEES5_EESaIS7_ENSt8__detail10_Select1stESt8equal_toIS1_EN5kaldi10PairHasherIiiEENS9_18_Mod_range_hashingENS9_20_Default_ranged_hashENS9_20_Prime_rehash_policyENS9_17_Hashtable_traitsILb0ELb0ELb1EEEE5clearEv
  1792: 0000000000654ad0  1775 FUNC    WEAK   DEFAULT   12 _ZN5kaldi7SortSvdIdEEvPNS_10VectorBaseIT_EEPNS_10MatrixBaseIS2_EES7_b
  1793: 000000000066fa20    25 FUNC    WEAK   DEFAULT   12 _ZN5kaldi6VecVecIfEET_RKNS_10VectorBaseIS1_EES5_
  1794: 00000000004e2c30   410 FUNC    WEAK   DEFAULT   12 _ZSt16__insertion_sortIN9__gnu_cxx17__normal_iteratorIPSt4pairIPSt6vectorIiSaIiEEPN5kaldi7LmStateEES3_ISA_SaISA_EEEENS0_5__ops15_Iter_comp_iterINS7_18ConstArpaLmBuilder27WordsAndLmStatePairLessThanEEEEvT_SK_T0_
  1795: 00000000003ee2b0   366 FUNC    WEAK   DEFAULT   12 _ZN5kaldi28LatticeIncrementalDecoderTplIN3fst13GrammarFstTplINS1_9VectorFstINS1_6ArcTplINS1_17TropicalWeightTplIfEEEENS1_11VectorStateIS7_SaIS7_EEEEEEENS_7decoder8StdTokenEE16FinalizeDecodingEv
  1796: 000000000031d980     3 FUNC    GLOBAL DEFAULT   12 vosk_batch_model_new
  1797: 00000000004296d0    89 FUNC    WEAK   DEFAULT   12 _ZNSt6vectorIN5kaldi8SpMatrixIdEESaIS2_EED2Ev
  1798: 00000000006c2430   232 FUNC    GLOBAL DEFAULT   12 _ZN5kaldi12ParseOptions7ToFloatERKNSt7__cxx1112basic_stringIcSt11char_traitsIcESaIcEEE
  1799: 0000000000254080     9 FUNC    WEAK   DEFAULT   12 _ZN3fst18MutableArcIteratorINS_9VectorFstINS_10ReverseArcINS_6ArcTplINS_16LatticeWeightTplIfEEEEEENS_11VectorStateIS7_SaIS7_EEEEEE4SeekEm
  1800: 0000000000288430  1586 FUNC    WEAK   DEFAULT   12 _ZN3fst8internal13VectorFstImplINS_11VectorStateINS_6ArcTplINS_16LatticeWeightTplIfEEEESaIS6_EEEEC1ERKNS_3FstIS6_EE
  1801: 00000000004e2780    54 FUNC    WEAK   DEFAULT   12 _ZNSt10_HashtableISt6vectorIiSaIiEESt4pairIKS2_iESaIS5_ENSt8__detail10_Select1stESt8equal_toIS2_EN5kaldi12VectorHasherIiEENS7_18_Mod_range_hashingENS7_20_Default_ranged_hashENS7_20_Prime_rehash_policyENS7_17_Hashtable_traitsILb0ELb0ELb1EEEE12_Scoped_nodeD2Ev
  1802: 000000000064ae60   501 FUNC    WEAK   DEFAULT   12 _ZN5kaldi6MatrixIfEC2IdEERKNS_10MatrixBaseIT_EENS_19MatrixTransposeTypeE
  1803: 00000000005d2fb0   316 FUNC    GLOBAL DEFAULT   12 _ZN5kaldi5nnet324GruNonlinearityComponent16UpdateParametersERKNS_12CuMatrixBaseIfEES5_
  1804: 00000000008036f0    24 OBJECT  WEAK   DEFAULT   21 _ZTIN3fst18CacheStateIteratorINS_14DeterminizeFstINS_10ReverseArcINS_6ArcTplINS_17TropicalWeightTplIfEEEEEEEEEE
  1805: 00000000004b3030   242 FUNC    WEAK   DEFAULT   12 _ZN3fst17ComposeFstMatcherINS_17DefaultCacheStoreINS_6ArcTplINS_23CompactLatticeWeightTplINS_16LatticeWeightTplIfEEiEEEEEENS_22LookAheadComposeFilterINS_24AltSequenceComposeFilterINS_16LookAheadMatcherINS_3FstIS7_EEEESE_EESE_SE_LNS_9MatchTypeE3EEENS_24GenericComposeStateTableIS7_NS_18IntegerFilterStateIaEENS_24DefaultComposeStateTupleIiSK_EENS_21CompactHashStateTableISM_NS_11ComposeHashISM_EEEEEEE8PriorityEi
  1806: 00000000006adf90    63 FUNC    WEAK   DEFAULT   12 _ZN5kaldi12SparseMatrixIfEC1ERKS1_NS_19MatrixTransposeTypeE
  1807: 0000000000251440     1 FUNC    WEAK   DEFAULT   12 _ZN3fst10MutableFstINS_6ArcTplINS_23CompactLatticeWeightTplINS_16LatticeWeightTplIfEEiEEEEE11ReserveArcsEim
  1808: 00000000007275e0    67 OBJECT  WEAK   DEFAULT   14 _ZTSN5kaldi5nnet330TimeHeightConvolutionComponent18PrecomputedIndexesE
  1809: 0000000000412c60   382 FUNC    WEAK   DEFAULT   12 _ZNSt8_Rb_treeIN3fst18GrammarFstPreparer11ArcCategoryESt4pairIKS2_S3_IifEESt10_Select1stIS6_ESt4lessIS2_ESaIS6_EE29_M_get_insert_hint_unique_posESt23_Rb_tree_const_iteratorIS6_ERS4_
  1810: 000000000069df60   613 FUNC    WEAK   DEFAULT   12 _ZN5kaldi8SpMatrixIdE8ApplyPowEd
  1811: 00000000002d12e0   391 FUNC    WEAK   DEFAULT   12 _ZN3fst16ImplToMutableFstINS_8internal13VectorFstImplINS_11VectorStateINS_6ArcTplINS_17TropicalWeightTplIfEEEESaIS7_EEEEENS_10MutableFstIS7_EEE16SetOutputSymbolsEPKNS_11SymbolTableE
  1812: 0000000000238770   546 FUNC    GLOBAL DEFAULT   12 _ZN10Recognizer17SetEndpointerModeEi
  1813: 00000000003d3e90   623 FUNC    WEAK   DEFAULT   12 _ZN5kaldi28LatticeIncrementalDecoderTplIN3fst9VectorFstINS1_6ArcTplINS1_17TropicalWeightTplIfEEEENS1_11VectorStateIS6_SaIS6_EEEEENS_7decoder8StdTokenEE17PruneActiveTokensEf
  1814: 00000000006a2a40   155 FUNC    WEAK   DEFAULT   12 _ZNK5kaldi12SparseVectorIfE8AddToVecIdEEvfPNS_10VectorBaseIT_EE
  1815: 0000000000632d80  2039 FUNC    WEAK   DEFAULT   12 _ZN5kaldi13CuBlockMatrixIdE9AddMatMatEfRKNS_8CuMatrixIdEENS_19MatrixTransposeTypeES5_S6_f
  1816: 00000000006ad830   463 FUNC    WEAK   DEFAULT   12 _ZN5kaldi12SparseMatrixIfEC1EiRKSt6vectorIS2_ISt4pairIifESaIS4_EESaIS6_EE
  1817: 00000000004e8cc0   479 FUNC    GLOBAL DEFAULT   12 _ZN5kaldi5rnnlm26KaldiRnnlmDeterministicFst5ClearEv
  1818: 000000000062b0f0   113 FUNC    WEAK   DEFAULT   12 _ZN5kaldi14CuPackedMatrixIfE8SetRandnEv
  1819: 0000000000252ac0    24 FUNC    WEAK   DEFAULT   12 _ZNK3fst9ImplToFstINS_8internal13VectorFstImplINS_11VectorStateINS_6ArcTplINS_23CompactLatticeWeightTplINS_16LatticeWeightTplIfEEiEEEESaIS9_EEEEENS_10MutableFstIS9_EEE16NumInputEpsilonsEi
  1820: 000000000059e920   122 FUNC    WEAK   DEFAULT   12 _ZNK5kaldi5nnet317SumGroupComponent4TypeB5cxx11Ev
  1821: 000000000080a090    64 OBJECT  WEAK   DEFAULT   21 _ZTVN5kaldi5nnet313TdnnComponent18PrecomputedIndexesE
  1822: 0000000000804578   152 OBJECT  WEAK   DEFAULT   21 _ZTVN3fst9ImplToFstINS_8internal22DeterminizeFstImplBaseINS_10ReverseArcINS_6ArcTplINS_17TropicalWeightTplIfEEEEEEEENS_3FstIS8_EEEE
  1823: 00000000006ce910   615 FUNC    WEAK   DEFAULT   12 _ZNSt8_Rb_treeINSt7__cxx1112basic_stringIcSt11char_traitsIcESaIcEEESt4pairIKS5_PjESt10_Select1stIS9_ESt4lessIS5_ESaIS9_EE29_M_get_insert_hint_unique_posESt23_Rb_tree_const_iteratorIS9_ERS7_
  1824: 0000000000354c30   591 FUNC    WEAK   DEFAULT   12 _ZN5kaldi22OnlineSilenceWeighting23ComputeCurrentTracebackIN3fst13GrammarFstTplIKNS2_8ConstFstINS2_6ArcTplINS2_17TropicalWeightTplIfEEEEjEEEEEEvRKNS_34LatticeIncrementalOnlineDecoderTplIT_EEb
  1825: 00000000005e31e0  1616 FUNC    GLOBAL DEFAULT   12 _ZN5kaldi5nnet330SeparateSubmatsWithLargeCountsERKSt6vectorIiSaIiEERKS1_IS1_ISt4pairIiiESaIS7_EESaIS9_EEPSB_SE_
  1826: 000000000039b400   123 FUNC    WEAK   DEFAULT   12 _ZN3fst13PoolAllocatorIPNSt8__detail15_Hash_node_baseEED2Ev
  1827: 00000000006c9070  2068 FUNC    GLOBAL DEFAULT   12 _ZN5kaldi12ParseOptions14ReadConfigFileERKNSt7__cxx1112basic_stringIcSt11char_traitsIcESaIcEEE
  1828: 0000000000632830    77 FUNC    WEAK   DEFAULT   12 _ZN5kaldi13CuBlockMatrixIdED2Ev
  1829: 000000000026ec00    67 FUNC    WEAK   DEFAULT   12 _ZN3fst10MemoryPoolINS_13PoolAllocatorINS_6ArcTplINS_17TropicalWeightTplIfEEEEE2TNILi32EEEED0Ev
  1830: 000000000059cd40     6 FUNC    WEAK   DEFAULT   12 _ZNK5kaldi5nnet321ClipGradientComponent9OutputDimEv
  1831: 000000000031da00     3 FUNC    GLOBAL DEFAULT   12 vosk_batch_recognizer_front_result
  1832: 0000000000628060     8 FUNC    WEAK   DEFAULT   12 _ZN5kaldi12CuMatrixBaseIdE8ApplyExpEv
  1833: 00000000003e8b30  1651 FUNC    WEAK   DEFAULT   12 _ZN5kaldi28LatticeIncrementalDecoderTplIN3fst9VectorFstINS1_6ArcTplINS1_17TropicalWeightTplIfEEEENS1_11VectorStateIS6_SaIS6_EEEEENS_7decoder8StdTokenEE15ProcessEmittingEPNS_18DecodableInterfaceE
  1834: 0000000000601100   796 FUNC    GLOBAL DEFAULT   12 _ZN5kaldi5nnet326ComputationLoopedOptimizer21GetIdentifiedMatricesERKSt6vectorISt4pairIiiESaIS4_EES8_RKSt13unordered_mapIS4_iNS_10PairHasherIiiEESt8equal_toIS4_ESaIS3_IKS4_iEEEPS2_IiSaIiEESM_
  1835: 00000000005fe4b0   468 FUNC    GLOBAL DEFAULT   12 _ZN5kaldi5nnet323ReplaceRowWithMatrixOpsEPNS0_15NnetComputationE
  1836: 0000000000645270   641 FUNC    WEAK   DEFAULT   12 _ZN5kaldi10MatrixBaseIdE9AddVecVecIfEEvdRKNS_10VectorBaseIT_EES7_
  1837: 00000000004e9cf0  2884 FUNC    GLOBAL DEFAULT   12 _ZN5kaldi5rnnlm22ReadSparseWordFeaturesERSiiPNS_12SparseMatrixIfEE
  1838: 00000000007fffd8    48 OBJECT  WEAK   DEFAULT   21 _ZTVN3fst8internal9CacheImplINS_6ArcTplINS_16LatticeWeightTplIfEEEEEE
  1839: 00000000007fe5d8    24 OBJECT  WEAK   DEFAULT   21 _ZTIN3fst10MemoryPoolINS_8internal8DfsStateINS_3FstINS_10ReverseArcINS_6ArcTplINS_23CompactLatticeWeightTplINS_16LatticeWeightTplIfEEiEEEEEEEEEEEE
  1840: 0000000000493cd0   459 FUNC    WEAK   DEFAULT   12 _ZNSt8__detail9_Map_baseImSt4pairIKmSt6vectorIiSaIiEEESaIS6_ENS_10_Select1stESt8equal_toImESt4hashImENS_18_Mod_range_hashingENS_20_Default_ranged_hashENS_20_Prime_rehash_policyENS_17_Hashtable_traitsILb0ELb0ELb1EEELb1EEixERS2_
  1841: 000000000025bca0    93 FUNC    WEAK   DEFAULT   12 _ZNK3fst11SymbolTable4CopyEv
  1842: 000000000071c1e0   117 OBJECT  WEAK   DEFAULT   14 _ZTSN3fst10MemoryPoolINS_13PoolAllocatorINS_10CacheStateINS_6ArcTplINS_16LatticeWeightTplIfEEEENS1_IS6_EEEEE2TNILi1EEEEE
  1843: 00000000006905f0   204 FUNC    WEAK   DEFAULT   12 _ZNK5kaldi8SpMatrixIfE3EigEPNS_10VectorBaseIfEEPNS_10MatrixBaseIfEE
  1844: 000000000051f5f0    19 FUNC    GLOBAL DEFAULT   12 _ZN5kaldi5nnet39CindexSetC2ERKNS0_16ComputationGraphERKSt6vectorINS0_23ComputationGraphBuilder10CindexInfoESaIS7_EEb
  1845: 000000000040e910   181 FUNC    WEAK   DEFAULT   12 _ZNK3fst13GrammarFstTplIKNS_8ConstFstINS_6ArcTplINS_17TropicalWeightTplIfEEEEjEEE5FinalEl
  1846: 00000000002516a0     6 FUNC    WEAK   DEFAULT   12 _ZNK3fst8internal14MemoryPoolImplILm24EE4SizeEv
  1847: 00000000004daae0   142 FUNC    GLOBAL DEFAULT   12 _ZNK5kaldi11ConstArpaLm12GetChildInfoEiPiS1_
  1848: 000000000025c110   258 FUNC    WEAK   DEFAULT   12 _ZN3fst17ComposeFstMatcherINS_17DefaultCacheStoreINS_6ArcTplINS_16LatticeWeightTplIfEEEEEENS_20TrivialComposeFilterINS_7MatcherINS_3FstIS5_EEEESB_EENS_24GenericComposeStateTableIS5_NS_18TrivialFilterStateENS_24DefaultComposeStateTupleIiSE_EENS_21CompactHashStateTableISG_NS_11ComposeHashISG_EEEEEEE8PriorityEi
  1849: 00000000004c39c0   349 FUNC    WEAK   DEFAULT   12 _ZN3fst20MemoryPoolCollection4PoolINS_13PoolAllocatorINS_6ArcTplINS_23CompactLatticeWeightTplINS_16LatticeWeightTplIfEEiEEEEE2TNILi2EEEEEPNS_10MemoryPoolIT_EEv
  1850: 000000000042d1d0   982 FUNC    GLOBAL DEFAULT   12 _ZN5kaldi7DiagGmm4ReadERSib
  1851: 00000000006e13c0   468 FUNC    GLOBAL DEFAULT   12 _ZN5kaldi13ReadBasicTypeIfEEvRSibPT_
  1852: 00000000006f48b0   697 FUNC    GLOBAL DEFAULT   12 _ZN3fst8internal17CompositeWeightIOC1EcSt4pairIccE
  1853: 000000000028ec80   379 FUNC    WEAK   DEFAULT   12 _ZN3fst20MemoryPoolCollection4PoolINS_13PoolAllocatorINS_6ArcTplINS_16LatticeWeightTplIfEEEEE2TNILi8EEEEEPNS_10MemoryPoolIT_EEv
  1854: 00000000006b9f00    71 FUNC    WEAK   DEFAULT   12 _ZN5kaldi13basic_pipebufIcSt11char_traitsIcEED2Ev
  1855: 000000000056f9b0   716 FUNC    GLOBAL DEFAULT   12 _ZN5kaldi5nnet34Nnet17RemoveOrphanNodesEb
  1856: 000000000036e580   567 FUNC    WEAK   DEFAULT   12 _ZN5kaldi23LatticeFasterDecoderTplIN3fst3FstINS1_6ArcTplINS1_17TropicalWeightTplIfEEEEEENS_7decoder16BackpointerTokenEE17PruneActiveTokensEf
  1857: 000000000062f4b0     5 FUNC    WEAK   DEFAULT   12 _ZN5kaldi12CuVectorBaseIfE15CopyRowsFromMatERKNS_12CuMatrixBaseIfEE
  1858: 00000000004b6880    67 FUNC    WEAK   DEFAULT   12 _ZN3fst8internal14MemoryPoolImplILm192EED0Ev
  1859: 000000000044a520    16 FUNC    WEAK   DEFAULT   12 _ZNK5kaldi24OnlineGenericBaseFeatureINS_11PlpComputerEE19FrameShiftInSecondsEv
  1860: 0000000000575cd0    37 FUNC    WEAK   DEFAULT   12 _ZNK5kaldi5nnet318BatchNormComponent10DeleteMemoEPv
  1861: 0000000000335030   173 FUNC    WEAK   DEFAULT   12 _ZN3fst8internal14ComposeFstImplINS_17DefaultCacheStoreINS_6ArcTplINS_17TropicalWeightTplIfEEEEEENS_20TrivialComposeFilterINS_7MatcherINS_3FstIS6_EEEESC_EENS_24GenericComposeStateTableIS6_NS_18TrivialFilterStateENS_24DefaultComposeStateTupleIiSF_EENS_21CompactHashStateTableISH_NS_11ComposeHashISH_EEEEEEED0Ev
  1862: 0000000000623c80    24 FUNC    WEAK   DEFAULT   12 _ZN5kaldi12CuMatrixBaseIfE7AddRowsEfRKNS_11CuArrayBaseIPKfEE
  1863: 00000000003725d0   523 FUNC    WEAK   DEFAULT   12 _ZN5kaldi23LatticeFasterDecoderTplIN3fst3FstINS1_6ArcTplINS1_17TropicalWeightTplIfEEEEEENS_7decoder16BackpointerTokenEED2Ev
  1864: 00000000003e5b20   783 FUNC    WEAK   DEFAULT   12 _ZN5kaldi28LatticeIncrementalDecoderTplIN3fst13GrammarFstTplIKNS1_8ConstFstINS1_6ArcTplINS1_17TropicalWeightTplIfEEEEjEEEENS_7decoder8StdTokenEEC1ERKSA_RKNS_21TransitionInformationERKNS_31LatticeIncrementalDecoderConfigE
  1865: 00000000006eb0c0   118 FUNC    GLOBAL DEFAULT   12 _ZN3fst14FstReadOptionsC1ESt17basic_string_viewIcSt11char_traitsIcEEPKNS_11SymbolTableES7_
  1866: 00000000002f0be0   144 FUNC    WEAK   DEFAULT   12 _ZN3fst16ImplToMutableFstINS_8internal13VectorFstImplINS_11VectorStateINS_6ArcTplINS_17TropicalWeightTplIfEEEESaIS7_EEEEENS_10MutableFstIS7_EEE11MutateCheckEv
  1867: 0000000000268070    45 FUNC    WEAK   DEFAULT   12 _ZNSt6vectorIiSaIiEE9push_backERKi
  1868: 0000000000554c10    53 FUNC    GLOBAL DEFAULT   12 _ZN5kaldi5nnet326StatisticsPoolingComponentC2Ev
  1869: 0000000000683bd0     6 FUNC    WEAK   DEFAULT   12 _ZN5kaldi13OptimizeLbfgsIdE3DimEv
  1870: 00000000003d2b70    65 FUNC    WEAK   DEFAULT   12 _ZN5kaldi28LatticeIncrementalDecoderTplIN3fst8ConstFstINS1_6ArcTplINS1_17TropicalWeightTplIfEEEEjEENS_7decoder16BackpointerTokenEE18DeleteForwardLinksEPS9_
  1871: 0000000000620e40    25 FUNC    WEAK   DEFAULT   12 _ZN5kaldi12CuMatrixBaseIdE11CopyFromMatIdEEvRKNS0_IT_EENS_19MatrixTransposeTypeE
  1872: 00000000006769d0   127 FUNC    WEAK   DEFAULT   12 _ZN5kaldi10VectorBaseIdE8ApplyAbsEv
  1873: 000000000062af90   151 FUNC    WEAK   DEFAULT   12 _ZN5kaldi14CuPackedMatrixIfEC2ERKNS_12PackedMatrixIfEE
  1874: 000000000026ea90    67 FUNC    WEAK   DEFAULT   12 _ZN3fst10MemoryPoolINS_13PoolAllocatorISt10_List_nodeIiEE2TNILi1EEEED0Ev
  1875: 0000000000807708    24 OBJECT  WEAK   DEFAULT   21 _ZTIN5kaldi5nnet337DistributeComponentPrecomputedIndexesE
  1876: 000000000059f640    79 FUNC    GLOBAL DEFAULT   12 _ZN5kaldi5nnet313TdnnComponent5ScaleEf
  1877: 000000000060ce10  1501 FUNC    GLOBAL DEFAULT   12 _ZN5kaldi5nnet326ComputationLoopedOptimizer8OptimizeEv
  1878: 0000000000582ed0    37 FUNC    GLOBAL DEFAULT   12 _ZNK5kaldi5nnet317SumGroupComponent9PropagateEPKNS0_27ComponentPrecomputedIndexesERKNS_12CuMatrixBaseIfEEPS6_
  1879: 00000000005a4960   813 FUNC    GLOBAL DEFAULT   12 _ZN5kaldi5nnet328ConvertRepeatedToBlockAffineEPNS0_4NnetE
  1880: 000000000029a160   250 FUNC    WEAK   DEFAULT   12 _ZN3fst8internal7FstImplINS_10ReverseArcINS_6ArcTplINS_23CompactLatticeWeightTplINS_16LatticeWeightTplIfEEiEEEEEEE16SetOutputSymbolsEPKNS_11SymbolTableE
  1881: 0000000000560f40   139 FUNC    WEAK   DEFAULT   12 _ZNK5kaldi5nnet341GeneralDropoutComponentPrecomputedIndexes4CopyEv
  1882: 0000000000565dc0    87 FUNC    GLOBAL DEFAULT   12 _ZN5kaldi5nnet34Nnet15ResetGeneratorsEv
  1883: 00000000006589f0   112 FUNC    WEAK   DEFAULT   12 _ZNK5kaldi10MatrixBaseIdE10CopyToRowsEPKPd
  1884: 000000000049eed0  3972 FUNC    GLOBAL DEFAULT   12 _ZN5kaldi16MinimumBayesRisk26PrepareLatticeAndInitStatsEPN3fst9VectorFstINS1_6ArcTplINS1_23CompactLatticeWeightTplINS1_16LatticeWeightTplIfEEiEEEENS1_11VectorStateIS8_SaIS8_EEEEE
  1885: 0000000000815478     8 OBJECT  <OS specific>: 10 DEFAULT   25 _ZGVZN12FlagRegisterIiE11GetRegisterEvE3reg
  1886: 00000000006125f0   442 FUNC    WEAK   DEFAULT   12 _ZNSt10_HashtableIPKN5kaldi5nnet318ComputationRequestESt4pairIKS4_S5_ISt10shared_ptrIKNS1_15NnetComputationEESt14_List_iteratorIS4_EEESaISE_ENSt8__detail10_Select1stENS1_26ComputationRequestPtrEqualENS1_24ComputationRequestHasherENSG_18_Mod_range_hashingENSG_20_Default_ranged_hashENSG_20_Prime_rehash_policyENSG_17_Hashtable_traitsILb0ELb0ELb1EEEE5eraseENSG_20_Node_const_iteratorISE_Lb0ELb0EEE
  1887: 000000000026c1b0   600 FUNC    WEAK   DEFAULT   12 _ZN3fst10SccVisitorINS_6ArcTplINS_16LatticeWeightTplIfEEEEE11FinishVisitEv
  1888: 00000000006f6580    41 FUNC    GLOBAL DEFAULT   12 _ZN3fst11CheckSummer5ResetEv
  1889: 0000000000263e60   472 FUNC    WEAK   DEFAULT   12 _ZN3fst8internal17VectorFstBaseImplINS_11VectorStateINS_6ArcTplINS_23CompactLatticeWeightTplINS_16LatticeWeightTplIfEEiEEEESaIS8_EEEED1Ev
  1890: 000000000040e880    94 FUNC    WEAK   DEFAULT   12 _ZN3fst13GrammarFstTplIKNS_8ConstFstINS_6ArcTplINS_17TropicalWeightTplIfEEEEjEEEC1Ev
  1891: 000000000057c480    39 FUNC    WEAK   DEFAULT   12 _ZNSt6vectorIN5kaldi5nnet315NnetComputation7CommandESaIS3_EED1Ev
  1892: 0000000000626c50     8 FUNC    WEAK   DEFAULT   12 _ZN5kaldi12CuMatrixBaseIdE8CopyColsERKS1_RKNS_11CuArrayBaseIiEE
  1893: 00000000006252e0    77 FUNC    WEAK   DEFAULT   12 _ZN5kaldi12CuMatrixBaseIfE13AddToElementsEfRKNS_11CuArrayBaseIiEE
  1894: 000000000055ad70   131 FUNC    GLOBAL DEFAULT   12 _ZNK5kaldi5nnet319DistributeComponent15GetInputIndexesERKNS0_19MiscComputationInfoERKNS0_5IndexEPSt6vectorIS5_SaIS5_EE
  1895: 00000000004405b0   163 FUNC    WEAK   DEFAULT   12 _ZN5kaldi17BottomUpClustererD2Ev
  1896: 00000000004b68d0    49 FUNC    WEAK   DEFAULT   12 _ZN3fst10MemoryPoolINS_13PoolAllocatorINS_6ArcTplINS_23CompactLatticeWeightTplINS_16LatticeWeightTplIfEEiEEEEE2TNILi4EEEED2Ev
  1897: 00000000006a0710   191 FUNC    GLOBAL DEFAULT   12 _ZNK5kaldi13GeneralMatrix19GetCompressedMatrixEv
  1898: 00000000004e23a0   565 FUNC    WEAK   DEFAULT   12 _ZSt16__introsort_loopIN9__gnu_cxx17__normal_iteratorIPSt4pairIiN5kaldi7LmState9ChildTypeEESt6vectorIS6_SaIS6_EEEElNS0_5__ops15_Iter_comp_iterINS4_22ChildrenVectorLessThanEEEEvT_SG_T0_T1_
  1899: 0000000000581dd0    42 FUNC    GLOBAL DEFAULT   12 _ZNK5kaldi5nnet325ConstantFunctionComponent10DotProductERKNS0_18UpdatableComponentE
  1900: 0000000000251610     6 FUNC    WEAK   DEFAULT   12 _ZNK3fst8internal14MemoryPoolImplILm32EE4SizeEv
  1901: 000000000059e420   146 FUNC    WEAK   DEFAULT   12 _ZNK5kaldi5nnet338NaturalGradientRepeatedAffineComponent4TypeB5cxx11Ev
  1902: 0000000000611550   714 FUNC    WEAK   DEFAULT   12 _ZNSt6vectorIS_ISt4pairIiiESaIS1_EESaIS3_EE12emplace_backIJS3_EEEvDpOT_
  1903: 0000000000290cb0   201 FUNC    WEAK   DEFAULT   12 _ZNSt23_Sp_counted_ptr_inplaceIN3fst8internal14ComposeFstImplINS0_17DefaultCacheStoreINS0_6ArcTplINS0_16LatticeWeightTplIfEEEEEENS0_17NullComposeFilterINS0_7MatcherINS0_3FstIS7_EEEESD_EENS0_24GenericComposeStateTableIS7_NS0_18TrivialFilterStateENS0_24DefaultComposeStateTupleIiSG_EENS0_21CompactHashStateTableISI_NS0_11ComposeHashISI_EEEEEEEESaIvELN9__gnu_cxx12_Lock_policyE2EE10_M_disposeEv
  1904: 00000000002557e0    12 FUNC    WEAK   DEFAULT   12 _ZNK3fst8internal7FstImplINS_10ReverseArcINS_6ArcTplINS_23CompactLatticeWeightTplINS_16LatticeWeightTplIfEEiEEEEEEE10PropertiesEm
  1905: 00000000003d9100   630 FUNC    WEAK   DEFAULT   12 _ZN5kaldi28LatticeIncrementalDecoderTplIN3fst13GrammarFstTplINS1_9VectorFstINS1_6ArcTplINS1_17TropicalWeightTplIfEEEENS1_11VectorStateIS7_SaIS7_EEEEEEENS_7decoder8StdTokenEED1Ev
  1906: 00000000005a7a40  1138 FUNC    GLOBAL DEFAULT   12 _ZN5kaldi5nnet332PrintVectorPerUpdatableComponentB5cxx11ERKNS0_4NnetERKNS_10VectorBaseIfEE
  1907: 000000000059d410    81 FUNC    WEAK   DEFAULT   12 _ZN5kaldi5nnet338NaturalGradientRepeatedAffineComponentD2Ev
  1908: 0000000000538b70  1713 FUNC    GLOBAL DEFAULT   12 _ZN5kaldi5nnet315NnetComputationC1ERKS1_
  1909: 00000000003d9aa0    39 FUNC    WEAK   DEFAULT   12 _ZNSt6vectorIN5kaldi28LatticeIncrementalDecoderTplIN3fst8ConstFstINS2_6ArcTplINS2_17TropicalWeightTplIfEEEEjEENS0_7decoder16BackpointerTokenEE9TokenListESaISC_EED2Ev
  1910: 0000000000718520    87 OBJECT  WEAK   DEFAULT   14 _ZTSN3fst10ComposeFstINS_6ArcTplINS_16LatticeWeightTplIfEEEENS_17DefaultCacheStoreIS4_EEEE
  1911: 0000000000251790     1 FUNC    WEAK   DEFAULT   12 _ZNSt23_Sp_counted_ptr_inplaceIN3fst8internal14ComposeFstImplINS0_17DefaultCacheStoreINS0_6ArcTplINS0_17TropicalWeightTplIfEEEEEENS0_23PushLabelsComposeFilterINS0_24PushWeightsComposeFilterINS0_22LookAheadComposeFilterINS0_21SequenceComposeFilterINS0_16LookAheadMatcherINS0_3FstIS7_EEEESG_EESG_SG_LNS0_9MatchTypeE3EEESG_SG_LSI_3EEESG_SG_LSI_3EEENS0_24GenericComposeStateTableIS7_NS0_15PairFilterStateINSN_INS0_18IntegerFilterStateIaEENS0_17WeightFilterStateIS6_EEEENSO_IiEEEENS0_24DefaultComposeStateTupleIiSU_EENS0_21CompactHashStateTableISW_NS0_11ComposeHashISW_EEEEEEEESaIvELN9__gnu_cxx12_Lock_policyE2EED2Ev
  1912: 00000000008084b8   200 OBJECT  WEAK   DEFAULT   21 _ZTVN5kaldi5nnet314PnormComponentE
  1913: 0000000000252800     1 FUNC    WEAK   DEFAULT   12 _ZN3fst9LifoQueueIiE6UpdateEi
  1914: 0000000000803ed8    24 OBJECT  WEAK   DEFAULT   21 _ZTIN3fst10MemoryPoolINS_13PoolAllocatorINS_10ReverseArcINS_6ArcTplINS_17TropicalWeightTplIfEEEEEEE2TNILi32EEEEE
  1915: 00000000005a45d0   105 FUNC    GLOBAL DEFAULT   12 _ZN5kaldi5nnet39ScaleNnetEfPNS0_4NnetE
  1916: 000000000051d5e0     1 FUNC    WEAK   DEFAULT   12 _ZN5kaldi5nnet39Component3AddEfRKS1_
  1917: 00000000005838f0    95 FUNC    GLOBAL DEFAULT   12 _ZNK5kaldi5nnet318FixedBiasComponent4CopyEv
  1918: 000000000044ff40   899 FUNC    GLOBAL DEFAULT   12 _ZN5kaldi22OnlinePitchFeatureImplC1ERKNS_22PitchExtractionOptionsE
  1919: 0000000000800328    80 OBJECT  WEAK   DEFAULT   21 _ZTVN3fst9AutoQueueIiEE
  1920: 0000000000270170    99 FUNC    WEAK   DEFAULT   12 _ZNSt11_Deque_baseIPN3fst8internal8DfsStateINS0_10MutableFstINS0_6ArcTplINS0_23CompactLatticeWeightTplINS0_16LatticeWeightTplIfEEiEEEEEEEESaISC_EED2Ev
  1921: 00000000008021b8    40 OBJECT  WEAK   DEFAULT   21 _ZTVN3fst8internal14MemoryPoolImplILm512EEE
  1922: 000000000053d5b0   125 FUNC    GLOBAL DEFAULT   12 _ZN5kaldi5nnet312NnetComputer12MatrixStddevERKNS_12CuMatrixBaseIfEE
  1923: 0000000000695510    49 FUNC    WEAK   DEFAULT   12 _ZN5kaldi8SpMatrixIfEC2ERKS1_
  1924: 00000000002557f0     7 FUNC    WEAK   DEFAULT   12 _ZNK3fst8internal7FstImplINS_10ReverseArcINS_6ArcTplINS_23CompactLatticeWeightTplINS_16LatticeWeightTplIfEEiEEEEEEE10PropertiesEv
  1925: 000000000046c0b0  1450 FUNC    WEAK   DEFAULT   12 _ZN3fst30DeterminizeLatticeInsertPhonesINS_16LatticeWeightTplIfEEEENS_6ArcTplIT_E5LabelERKN5kaldi21TransitionInformationEPNS_10MutableFstIS5_EE
  1926: 0000000000370cb0   531 FUNC    WEAK   DEFAULT   12 _ZN5kaldi8HashListIlPNS_7decoder8StdTokenEED2Ev
  1927: 0000000000407900    13 FUNC    WEAK   DEFAULT   12 _ZN5kaldi34LatticeIncrementalOnlineDecoderTplIN3fst3FstINS1_6ArcTplINS1_17TropicalWeightTplIfEEEEEEE16BestPathIteratorC2EPvi
  1928: 0000000000689a30    19 FUNC    WEAK   DEFAULT   12 _ZN5kaldi12PackedMatrixIdED1Ev
  1929: 00000000006264b0     5 FUNC    WEAK   DEFAULT   12 _ZNK5kaldi12CuMatrixBaseIfE3SumEv
  1930: 000000000062b2e0     5 FUNC    WEAK   DEFAULT   12 _ZN5kaldi14CuPackedMatrixIfE14CopyFromPackedERKNS_12PackedMatrixIfEE
  1931: 0000000000251670     6 FUNC    WEAK   DEFAULT   12 _ZNK3fst8internal15MemoryArenaImplILm168EE4SizeEv
  1932: 0000000000422c10   845 FUNC    GLOBAL DEFAULT   12 _ZN5kaldi21IvectorExtractorStats25IvectorVarianceDiagnosticERKNS_16IvectorExtractorE
  1933: 00000000008013e8    88 OBJECT  WEAK   DEFAULT   21 _ZTVN3fst8internal14ComposeFstImplINS_17DefaultCacheStoreINS_6ArcTplINS_17TropicalWeightTplIfEEEEEENS_23PushLabelsComposeFilterINS_24PushWeightsComposeFilterINS_22LookAheadComposeFilterINS_21SequenceComposeFilterINS_16LookAheadMatcherINS_3FstIS6_EEEESF_EESF_SF_LNS_9MatchTypeE3EEESF_SF_LSH_3EEESF_SF_LSH_3EEENS_24GenericComposeStateTableIS6_NS_15PairFilterStateINSM_INS_18IntegerFilterStateIaEENS_17WeightFilterStateIS5_EEEENSN_IiEEEENS_24DefaultComposeStateTupleIiST_EENS_21CompactHashStateTableISV_NS_11ComposeHashISV_EEEEEEEE
  1934: 00000000002649f0   312 FUNC    WEAK   DEFAULT   12 _ZNK3fst10ComposeFstINS_6ArcTplINS_16LatticeWeightTplIfEEEENS_17DefaultCacheStoreIS4_EEE4CopyEb
  1935: 00000000003d2aa0    45 FUNC    WEAK   DEFAULT   12 _ZN5kaldi28LatticeIncrementalDecoderTplIN3fst9VectorFstINS1_6ArcTplINS1_17TropicalWeightTplIfEEEENS1_11VectorStateIS6_SaIS6_EEEEENS_7decoder16BackpointerTokenEE18GetNumToksForFrameEi
  1936: 0000000000626510    21 FUNC    WEAK   DEFAULT   12 _ZN5kaldi12CuMatrixBaseIfE14SetRandUniformEv
  1937: 00000000002c7f40   144 FUNC    WEAK   DEFAULT   12 _ZN3fst16ImplToMutableFstINS_8internal13VectorFstImplINS_11VectorStateINS_6ArcTplINS_23CompactLatticeWeightTplINS_16LatticeWeightTplIfEEiEEEESaIS9_EEEEENS_10MutableFstIS9_EEE11MutateCheckEv
  1938: 00000000003258f0     6 FUNC    WEAK   DEFAULT   12 _ZNK3fst17ComposeFstMatcherINS_17DefaultCacheStoreINS_6ArcTplINS_17TropicalWeightTplIfEEEEEENS_20NoMatchComposeFilterINS_7MatcherINS_3FstIS5_EEEESB_EENS_24GenericComposeStateTableIS5_NS_18TrivialFilterStateENS_24DefaultComposeStateTupleIiSE_EENS_21CompactHashStateTableISG_NS_11ComposeHashISG_EEEEEEE10PropertiesEm
  1939: 0000000000521670  1910 FUNC    GLOBAL DEFAULT   12 _ZNK5kaldi5nnet323ComputationGraphBuilder33ExplainWhyAllOutputsNotComputableEv
  1940: 00000000006ada00  1411 FUNC    WEAK   DEFAULT   12 _ZN5kaldi12SparseMatrixIfE12CopyFromSmatIfEEvRKNS0_IT_EENS_19MatrixTransposeTypeE
  1941: 00000000004b65f0    49 FUNC    WEAK   DEFAULT   12 _ZN3fst10MemoryPoolINS_13PoolAllocatorINS_6ArcTplINS_23CompactLatticeWeightTplINS_16LatticeWeightTplIfEEiEEEEE2TNILi16EEEED1Ev
  1942: 000000000044e9a0    27 FUNC    GLOBAL DEFAULT   12 _ZNK5kaldi22OnlinePitchFeatureImpl14NumFramesReadyEv
  1943: 0000000000727fc0    55 OBJECT  WEAK   DEFAULT   14 _ZTSN5kaldi5nnet338NaturalGradientRepeatedAffineComponentE
  1944: 00000000006f47e0     9 FUNC    WEAK   DEFAULT   12 _ZN3fst8internal15SymbolTableImpl9AddSymbolESt17basic_string_viewIcSt11char_traitsIcEE
  1945: 0000000000443a70    27 FUNC    GLOBAL DEFAULT   12 _ZN5kaldi16GaussClusterable5ScaleEf
  1946: 0000000000807558    96 OBJECT  WEAK   DEFAULT   21 _ZTVN5kaldi5nnet321OptionalSumDescriptorE
  1947: 000000000060c3d0   535 FUNC    GLOBAL DEFAULT   12 _ZN5kaldi5nnet324VariableMergingOptimizer14MergeVariablesEv
  1948: 000000000059dad0    52 FUNC    WEAK   DEFAULT   12 _ZN5kaldi5nnet313TanhComponentD1Ev
  1949: 0000000000251820     1 FUNC    WEAK   DEFAULT   12 _ZNSt23_Sp_counted_ptr_inplaceIN3fst8internal18DeterminizeFsaImplINS0_10ReverseArcINS0_6ArcTplINS0_16LatticeWeightTplIfEEEEEENS0_20DefaultCommonDivisorIS6_EENS0_24DefaultDeterminizeFilterIS8_EENS0_28DefaultDeterminizeStateTableIS8_NS0_18IntegerFilterStateIaEEEEEESaIvELN9__gnu_cxx12_Lock_policyE2EED1Ev
  1950: 0000000000410750   217 FUNC    WEAK   DEFAULT   12 _ZNSt6vectorISt4pairIiSt10shared_ptrIN3fst9VectorFstINS2_6ArcTplINS2_17TropicalWeightTplIfEEEENS2_11VectorStateIS7_SaIS7_EEEEEEESaISD_EED1Ev
  1951: 00000000006722d0   214 FUNC    WEAK   DEFAULT   12 _ZN5kaldi6VectorIfEaSERKS1_
  1952: 0000000000806108    24 OBJECT  WEAK   DEFAULT   21 _ZTIN3fst10MemoryPoolINS_13PoolAllocatorINS_6ArcTplINS_23CompactLatticeWeightTplINS_16LatticeWeightTplIfEEiEEEEE2TNILi8EEEEE
  1953: 00000000003717e0    39 FUNC    WEAK   DEFAULT   12 _ZNSt6vectorIPKN5kaldi8HashListIlPNS0_7decoder16BackpointerTokenEE4ElemESaIS8_EED2Ev
  1954: 000000000060faa0  1001 FUNC    GLOBAL DEFAULT   12 _ZN5kaldi5nnet321DerivativeTimeLimiter13ModifyCommandEPNS0_15NnetComputation7CommandE
  1955: 000000000040ebd0    42 FUNC    WEAK   DEFAULT   12 _ZN3fst13GrammarFstTplINS_9VectorFstINS_6ArcTplINS_17TropicalWeightTplIfEEEENS_11VectorStateIS5_SaIS5_EEEEEE11CombineArcsERKS5_SC_fPS5_
  1956: 0000000000801a48   128 OBJECT  WEAK   DEFAULT   21 _ZTVN3fst13SortedMatcherINS_3FstINS_6ArcTplINS_16LatticeWeightTplIfEEEEEEEE
  1957: 00000000002643e0   451 FUNC    WEAK   DEFAULT   12 _ZN3fst8internal17VectorFstBaseImplINS_11VectorStateINS_10ReverseArcINS_6ArcTplINS_23CompactLatticeWeightTplINS_16LatticeWeightTplIfEEiEEEEEESaISA_EEEED0Ev
  1958: 00000000008029c8    24 OBJECT  WEAK   DEFAULT   21 _ZTIN3fst9ImplToFstINS_8internal9AddOnImplINS_8ConstFstINS_6ArcTplINS_17TropicalWeightTplIfEEEEjEENS_9AddOnPairINS_18LabelReachableDataIiEESB_EEEENS_11ExpandedFstIS7_EEEE
  1959: 0000000000450320  3197 FUNC    GLOBAL DEFAULT   12 _ZN5kaldi22OnlinePitchFeatureImpl14AcceptWaveformEfRKNS_10VectorBaseIfEE
  1960: 000000000059cb90    10 FUNC    WEAK   DEFAULT   12 _ZNK5kaldi5nnet323RepeatedAffineComponent9OutputDimEv
  1961: 0000000000370890   812 FUNC    WEAK   DEFAULT   12 _ZSt11nth_elementIN9__gnu_cxx17__normal_iteratorIPfSt6vectorIfSaIfEEEEEvT_S7_S7_
  1962: 00000000003249b0    26 FUNC    WEAK   DEFAULT   12 _ZNK3fst9ImplToFstINS_8internal13VectorFstImplINS_11VectorStateINS_10ReverseArcINS_6ArcTplINS_17TropicalWeightTplIfEEEEEESaIS9_EEEEENS_10MutableFstIS9_EEE5FinalEi
  1963: 00000000008151f8     8 OBJECT  <OS specific>: 10 DEFAULT   25 _ZGVZN3fst6ArcTplINS_23CompactLatticeWeightTplINS_16LatticeWeightTplIfEEiEEE4TypeB5cxx11EvE4type
  1964: 000000000064cec0   203 FUNC    WEAK   DEFAULT   12 _ZN5kaldi10MatrixBaseIfE15MulRowsGroupMatERKS1_
  1965: 00000000005dca10   103 FUNC    WEAK   DEFAULT   12 _ZN5kaldi5nnet324GruNonlinearityComponentD1Ev
  1966: 00000000007fe198    16 OBJECT  WEAK   DEFAULT   21 _ZTIN3fst15ArcIteratorBaseINS_6ArcTplINS_16LatticeWeightTplIfEEEEEE
  1967: 00000000002521b0    21 FUNC    WEAK   DEFAULT   12 _ZNK3fst17ImplToExpandedFstINS_8internal13VectorFstImplINS_11VectorStateINS_10ReverseArcINS_6ArcTplINS_16LatticeWeightTplIfEEEEEESaIS9_EEEEENS_10MutableFstIS9_EEE9NumStatesEv
  1968: 0000000000376af0  1426 FUNC    WEAK   DEFAULT   12 _ZNSt6vectorIfSaIfEE14_M_fill_insertEN9__gnu_cxx17__normal_iteratorIPfS1_EEmRKf
  1969: 000000000028c010  1159 FUNC    WEAK   DEFAULT   12 _ZN3fst22LookAheadComposeFilterINS_21SequenceComposeFilterINS_16LookAheadMatcherINS_3FstINS_6ArcTplINS_17TropicalWeightTplIfEEEEEEEES9_EES9_S9_LNS_9MatchTypeE3EEC1ERKS8_SE_PS9_SF_
  1970: 00000000006100d0    10 FUNC    WEAK   DEFAULT   12 _ZNSt15_Sp_counted_ptrIPKN5kaldi5nnet315NnetComputationELN9__gnu_cxx12_Lock_policyE2EED0Ev
  1971: 00000000006616f0   726 FUNC    WEAK   DEFAULT   12 _ZN5kaldi10MatrixBaseIfE15CopyRowsFromVecIdEEvRKNS_10VectorBaseIT_EE
  1972: 0000000000650350   622 FUNC    WEAK   DEFAULT   12 _ZN5kaldi10MatrixBaseIfE11DiffSigmoidERKS1_S3_
  1973: 00000000006462d0   280 FUNC    WEAK   DEFAULT   12 _ZN5kaldi10MatrixBaseIdE10CopyFromSpIfEEvRKNS_8SpMatrixIT_EE
  1974: 0000000000254980     6 FUNC    WEAK   DEFAULT   12 _ZNK3fst17ComposeFstMatcherINS_17DefaultCacheStoreINS_6ArcTplINS_16LatticeWeightTplIfEEEEEENS_18MatchComposeFilterINS_7MatcherINS_3FstIS5_EEEESB_EENS_24GenericComposeStateTableIS5_NS_18IntegerFilterStateIaEENS_24DefaultComposeStateTupleIiSF_EENS_21CompactHashStateTableISH_NS_11ComposeHashISH_EEEEEEE10PropertiesEm
  1975: 00000000007fe930    24 OBJECT  WEAK   DEFAULT   21 _ZTIN3fst8internal14MemoryPoolImplILm512EEE
  1976: 00000000004b6a80    67 FUNC    WEAK   DEFAULT   12 _ZN3fst10MemoryPoolINS_13PoolAllocatorINS_6ArcTplINS_23CompactLatticeWeightTplINS_16LatticeWeightTplIfEEiEEEEE2TNILi2EEEED0Ev
  1977: 0000000000308530   680 FUNC    WEAK   DEFAULT   12 _ZN3fst13SortedMatcherINS_8ConstFstINS_6ArcTplINS_17TropicalWeightTplIfEEEEjEEEC1EPKS6_NS_9MatchTypeEi
  1978: 0000000000586ec0    93 FUNC    GLOBAL DEFAULT   12 _ZN5kaldi5nnet330NaturalGradientAffineComponentC2ERKS1_
  1979: 000000000067fe90   294 FUNC    WEAK   DEFAULT   12 _ZN5kaldi24AddOuterProductPlusMinusIdEEvT_RKNS_10VectorBaseIS1_EES5_PNS_10MatrixBaseIS1_EES8_
  1980: 00000000007fed70    40 OBJECT  WEAK   DEFAULT   21 _ZTVN3fst8internal15MemoryArenaImplILm32EEE
  1981: 0000000000252080     3 FUNC    WEAK   DEFAULT   12 _ZNK3fst3FstINS_10ReverseArcINS_6ArcTplINS_16LatticeWeightTplIfEEEEEEE11InitMatcherENS_9MatchTypeE
  1982: 000000000051d520   118 FUNC    GLOBAL DEFAULT   12 _ZNK5kaldi5nnet39Component12IsComputableERKNS0_19MiscComputationInfoERKNS0_5IndexERKNS0_8IndexSetEPSt6vectorIS5_SaIS5_EE
  1983: 0000000000443e50   131 FUNC    GLOBAL DEFAULT   12 _ZN5kaldi17ScalarClusterable3SubERKNS_11ClusterableE
  1984: 0000000000803768    24 OBJECT  WEAK   DEFAULT   21 _ZTISt15_Sp_counted_ptrIPN3fst8internal22DeterminizeFstImplBaseINS0_10ReverseArcINS0_6ArcTplINS0_17TropicalWeightTplIfEEEEEEEELN9__gnu_cxx12_Lock_policyE2EE
  1985: 00000000008028f0    24 OBJECT  WEAK   DEFAULT   21 _ZTIN3fst8internal12ConstFstImplINS_6ArcTplINS_17TropicalWeightTplIfEEEEjEE
  1986: 000000000026efb0    67 FUNC    WEAK   DEFAULT   12 _ZN3fst10MemoryPoolINS_13PoolAllocatorIPNSt8__detail15_Hash_node_baseEE2TNILi8EEEED0Ev
  1987: 0000000000633a30   533 FUNC    WEAK   DEFAULT   12 _ZNSt6vectorIN5kaldi13CuBlockMatrixIfE15BlockMatrixDataESaIS3_EE17_M_default_appendEm
  1988: 00000000003f6020   600 FUNC    WEAK   DEFAULT   12 _ZN5kaldi28LatticeIncrementalDecoderTplIN3fst13GrammarFstTplIKNS1_8ConstFstINS1_6ArcTplINS1_17TropicalWeightTplIfEEEEjEEEENS_7decoder16BackpointerTokenEE12InitDecodingEv
  1989: 00000000003573e0     9 FUNC    GLOBAL DEFAULT   12 _ZN5kaldi26OnlineNnet2FeaturePipeline18UpdateFrameWeightsERKSt6vectorISt4pairIifESaIS3_EE
  1990: 00000000003bc7e0  9043 FUNC    WEAK   DEFAULT   12 _ZN3fst9AutoQueueIiEC1INS_10ReverseArcINS_6ArcTplINS_16LatticeWeightTplIfEEEEEENS_12AnyArcFilterIS8_EEEERKNS_3FstIT_EEPKSt6vectorINSC_6WeightESaISH_EET0_
  1991: 000000000062f8b0     5 FUNC    WEAK   DEFAULT   12 _ZN5kaldi12CuVectorBaseIfE8AddSpVecEfRKNS_10CuSpMatrixIfEERKS1_f
  1992: 0000000000252b70     3 FUNC    WEAK   DEFAULT   12 _ZNK3fst3FstINS_6ArcTplINS_23CompactLatticeWeightTplINS_16LatticeWeightTplIfEEiEEEEE11InitMatcherENS_9MatchTypeE
  1993: 0000000000252090    10 FUNC    WEAK   DEFAULT   12 _ZNK3fst9ImplToFstINS_8internal13VectorFstImplINS_11VectorStateINS_10ReverseArcINS_6ArcTplINS_16LatticeWeightTplIfEEEEEESaIS9_EEEEENS_10MutableFstIS9_EEE5StartEv
  1994: 00000000006835c0     7 FUNC    WEAK   DEFAULT   12 _ZNK5kaldi13OptimizeLbfgsIfE16GetProposedValueEv
  1995: 00000000005a44a0   147 FUNC    GLOBAL DEFAULT   12 _ZN5kaldi5nnet317SetNnetAsGradientEPNS0_4NnetE
  1996: 000000000033b520   150 FUNC    WEAK   DEFAULT   12 _ZN3fst16ImplToMutableFstINS_8internal13VectorFstImplINS_11VectorStateINS_10ReverseArcINS_6ArcTplINS_17TropicalWeightTplIfEEEEEESaIS9_EEEEENS_10MutableFstIS9_EEE19MutableInputSymbolsEv
  1997: 00000000004b1710     7 FUNC    WEAK   DEFAULT   12 _ZNK3fst17ComposeFstMatcherINS_17DefaultCacheStoreINS_6ArcTplINS_23CompactLatticeWeightTplINS_16LatticeWeightTplIfEEiEEEEEENS_22LookAheadComposeFilterINS_24AltSequenceComposeFilterINS_16LookAheadMatcherINS_3FstIS7_EEEESE_EESE_SE_LNS_9MatchTypeE3EEENS_24GenericComposeStateTableIS7_NS_18IntegerFilterStateIaEENS_24DefaultComposeStateTupleIiSK_EENS_21CompactHashStateTableISM_NS_11ComposeHashISM_EEEEEEE6GetFstEv
  1998: 000000000059df60   146 FUNC    WEAK   DEFAULT   12 _ZNK5kaldi5nnet339NaturalGradientPerElementScaleComponent4TypeB5cxx11Ev
  1999: 0000000000447810   448 FUNC    GLOBAL DEFAULT   12 _ZN5kaldi18OnlineDeltaFeature8GetFrameEiPNS_10VectorBaseIfEE
  2000: 0000000000599700    75 FUNC    GLOBAL DEFAULT   12 _ZN5kaldi5nnet316PermuteComponent4InitERKSt6vectorIiSaIiEE
  2001: 0000000000390560   107 FUNC    WEAK   DEFAULT   12 _ZNK5kaldi23LatticeFasterDecoderTplIN3fst13GrammarFstTplINS1_9VectorFstINS1_6ArcTplINS1_17TropicalWeightTplIfEEEENS1_11VectorStateIS7_SaIS7_EEEEEEENS_7decoder16BackpointerTokenEE12ReachedFinalEv
  2002: 000000000062d830    90 FUNC    WEAK   DEFAULT   12 _ZN5kaldi14CuSparseMatrixIfEC1ERKS1_NS_19MatrixTransposeTypeE
  2003: 000000000065ca90   318 FUNC    WEAK   DEFAULT   12 _ZN5kaldi10MatrixBaseIdE15SetMatMatDivMatERKS1_S3_S3_
  2004: 000000000055fa70     1 FUNC    WEAK   DEFAULT   12 _ZN5kaldi5nnet328SpecAugmentTimeMaskComponentD1Ev
  2005: 00000000002517b0     1 FUNC    WEAK   DEFAULT   12 _ZNSt23_Sp_counted_ptr_inplaceIN3fst8internal14ComposeFstImplINS0_17DefaultCacheStoreINS0_6ArcTplINS0_17TropicalWeightTplIfEEEEEENS0_21SequenceComposeFilterINS0_7MatcherINS0_3FstIS7_EEEESD_EENS0_24GenericComposeStateTableIS7_NS0_18IntegerFilterStateIaEENS0_24DefaultComposeStateTupleIiSH_EENS0_21CompactHashStateTableISJ_NS0_11ComposeHashISJ_EEEEEEEESaIvELN9__gnu_cxx12_Lock_policyE2EED2Ev
  2006: 00000000006ba4b0    23 FUNC    WEAK   DEFAULT   12 _ZN5kaldi14FileOutputImplD0Ev
  2007: 0000000000629c80    25 FUNC    WEAK   DEFAULT   12 _ZN5kaldi12CuMatrixBaseIdE7RowDataEi
  2008: 00000000004b6680    42 FUNC    WEAK   DEFAULT   12 _ZN3fst8internal15MemoryArenaImplILm776EED0Ev
  2009: 000000000062d7d0    95 FUNC    WEAK   DEFAULT   12 _ZN5kaldi14CuSparseMatrixIfEC1ERKNS_12SparseMatrixIfEE
  2010: 0000000000259350   242 FUNC    WEAK   DEFAULT   12 _ZN3fst17ComposeFstMatcherINS_17DefaultCacheStoreINS_6ArcTplINS_17TropicalWeightTplIfEEEEEENS_21SequenceComposeFilterINS_7MatcherINS_3FstIS5_EEEESB_EENS_24GenericComposeStateTableIS5_NS_18IntegerFilterStateIaEENS_24DefaultComposeStateTupleIiSF_EENS_21CompactHashStateTableISH_NS_11ComposeHashISH_EEEEEEE8PriorityEi
  2011: 0000000000802498    40 OBJECT  WEAK   DEFAULT   21 _ZTVN3fst10MemoryPoolINS_13PoolAllocatorINS_6ArcTplINS_16LatticeWeightTplIfEEEEE2TNILi32EEEEE
  2012: 00000000006ba570   207 FUNC    WEAK   DEFAULT   12 _ZN5kaldi14PipeOutputImpl6StreamEv
  2013: 000000000062b4e0     6 FUNC    WEAK   DEFAULT   12 _ZNK5kaldi14CuPackedMatrixIfE4DataEv
  2014: 0000000000805958    80 OBJECT  WEAK   DEFAULT   21 _ZTVN5kaldi19OnlineMatrixFeatureE
  2015: 00000000002cfd30   463 FUNC    WEAK   DEFAULT   12 _ZN3fst16ImplToMutableFstINS_8internal13VectorFstImplINS_11VectorStateINS_6ArcTplINS_23CompactLatticeWeightTplINS_16LatticeWeightTplIfEEiEEEESaIS9_EEEEENS_10MutableFstIS9_EEE6AddArcEiOS9_
  2016: 000000000059cb50    10 FUNC    WEAK   DEFAULT   12 _ZNK5kaldi5nnet320BlockAffineComponent8InputDimEv
  2017: 00000000005b63c0   892 FUNC    GLOBAL DEFAULT   12 _ZN5kaldi5nnet323time_height_convolution22ConvolveBackwardParamsERKNS1_22ConvolutionComputationERKNS_12CuMatrixBaseIfEES8_fPS6_
  2018: 000000000052b980   406 FUNC    WEAK   DEFAULT   12 _ZNSt6vectorISt4pairIiN5kaldi5nnet35IndexEESaIS4_EE17_M_realloc_insertIJRKS4_EEEvN9__gnu_cxx17__normal_iteratorIPS4_S6_EEDpOT_
  2019: 0000000000624d90   306 FUNC    WEAK   DEFAULT   12 _ZN5kaldi12CuMatrixBaseIfE15SymInvertPosDefEv
  2020: 00000000003d1de0    20 FUNC    WEAK   DEFAULT   12 _ZN5kaldi28LatticeIncrementalDecoderTplIN3fst9VectorFstINS1_6ArcTplINS1_17TropicalWeightTplIfEEEENS1_11VectorStateIS6_SaIS6_EEEEENS_7decoder8StdTokenEE21AllocateNewTokenLabelEv
  2021: 0000000000672580   246 FUNC    WEAK   DEFAULT   12 _ZN5kaldi6VectorIdEC1EiNS_16MatrixResizeTypeE
  2022: 0000000000573620    46 FUNC    GLOBAL DEFAULT   12 _ZN5kaldi5nnet318NormalizeComponentC1ERKS1_
  2023: 000000000029a260   481 FUNC    WEAK   DEFAULT   12 _ZN3fst18MatchComposeFilterINS_7MatcherINS_3FstINS_6ArcTplINS_16LatticeWeightTplIfEEEEEEEES8_E8SetStateEiiRKNS_18IntegerFilterStateIaEE
  2024: 000000000071cb00    89 OBJECT  WEAK   DEFAULT   14 _ZTSN3fst10MemoryPoolINS_13PoolAllocatorINS_6ArcTplINS_16LatticeWeightTplIfEEEEE2TNILi1EEEEE
  2025: 0000000000575c20     6 FUNC    WEAK   DEFAULT   12 _ZNK5kaldi5nnet318BatchNormComponent8InputDimEv
  2026: 000000000036e080   926 FUNC    WEAK   DEFAULT   12 _ZN5kaldi23LatticeFasterDecoderTplIN3fst3FstINS1_6ArcTplINS1_17TropicalWeightTplIfEEEEEENS_7decoder16BackpointerTokenEE17PruneForwardLinksEiPbSB_f
  2027: 000000000063caf0    65 FUNC    GLOBAL DEFAULT   12 _ZN5kaldi10MatrixBaseIfE9AddVecVecIfEEvfRKNS_10VectorBaseIT_EES7_
  2028: 0000000000805610    96 OBJECT  WEAK   DEFAULT   21 _ZTVN5kaldi24OnlineGenericBaseFeatureINS_12MfccComputerEEE
  2029: 0000000000689c30    93 FUNC    WEAK   DEFAULT   12 _ZNK5kaldi12PackedMatrixIdE3MinEv
  2030: 000000000051f0f0   123 FUNC    GLOBAL DEFAULT   12 _ZNK5kaldi5nnet323ComputationGraphBuilder23AllOutputsAreComputableEv
  2031: 0000000000445e40   378 FUNC    GLOBAL DEFAULT   12 _ZN5kaldi13InitIdftBasesEiiPNS_6MatrixIfEE
  2032: 00000000007fdb20    24 OBJECT  WEAK   DEFAULT   21 _ZTIN3fst8internal15MemoryArenaImplILm32EEE
  2033: 00000000002514c0    14 FUNC    WEAK   DEFAULT   12 _ZNK3fst9LifoQueueIiE5EmptyEv
  2034: 0000000000257eb0    78 FUNC    WEAK   DEFAULT   12 _ZNK3fst13SortedMatcherINS_3FstINS_6ArcTplINS_17TropicalWeightTplIfEEEEEEE5FinalEi
  2035: 0000000000266cb0    34 FUNC    WEAK   DEFAULT   12 _ZN3fst23CompactLatticeWeightTplINS_16LatticeWeightTplIfEEiE4ZeroEv
  2036: 000000000064b610    82 FUNC    WEAK   DEFAULT   12 _ZN5kaldi10MatrixBaseIfE7SetUnitEv
  2037: 0000000000466090   493 FUNC    WEAK   DEFAULT   12 _ZNSt6vectorIdSaIdEE17_M_default_appendEm
  2038: 0000000000575c00    26 FUNC    WEAK   DEFAULT   12 _ZNK5kaldi5nnet318NormalizeComponent9OutputDimEv
  2039: 000000000026e640    67 FUNC    WEAK   DEFAULT   12 _ZN3fst10MemoryPoolINS_13PoolAllocatorINS_10ReverseArcINS_6ArcTplINS_16LatticeWeightTplIfEEEEEEE2TNILi4EEEED0Ev
  2040: 0000000000528e80   901 FUNC    GLOBAL DEFAULT   12 _ZN5kaldi5nnet324ComputationStepsComputer24ProcessInputOrOutputStepERKNS0_18ComputationRequestEbRKSt6vectorISt4pairIiNS0_5IndexEESaIS8_EE
  2041: 00000000003d2160    45 FUNC    WEAK   DEFAULT   12 _ZN5kaldi28LatticeIncrementalDecoderTplIN3fst8ConstFstINS1_6ArcTplINS1_17TropicalWeightTplIfEEEEjEENS_7decoder8StdTokenEE18GetNumToksForFrameEi
  2042: 00000000002e7760  1145 FUNC    WEAK   DEFAULT   12 _ZNK3fst8internal14ComposeFstImplINS_17DefaultCacheStoreINS_6ArcTplINS_16LatticeWeightTplIfEEEEEENS_20TrivialComposeFilterINS_7MatcherINS_3FstIS6_EEEESC_EENS_24GenericComposeStateTableIS6_NS_18TrivialFilterStateENS_24DefaultComposeStateTupleIiSF_EENS_21CompactHashStateTableISH_NS_11ComposeHashISH_EEEEEEE4CopyEv
  2043: 0000000000268a70   696 FUNC    WEAK   DEFAULT   12 _ZNSt6vectorIN3fst9VectorFstINS0_6ArcTplINS0_16LatticeWeightTplIfEEEENS0_11VectorStateIS5_SaIS5_EEEEESaIS9_EE7reserveEm
  2044: 0000000000255700    10 FUNC    WEAK   DEFAULT   12 _ZN3fst13StateIteratorINS_10ComposeFstINS_6ArcTplINS_17TropicalWeightTplIfEEEENS_17DefaultCacheStoreIS5_EEEEED0Ev
  2045: 0000000000418880  1004 FUNC    WEAK   DEFAULT   12 _ZN3fst13GrammarFstTplINS_9VectorFstINS_6ArcTplINS_17TropicalWeightTplIfEEEENS_11VectorStateIS5_SaIS5_EEEEEE4ReadERSib
  2046: 000000000062b870     5 FUNC    WEAK   DEFAULT   12 _ZN5kaldi14CuPackedMatrixIdE9ScaleDiagEd
  2047: 000000000059d010    43 FUNC    WEAK   DEFAULT   12 _ZN5kaldi5nnet315AffineComponentD2Ev
  2048: 00000000002c1bd0   150 FUNC    WEAK   DEFAULT   12 _ZN3fst16ImplToMutableFstINS_8internal13VectorFstImplINS_11VectorStateINS_10ReverseArcINS_6ArcTplINS_23CompactLatticeWeightTplINS_16LatticeWeightTplIfEEiEEEEEESaISB_EEEEENS_10MutableFstISB_EEE20MutableOutputSymbolsEv
  2049: 00000000006b4220     5 FUNC    WEAK   DEFAULT   12 _ZN5kaldi8TpMatrixIfE6ResizeEiNS_16MatrixResizeTypeE
  2050: 0000000000692d20  4052 FUNC    GLOBAL DEFAULT   12 _ZN5kaldi21SolveQuadraticProblemIdEET_RKNS_8SpMatrixIS1_EERKNS_10VectorBaseIS1_EERKNS_13SolverOptionsEPS7_
  2051: 00000000002528e0    11 FUNC    WEAK   DEFAULT   12 _ZNK3fst9ImplToFstINS_8internal13ArcMapFstImplINS_6ArcTplINS_17TropicalWeightTplIfEEEENS3_INS_16LatticeWeightTplIfEEEENS_18StdToLatticeMapperIfEEEENS_3FstIS9_EEE4TypeB5cxx11Ev
  2052: 00000000004c3860   345 FUNC    WEAK   DEFAULT   12 _ZN3fst20MemoryPoolCollection4PoolINS_13PoolAllocatorINS_10CacheStateINS_6ArcTplINS_23CompactLatticeWeightTplINS_16LatticeWeightTplIfEEiEEEENS2_IS9_EEEEE2TNILi1EEEEEPNS_10MemoryPoolIT_EEv
  2053: 00000000005b6740   726 FUNC    GLOBAL DEFAULT   12 _ZN5kaldi5nnet323time_height_convolution15CheckModelAndIoERKNS1_16ConvolutionModelERKNS1_24ConvolutionComputationIoEb
  2054: 00000000003718b0    67 FUNC    WEAK   DEFAULT   12 _ZN3fst10MemoryPoolIN5kaldi7decoder8StdTokenEED0Ev
  2055: 00000000005fdf40   288 FUNC    GLOBAL DEFAULT   12 _ZN5kaldi5nnet323ModelUpdateConsolidatorC2ERKNS0_4NnetEPNS0_15NnetComputationE
  2056: 000000000026e120    71 FUNC    WEAK   DEFAULT   12 _ZNSt7__cxx1110_List_baseISt10unique_ptrIA_cSt14default_deleteIS2_EESaIS5_EE8_M_clearEv
  2057: 00000000006cc6f0   546 FUNC    WEAK   DEFAULT   12 _ZNSt8_Rb_treeINSt7__cxx1112basic_stringIcSt11char_traitsIcESaIcEEESt4pairIKS5_PjESt10_Select1stIS9_ESt4lessIS5_ESaIS9_EE11equal_rangeERS7_
  2058: 0000000000630a90   156 FUNC    WEAK   DEFAULT   12 _ZN5kaldi8CuVectorIdEC1ERKNS_10VectorBaseIdEE
  2059: 00000000006ee880   100 FUNC    GLOBAL DEFAULT   12 _ZN3fst8internal14DenseSymbolMapC2Ev
  2060: 0000000000252930    11 FUNC    WEAK   DEFAULT   12 _ZNK3fst9ImplToFstINS_8internal13ArcMapFstImplINS_6ArcTplINS_17TropicalWeightTplIfEEEES6_NS_28RemoveSomeInputSymbolsMapperIS6_iEEEENS_3FstIS6_EEE13OutputSymbolsEv
  2061: 00000000005a4190   171 FUNC    GLOBAL DEFAULT   12 _ZN5kaldi5nnet313PerturbParamsEfPNS0_4NnetE
  2062: 00000000005dc910     6 FUNC    WEAK   DEFAULT   12 _ZNK5kaldi5nnet324GruNonlinearityComponent10PropertiesEv
  2063: 00000000005511a0    37 FUNC    WEAK   DEFAULT   12 _ZN5kaldi5nnet326OffsetForwardingDescriptorD2Ev
  2064: 00000000003c1000   515 FUNC    WEAK   DEFAULT   12 _ZNK3fst10RandGenFstINS_6ArcTplINS_16LatticeWeightTplIfEEEES4_NS_10ArcSamplerIS4_NS_18UniformArcSelectorIS4_EEEEE17InitStateIteratorEPNS_17StateIteratorDataIS4_EE
  2065: 0000000000446b70   431 FUNC    GLOBAL DEFAULT   12 _ZN5kaldi13DeltaFeaturesC1ERKNS_20DeltaFeaturesOptionsE
  2066: 00000000002696d0   111 FUNC    WEAK   DEFAULT   12 _ZN3fst11make_uniqueINS_8SccQueueIiNS_9QueueBaseIiEEEEJRSt6vectorIiSaIiEEPS5_ISt10unique_ptrIS3_St14default_deleteIS3_EESaISC_EEEEES9_IT_SA_ISG_EEDpOT0_
  2067: 0000000000595c80  1432 FUNC    GLOBAL DEFAULT   12 _ZNK5kaldi5nnet323RepeatedAffineComponent5WriteERSob
  2068: 0000000000517e40  1060 FUNC    GLOBAL DEFAULT   12 _ZN5kaldi5nnet318NonlinearComponent14InitFromConfigEPNS_10ConfigLineE
  2069: 000000000036aa40    21 FUNC    WEAK   DEFAULT   12 _ZN5kaldi23LatticeFasterDecoderTplIN3fst3FstINS1_6ArcTplINS1_17TropicalWeightTplIfEEEEEENS_7decoder8StdTokenEE9TokenListC2Ev
  2070: 000000000065ef50   119 FUNC    WEAK   DEFAULT   12 _ZN5kaldi9SubMatrixIdEC1ERKNS_10MatrixBaseIdEEiiii
  2071: 0000000000252520   125 FUNC    WEAK   DEFAULT   12 _ZN3fst13TopOrderQueueIiE7EnqueueEi
  2072: 00000000003bc7e0  9043 FUNC    WEAK   DEFAULT   12 _ZN3fst9AutoQueueIiEC2INS_10ReverseArcINS_6ArcTplINS_16LatticeWeightTplIfEEEEEENS_12AnyArcFilterIS8_EEEERKNS_3FstIT_EEPKSt6vectorINSC_6WeightESaISH_EET0_
  2073: 00000000007fed40    48 OBJECT  WEAK   DEFAULT   21 _ZTVN3fst8internal13CacheBaseImplINS_10CacheStateINS_6ArcTplINS_17TropicalWeightTplIfEEEENS_13PoolAllocatorIS6_EEEENS_17DefaultCacheStoreIS6_EEEE
  2074: 0000000000658a60   147 FUNC    WEAK   DEFAULT   12 _ZN5kaldi10MatrixBaseIdE7AddRowsEdRKS1_PKi
  2075: 0000000000253eb0     7 FUNC    WEAK   DEFAULT   12 _ZNK3fst18MutableArcIteratorINS_9VectorFstINS_6ArcTplINS_16LatticeWeightTplIfEEEENS_11VectorStateIS5_SaIS5_EEEEEE8PositionEv
  2076: 000000000025efb0   117 FUNC    WEAK   DEFAULT   12 _ZN3fst10MemoryPoolINS_13PoolAllocatorINS_6ArcTplINS_16LatticeWeightTplIfEEEEE2TNILi64EEEED2Ev
  2077: 000000000029c940   386 FUNC    WEAK   DEFAULT   12 _ZN3fst18SetFinalPropertiesINS_23CompactLatticeWeightTplINS_16LatticeWeightTplIfEEiEEEEmmRKT_S7_
  2078: 0000000000251910    16 FUNC    WEAK   DEFAULT   12 _ZNK3fst13SortedMatcherINS_3FstINS_6ArcTplINS_16LatticeWeightTplIfEEEEEEE10PropertiesEm
  2079: 00000000007ff3c8   312 OBJECT  WEAK   DEFAULT   21 _ZTVN3fst9ImplToFstINS_8internal13VectorFstImplINS_11VectorStateINS_6ArcTplINS_23CompactLatticeWeightTplINS_16LatticeWeightTplIfEEiEEEESaIS9_EEEEENS_10MutableFstIS9_EEEE
  2080: 00000000003d1be0   219 FUNC    WEAK   DEFAULT   12 _ZN5kaldi28LatticeIncrementalDecoderTplIN3fst3FstINS1_6ArcTplINS1_17TropicalWeightTplIfEEEEEENS_7decoder8StdTokenEE17ClearActiveTokensEv
  2081: 000000000034cdd0   234 FUNC    WEAK   DEFAULT   12 _ZN3fst17ComposeFstMatcherINS_17DefaultCacheStoreINS_6ArcTplINS_17TropicalWeightTplIfEEEEEENS_20TrivialComposeFilterINS_7MatcherINS_3FstIS5_EEEESB_EENS_24GenericComposeStateTableIS5_NS_18TrivialFilterStateENS_24DefaultComposeStateTupleIiSE_EENS_21CompactHashStateTableISG_NS_11ComposeHashISG_EEEEEEE4FindEi
  2082: 00000000005d05e0    18 FUNC    GLOBAL DEFAULT   12 _ZNK5kaldi5nnet325LstmNonlinearityComponent8InputDimEv
  2083: 0000000000557580  1384 FUNC    GLOBAL DEFAULT   12 _ZN5kaldi5nnet323GeneralDropoutComponent14InitFromConfigEPNS_10ConfigLineE
  2084: 000000000037cff0   690 FUNC    WEAK   DEFAULT   12 _ZN5kaldi23LatticeFasterDecoderTplIN3fst3FstINS1_6ArcTplINS1_17TropicalWeightTplIfEEEEEENS_7decoder8StdTokenEEC1ERKNS_26LatticeFasterDecoderConfigEPS7_
  2085: 000000000065df30  1506 FUNC    WEAK   DEFAULT   12 _ZN5kaldi10MatrixBaseIdE10AddSpMatSpEdRKNS_8SpMatrixIdEERKS1_NS_19MatrixTransposeTypeES5_d
  2086: 0000000000658280   302 FUNC    WEAK   DEFAULT   12 _ZN5kaldi10MatrixBaseIdE10MulColsVecERKNS_10VectorBaseIdEE
  2087: 0000000000487be0  1127 FUNC    GLOBAL DEFAULT   12 _ZN5kaldi12LatticeBoostERKNS_21TransitionInformationERKSt6vectorIiSaIiEES7_ffPN3fst9VectorFstINS8_6ArcTplINS8_16LatticeWeightTplIfEEEENS8_11VectorStateISD_SaISD_EEEEE
  2088: 000000000062c460     5 FUNC    WEAK   DEFAULT   12 _ZN5kaldi10CuSpMatrixIfE10CopyFromSpERKS1_
  2089: 00000000004b0ce0     1 FUNC    WEAK   DEFAULT   12 _ZNSt23_Sp_counted_ptr_inplaceIN3fst8internal14ComposeFstImplINS0_17DefaultCacheStoreINS0_6ArcTplINS0_23CompactLatticeWeightTplINS0_16LatticeWeightTplIfEEiEEEEEENS0_21SequenceComposeFilterINS0_7MatcherINS0_3FstIS9_EEEESF_EENS0_24GenericComposeStateTableIS9_NS0_18IntegerFilterStateIaEENS0_24DefaultComposeStateTupleIiSJ_EENS0_21CompactHashStateTableISL_NS0_11ComposeHashISL_EEEEEEEESaIvELN9__gnu_cxx12_Lock_policyE2EED2Ev
  2090: 000000000036aaa0    10 FUNC    WEAK   DEFAULT   12 _ZNK5kaldi23LatticeFasterDecoderTplIN3fst9VectorFstINS1_6ArcTplINS1_17TropicalWeightTplIfEEEENS1_11VectorStateIS6_SaIS6_EEEEENS_7decoder8StdTokenEE10GetOptionsEv
  2091: 00000000003b3f20   362 FUNC    WEAK   DEFAULT   12 _ZN3fst8internal21ShortestDistanceStateINS_6ArcTplINS_16LatticeWeightTplIfEEEENS_9AutoQueueIiEENS_12AnyArcFilterIS5_EEE26EnsureDistanceIndexIsValidEm
  2092: 0000000000727280    32 OBJECT  WEAK   DEFAULT   14 _ZTSN5kaldi21TransitionInformationE
  2093: 0000000000269640   134 FUNC    WEAK   DEFAULT   12 _ZN3fst11make_uniqueINS_9FifoQueueIiEEJEEESt10unique_ptrIT_St14default_deleteIS4_EEDpOT0_
  2094: 0000000000622cf0    43 FUNC    WEAK   DEFAULT   12 _ZN5kaldi8CuMatrixIfE7DestroyEv
  2095: 00000000003d8e20    39 FUNC    WEAK   DEFAULT   12 _ZNSt6vectorIN5kaldi28LatticeIncrementalDecoderTplIN3fst9VectorFstINS2_6ArcTplINS2_17TropicalWeightTplIfEEEENS2_11VectorStateIS7_SaIS7_EEEEENS0_7decoder8StdTokenEE9TokenListESaISF_EED2Ev
  2096: 000000000056ae20  3762 FUNC    GLOBAL DEFAULT   12 _ZN5kaldi5nnet34Nnet30ProcessComponentNodeConfigLineEiPNS_10ConfigLineE
  2097: 0000000000683c70   850 FUNC    WEAK   DEFAULT   12 _ZN5kaldi13OptimizeLbfgsIfE16ComputeHifNeededERKNS_10VectorBaseIfEE
  2098: 0000000000429390    13 FUNC    WEAK   DEFAULT   12 _ZNSt6thread11_State_implINS_8_InvokerISt5tupleIJPFvPN5kaldi13TaskSequencerINS3_39IvectorExtractorComputeDerivedVarsClassEE15RunTaskArgsListEES8_EEEEE6_M_runEv
  2099: 00000000003b04f0    11 FUNC    WEAK   DEFAULT   12 _ZNK3fst9ImplToFstINS_8internal14RandGenFstImplINS_6ArcTplINS_16LatticeWeightTplIfEEEES6_NS_10ArcSamplerIS6_NS_18UniformArcSelectorIS6_EEEEEENS_3FstIS6_EEE4TypeB5cxx11Ev
  2100: 000000000059d7f0    63 FUNC    WEAK   DEFAULT   12 _ZN5kaldi5nnet325ConstantFunctionComponentD0Ev
  2101: 000000000062cfc0    34 FUNC    WEAK   DEFAULT   12 _ZNK5kaldi14CuSparseMatrixIdE17CopyElementsToVecEPNS_12CuVectorBaseIdEE
  2102: 0000000000411070   861 FUNC    WEAK   DEFAULT   12 _ZN3fst13GrammarFstTplINS_9VectorFstINS_6ArcTplINS_17TropicalWeightTplIfEEEENS_11VectorStateIS5_SaIS5_EEEEEE7DestroyEv
  2103: 000000000071c340   135 OBJECT  WEAK   DEFAULT   14 _ZTSN3fst10MemoryPoolINS_13PoolAllocatorINS_10CacheStateINS_10ReverseArcINS_6ArcTplINS_16LatticeWeightTplIfEEEEEENS1_IS8_EEEEE2TNILi1EEEEE
  2104: 0000000000560970    90 FUNC    WEAK   DEFAULT   12 _ZNK5kaldi5nnet319DistributeComponent4CopyEv
  2105: 00000000005c5160   305 FUNC    GLOBAL DEFAULT   12 _ZN5kaldi5nnet320ComputationVariables23ComputeVariableToMatrixEv
  2106: 0000000000434c90   220 FUNC    GLOBAL DEFAULT   12 _ZN5kaldi7FullGmm15ResizeInvCovarsEii
  2107: 000000000063dac0    23 FUNC    WEAK   DEFAULT   12 _ZN5kaldi23EigenvalueDecompositionIfE1VEii
  2108: 0000000000551580   113 FUNC    WEAK   DEFAULT   12 _ZN5kaldi5nnet329SwitchingForwardingDescriptorD0Ev
  2109: 000000000080a938    56 OBJECT  WEAK   DEFAULT   21 _ZTVN5kaldi18StandardOutputImplE
  2110: 00000000005d5d20  1235 FUNC    GLOBAL DEFAULT   12 _ZN5kaldi5nnet325LstmNonlinearityComponent14InitFromConfigEPNS_10ConfigLineE
  2111: 00000000003e5e30   654 FUNC    WEAK   DEFAULT   12 _ZN5kaldi28LatticeIncrementalDecoderTplIN3fst3FstINS1_6ArcTplINS1_17TropicalWeightTplIfEEEEEENS_7decoder16BackpointerTokenEEC1ERKS7_RKNS_21TransitionInformationERKNS_31LatticeIncrementalDecoderConfigE
  2112: 00000000002657f0    39 FUNC    WEAK   DEFAULT   12 _ZNSt6vectorIiSaIiEED1Ev
  2113: 000000000036b830    10 FUNC    WEAK   DEFAULT   12 _ZNK5kaldi23LatticeFasterDecoderTplIN3fst13GrammarFstTplIKNS1_8ConstFstINS1_6ArcTplINS1_17TropicalWeightTplIfEEEEjEEEENS_7decoder16BackpointerTokenEE10GetOptionsEv
  2114: 0000000000808580   200 OBJECT  WEAK   DEFAULT   21 _ZTVN5kaldi5nnet316DropoutComponentE
  2115: 0000000000260d20   286 FUNC    WEAK   DEFAULT   12 _ZNK3fst3FstINS_10ReverseArcINS_6ArcTplINS_23CompactLatticeWeightTplINS_16LatticeWeightTplIfEEiEEEEEEE5WriteERSoRKNS_15FstWriteOptionsE
  2116: 00000000003d1fb0     9 FUNC    WEAK   DEFAULT   12 _ZNK5kaldi28LatticeIncrementalDecoderTplIN3fst8ConstFstINS1_6ArcTplINS1_17TropicalWeightTplIfEEEEjEENS_7decoder8StdTokenEE18NumFramesInLatticeEv
  2117: 00000000004a2ea0   807 FUNC    WEAK   DEFAULT   12 _ZNSt6vectorIS_ISt4pairIffESaIS1_EESaIS3_EE17_M_default_appendEm
  2118: 0000000000804b80    40 OBJECT  WEAK   DEFAULT   21 _ZTVN3fst10MemoryPoolINS_13PoolAllocatorINS_10ReverseArcINS_6ArcTplINS_17TropicalWeightTplIfEEEEEEE2TNILi8EEEEE
  2119: 00000000004b1260     6 FUNC    WEAK   DEFAULT   12 _ZNK3fst18CacheStateIteratorINS_10RandGenFstINS_6ArcTplINS_23CompactLatticeWeightTplINS_16LatticeWeightTplIfEEiEEEES7_NS_10ArcSamplerIS7_NS_18UniformArcSelectorIS7_EEEEEEE5ValueEv
  2120: 00000000008084a0    24 OBJECT  WEAK   DEFAULT   21 _ZTIN5kaldi5nnet318CompositeComponentE
  2121: 00000000006ee7b0   198 FUNC    GLOBAL DEFAULT   12 _ZN3fst22SymbolTableTextOptionsC1Eb
  2122: 000000000050ddb0  1537 FUNC    GLOBAL DEFAULT   12 _ZN5kaldi5nnet38Compiler23SetUpPrecomputedIndexesERKSt6vectorIiSaIiEEPNS0_15NnetComputationE
  2123: 000000000062fdc0    72 FUNC    WEAK   DEFAULT   12 _ZN5kaldi12CuVectorBaseIdE14SetRandUniformEv
  2124: 0000000000410410   218 FUNC    WEAK   DEFAULT   12 _ZNSt6vectorISt13unordered_mapIiiSt4hashIiESt8equal_toIiESaISt4pairIKiiEEESaIS9_EED2Ev
  2125: 0000000000424520  3634 FUNC    GLOBAL DEFAULT   12 _ZNK5kaldi21IvectorExtractorStats15UpdateVariancesERKNS_33IvectorExtractorEstimationOptionsEPNS_16IvectorExtractorE
  2126: 000000000059cae0     6 FUNC    WEAK   DEFAULT   12 _ZNK5kaldi5nnet316SigmoidComponent10PropertiesEv
  2127: 000000000026c5b0    80 FUNC    WEAK   DEFAULT   12 _ZN3fst13StateIteratorINS_3FstINS_6ArcTplINS_16LatticeWeightTplIfEEEEEEEC1ERKS6_
  2128: 00000000002c1d10   174 FUNC    WEAK   DEFAULT   12 _ZN3fst16ImplToMutableFstINS_8internal13VectorFstImplINS_11VectorStateINS_10ReverseArcINS_6ArcTplINS_23CompactLatticeWeightTplINS_16LatticeWeightTplIfEEiEEEEEESaISB_EEEEENS_10MutableFstISB_EEE11ReserveArcsEim
  2129: 000000000025cbd0    75 FUNC    WEAK   DEFAULT   12 _ZNSt23_Sp_counted_ptr_inplaceIN3fst8internal14ComposeFstImplINS0_17DefaultCacheStoreINS0_6ArcTplINS0_17TropicalWeightTplIfEEEEEENS0_23PushLabelsComposeFilterINS0_24PushWeightsComposeFilterINS0_22LookAheadComposeFilterINS0_24AltSequenceComposeFilterINS0_16LookAheadMatcherINS0_3FstIS7_EEEESG_EESG_SG_LNS0_9MatchTypeE3EEESG_SG_LSI_3EEESG_SG_LSI_3EEENS0_24GenericComposeStateTableIS7_NS0_15PairFilterStateINSN_INS0_18IntegerFilterStateIaEENS0_17WeightFilterStateIS6_EEEENSO_IiEEEENS0_24DefaultComposeStateTupleIiSU_EENS0_21CompactHashStateTableISW_NS0_11ComposeHashISW_EEEEEEEESaIvELN9__gnu_cxx12_Lock_policyE2EE14_M_get_deleterERKSt9type_info
  2130: 0000000000526e60   928 FUNC    GLOBAL DEFAULT   12 _ZN5kaldi5nnet323ComputationGraphBuilder10AddOutputsEv
  2131: 00000000007fe828    24 OBJECT  WEAK   DEFAULT   21 _ZTIN3fst10MemoryPoolINS_13PoolAllocatorIPNSt8__detail15_Hash_node_baseEE2TNILi4EEEEE
  2132: 0000000000407960     5 FUNC    WEAK   DEFAULT   12 _ZN5kaldi34LatticeIncrementalOnlineDecoderTplIN3fst8ConstFstINS1_6ArcTplINS1_17TropicalWeightTplIfEEEEjEEEC1ERKS7_RKNS_21TransitionInformationERKNS_31LatticeIncrementalDecoderConfigE
  2133: 0000000000807318    24 OBJECT  WEAK   DEFAULT   21 _ZTIN5kaldi5nnet332ReplaceIndexForwardingDescriptorE
  2134: 000000000080a6b0   288 OBJECT  WEAK   DEFAULT   21 _ZTVN5kaldi5nnet330OutputGruNonlinearityComponentE
  2135: 0000000000802470    40 OBJECT  WEAK   DEFAULT   21 _ZTVN3fst8internal14MemoryPoolImplILm640EEE
  2136: 0000000000458480   106 FUNC    GLOBAL DEFAULT   12 _ZN5kaldi18FirstSampleOfFrameEiRKNS_22FrameExtractionOptionsE
  2137: 00000000003058e0   157 FUNC    WEAK   DEFAULT   12 _ZN3fst8internal15MemoryArenaImplILm56EEC1Em
  2138: 00000000004b8720   639 FUNC    WEAK   DEFAULT   12 _ZN3fst8internal21ShortestDistanceStateINS_6ArcTplINS_23CompactLatticeWeightTplINS_16LatticeWeightTplIfEEiEEEENS_9AutoQueueIiEENS_16EpsilonArcFilterIS7_EEE26EnsureDistanceIndexIsValidEm
  2139: 000000000055bd20  1355 FUNC    GLOBAL DEFAULT   12 _ZNK5kaldi5nnet347StatisticsExtractionComponentPrecomputedIndexes5WriteERSob
  2140: 000000000044f820  1812 FUNC    GLOBAL DEFAULT   12 _ZN5kaldi22OnlinePitchFeatureImpl19RecomputeBacktracesEv
  2141: 000000000055ac20   146 FUNC    GLOBAL DEFAULT   12 _ZNK5kaldi5nnet328SpecAugmentTimeMaskComponent9PropagateEPKNS0_27ComponentPrecomputedIndexesERKNS_12CuMatrixBaseIfEEPS6_
  2142: 00000000005d9490   394 FUNC    GLOBAL DEFAULT   12 _ZNK5kaldi5nnet320ConvolutionComponent5WriteERSob
  2143: 00000000005841b0   420 FUNC    GLOBAL DEFAULT   12 _ZNK5kaldi5nnet327ElementwiseProductComponent8BackpropERKNSt7__cxx1112basic_stringIcSt11char_traitsIcESaIcEEEPKNS0_27ComponentPrecomputedIndexesERKNS_12CuMatrixBaseIfEESG_SG_PvPNS0_9ComponentEPSE_
  2144: 0000000000674770    66 FUNC    WEAK   DEFAULT   12 _ZN5kaldi10VectorBaseIfE9AddVecVecEfRKS1_S3_f
  2145: 000000000064e770   192 FUNC    WEAK   DEFAULT   12 _ZNK5kaldi10MatrixBaseIfE13FrobeniusNormEv
  2146: 000000000068ad70  7201 FUNC    WEAK   DEFAULT   12 _ZN5kaldi12PackedMatrixIdE4ReadERSibb
  2147: 00000000005699f0  2342 FUNC    GLOBAL DEFAULT   12 _ZN5kaldi5nnet34Nnet29ProcessDimRangeNodeConfigLineEiPNS_10ConfigLineE
  2148: 00000000004914d0  2617 FUNC    WEAK   DEFAULT   12 _ZN5kaldi12PruneLatticeIN3fst9VectorFstINS1_6ArcTplINS1_16LatticeWeightTplIfEEEENS1_11VectorStateIS6_SaIS6_EEEEEEEbfPT_
  2149: 00000000004c45b0    19 FUNC    WEAK   DEFAULT   12 _ZN3fst8internal9CacheImplINS_6ArcTplINS_23CompactLatticeWeightTplINS_16LatticeWeightTplIfEEiEEEEED2Ev
  2150: 000000000053ab40   296 FUNC    WEAK   DEFAULT   12 _ZN5kaldi14WriteBasicTypeImEEvRSobT_
  2151: 000000000054ac00    71 FUNC    WEAK   DEFAULT   12 _ZNK5kaldi5nnet330TimeHeightConvolutionComponent4CopyEv
  2152: 00000000004e0890  1984 FUNC    GLOBAL DEFAULT   12 _ZN5kaldi18ConstArpaLmBuilder12ReadCompleteEv
  2153: 0000000000252b80    21 FUNC    WEAK   DEFAULT   12 _ZNK3fst17ImplToExpandedFstINS_8internal13VectorFstImplINS_11VectorStateINS_6ArcTplINS_23CompactLatticeWeightTplINS_16LatticeWeightTplIfEEiEEEESaIS9_EEEEENS_10MutableFstIS9_EEE9NumStatesEv
  2154: 0000000000624370     5 FUNC    WEAK   DEFAULT   12 _ZN5kaldi12CuMatrixBaseIfE7SigmoidERKS1_
  2155: 0000000000535d80   743 FUNC    GLOBAL DEFAULT   12 _ZN5kaldi5nnet318ComputationRequest4ReadERSib
  2156: 0000000000252ee0   618 FUNC    WEAK   DEFAULT   12 _ZN3fst8internal14ComposeFstImplINS_17DefaultCacheStoreINS_6ArcTplINS_16LatticeWeightTplIfEEEEEENS_24AltSequenceComposeFilterINS_7MatcherINS_3FstIS6_EEEESC_EENS_24GenericComposeStateTableIS6_NS_18IntegerFilterStateIaEENS_24DefaultComposeStateTupleIiSG_EENS_21CompactHashStateTableISI_NS_11ComposeHashISI_EEEEEEE12ComputeFinalEi
  2157: 0000000000659a90   193 FUNC    WEAK   DEFAULT   12 _ZNK5kaldi10MatrixBaseIdE13FrobeniusNormEv
  2158: 00000000004585e0   301 FUNC    GLOBAL DEFAULT   12 _ZN5kaldi6DitherEPNS_10VectorBaseIfEEf
  2159: 0000000000255080     9 FUNC    WEAK   DEFAULT   12 _ZN3fst18MutableArcIteratorINS_9VectorFstINS_10ReverseArcINS_6ArcTplINS_23CompactLatticeWeightTplINS_16LatticeWeightTplIfEEiEEEEEENS_11VectorStateIS9_SaIS9_EEEEEE4SeekEm
  2160: 000000000059cbc0     6 FUNC    WEAK   DEFAULT   12 _ZNK5kaldi5nnet316SoftmaxComponent10PropertiesEv
  2161: 000000000025cdb0    75 FUNC    WEAK   DEFAULT   12 _ZNSt23_Sp_counted_ptr_inplaceIN3fst8internal18DeterminizeFsaImplINS0_10ReverseArcINS0_6ArcTplINS0_16LatticeWeightTplIfEEEEEENS0_20DefaultCommonDivisorIS6_EENS0_24DefaultDeterminizeFilterIS8_EENS0_28DefaultDeterminizeStateTableIS8_NS0_18IntegerFilterStateIaEEEEEESaIvELN9__gnu_cxx12_Lock_policyE2EE14_M_get_deleterERKSt9type_info
  2162: 000000000026dc30   411 FUNC    WEAK   DEFAULT   12 _ZN3fst11CountStatesINS_6ArcTplINS_17TropicalWeightTplIfEEEEEENT_7StateIdERKNS_3FstIS5_EE
  2163: 000000000080a8b8    24 OBJECT  WEAK   DEFAULT   21 _ZTIN5kaldi17StandardInputImplE
  2164: 000000000026e2e0    67 FUNC    WEAK   DEFAULT   12 _ZN3fst10MemoryPoolINS_13PoolAllocatorINS_10ReverseArcINS_6ArcTplINS_16LatticeWeightTplIfEEEEEEE2TNILi32EEEED0Ev
  2165: 00000000003c0990   171 FUNC    WEAK   DEFAULT   12 _ZNSt12_Vector_baseIN3fst10ReverseArcINS0_6ArcTplINS0_16LatticeWeightTplIfEEEEEENS0_13PoolAllocatorIS6_EEED2Ev
  2166: 000000000065f020    31 FUNC    WEAK   DEFAULT   12 _ZN5kaldi9SubMatrixIdEC1ERKS1_
  2167: 0000000000253d60    11 FUNC    WEAK   DEFAULT   12 _ZN3fst18MutableArcIteratorINS_9VectorFstINS_6ArcTplINS_17TropicalWeightTplIfEEEENS_11VectorStateIS5_SaIS5_EEEEEE5ResetEv
  2168: 00000000004a2c30   135 FUNC    WEAK   DEFAULT   12 _ZNSt6vectorISt3mapIidSt4lessIiESaISt4pairIKidEEESaIS7_EED1Ev
  2169: 00000000002557b0    10 FUNC    WEAK   DEFAULT   12 _ZN3fst18CacheStateIteratorINS_14DeterminizeFstINS_10ReverseArcINS_6ArcTplINS_16LatticeWeightTplIfEEEEEEEEED0Ev
  2170: 00000000004b66b0    24 FUNC    WEAK   DEFAULT   12 _ZN3fst8internal15MemoryArenaImplILm392EED1Ev
  2171: 0000000000412a30   299 FUNC    WEAK   DEFAULT   12 _ZN3fst8internal15SymbolTableImplD2Ev
  2172: 0000000000466280  1189 FUNC    WEAK   DEFAULT   12 _ZN3fst25LatticeDeterminizerPrunedINS_16LatticeWeightTplIfEEiE21ComputeBackwardWeightEv
  2173: 000000000054bde0   410 FUNC    GLOBAL DEFAULT   12 _ZNK5kaldi5nnet319SimpleSumDescriptor15GetDependenciesERKNS0_5IndexEPSt6vectorISt4pairIiS2_ESaIS7_EE
  2174: 000000000065ad30  1262 FUNC    WEAK   DEFAULT   12 _ZN5kaldi10MatrixBaseIdE15GroupPnormDerivERKS1_S3_d
  2175: 000000000062b700   151 FUNC    WEAK   DEFAULT   12 _ZN5kaldi14CuPackedMatrixIdEC2ERKS1_
  2176: 0000000000448380   257 FUNC    GLOBAL DEFAULT   12 _ZN5kaldi10OnlineCmvn8SetStateERKNS_15OnlineCmvnStateE
  2177: 0000000000607d30  1221 FUNC    GLOBAL DEFAULT   12 _ZN5kaldi5nnet321ComputationRenumberer28RemoveIndexesMultiDuplicatesEv
  2178: 00000000006b62f0    39 FUNC    WEAK   DEFAULT   12 _ZNSt6vectorISt4pairIllESaIS1_EED1Ev
  2179: 000000000062cec0     7 FUNC    WEAK   DEFAULT   12 _ZN5kaldi14CuSparseMatrixIfE9CsrRowPtrEv
  2180: 0000000000289160   322 FUNC    WEAK   DEFAULT   12 _ZN3fst16ImplToMutableFstINS_8internal13VectorFstImplINS_11VectorStateINS_6ArcTplINS_16LatticeWeightTplIfEEEESaIS7_EEEEENS_10MutableFstIS7_EEE10DeleteArcsEim
  2181: 0000000000254030    27 FUNC    WEAK   DEFAULT   12 _ZNK3fst18MutableArcIteratorINS_9VectorFstINS_10ReverseArcINS_6ArcTplINS_16LatticeWeightTplIfEEEEEENS_11VectorStateIS7_SaIS7_EEEEEE5ValueEv
  2182: 00000000006005e0  2585 FUNC    GLOBAL DEFAULT   12 _ZN5kaldi5nnet321DerivativeTimeLimiter13PruneMatricesEv
  2183: 00000000004590b0   309 FUNC    GLOBAL DEFAULT   12 _ZN5kaldi8MelBanksC2ERKS0_
  2184: 000000000055fa80     1 FUNC    WEAK   DEFAULT   12 _ZN5kaldi5nnet323GeneralDropoutComponentD1Ev
  2185: 000000000039c280   600 FUNC    WEAK   DEFAULT   12 _ZN3fst14TestPropertiesINS_6ArcTplINS_16LatticeWeightTplIfEEEEEEmRKNS_3FstIT_EEmPm
  2186: 0000000000809330   288 OBJECT  WEAK   DEFAULT   21 _ZTVN5kaldi5nnet325ConstantFunctionComponentE
  2187: 00000000005ebc40  1574 FUNC    GLOBAL DEFAULT   12 _ZNK5kaldi5nnet319ExampleMergingStats19PrintAggregateStatsEv
  2188: 0000000000262100   231 FUNC    WEAK   DEFAULT   12 _ZN3fst8internal7FstImplINS_10ReverseArcINS_6ArcTplINS_23CompactLatticeWeightTplINS_16LatticeWeightTplIfEEiEEEEEEED2Ev
  2189: 0000000000400920   695 FUNC    WEAK   DEFAULT   12 _ZN5kaldi28LatticeIncrementalDecoderTplIN3fst9VectorFstINS1_6ArcTplINS1_17TropicalWeightTplIfEEEENS1_11VectorStateIS6_SaIS6_EEEEENS_7decoder16BackpointerTokenEE6DecodeEPNS_18DecodableInterfaceE
  2190: 0000000000672560    17 FUNC    WEAK   DEFAULT   12 _ZN5kaldi6VectorIdEC1Ev
  2191: 0000000000307b00   457 FUNC    WEAK   DEFAULT   12 _ZNSt10unique_ptrIN3fst14LabelReachableINS0_6ArcTplINS0_17TropicalWeightTplIfEEEENS0_18FastLogAccumulatorIS5_EENS0_18LabelReachableDataIiEEEESt14default_deleteISA_EED1Ev
  2192: 00000000002555b0    10 FUNC    WEAK   DEFAULT   12 _ZNSt23_Sp_counted_ptr_inplaceIN3fst8internal13VectorFstImplINS0_11VectorStateINS0_10ReverseArcINS0_6ArcTplINS0_16LatticeWeightTplIfEEEEEESaIS9_EEEEESaIvELN9__gnu_cxx12_Lock_policyE2EED0Ev
  2193: 0000000000560e00    39 FUNC    WEAK   DEFAULT   12 _ZNSt10_HashtableIN5kaldi5nnet35IndexESt4pairIKS2_iESaIS5_ENSt8__detail10_Select1stESt8equal_toIS2_ENS1_11IndexHasherENS7_18_Mod_range_hashingENS7_20_Default_ranged_hashENS7_20_Prime_rehash_policyENS7_17_Hashtable_traitsILb0ELb0ELb1EEEE21_M_deallocate_bucketsEv
  2194: 0000000000285d10   246 FUNC    WEAK   DEFAULT   12 _ZNSt6vectorIN3fst6ArcTplINS0_16LatticeWeightTplIfEEEESaIS4_EE7reserveEm
  2195: 00000000007feac8    24 OBJECT  WEAK   DEFAULT   21 _ZTIN3fst8internal14MemoryPoolImplILm640EEE
  2196: 00000000003023e0    83 FUNC    WEAK   DEFAULT   12 _ZN3fst8internal9AddOnImplINS_8ConstFstINS_6ArcTplINS_17TropicalWeightTplIfEEEEjEENS_9AddOnPairINS_18LabelReachableDataIiEESA_EEED0Ev
  2197: 0000000000290150   160 FUNC    WEAK   DEFAULT   12 _ZN3fst8internal14ComposeFstImplINS_17DefaultCacheStoreINS_6ArcTplINS_16LatticeWeightTplIfEEEEEENS_20NoMatchComposeFilterINS_7MatcherINS_3FstIS6_EEEESC_EENS_24GenericComposeStateTableIS6_NS_18TrivialFilterStateENS_24DefaultComposeStateTupleIiSF_EENS_21CompactHashStateTableISH_NS_11ComposeHashISH_EEEEEEED2Ev
  2198: 000000000068a180    88 FUNC    WEAK   DEFAULT   12 _ZN5kaldi12PackedMatrixIfEC2EiNS_16MatrixResizeTypeE
  2199: 000000000068a480   418 FUNC    WEAK   DEFAULT   12 _ZN5kaldi12PackedMatrixIdE6ResizeEiNS_16MatrixResizeTypeE
  2200: 0000000000447f20    71 FUNC    GLOBAL DEFAULT   12 _ZN5kaldi15OnlineCmvnStateC2ERKS0_
  2201: 0000000000652bb0   578 FUNC    WEAK   DEFAULT   12 _ZN5kaldi10MatrixBaseIfE8AddTpMatEfRKNS_8TpMatrixIfEENS_19MatrixTransposeTypeERKS1_S6_f
  2202: 00000000003eb5a0    84 FUNC    WEAK   DEFAULT   12 _ZNK5kaldi28LatticeIncrementalDecoderTplIN3fst3FstINS1_6ArcTplINS1_17TropicalWeightTplIfEEEEEENS_7decoder8StdTokenEE12ReachedFinalEv
  2203: 00000000005945a0  1617 FUNC    GLOBAL DEFAULT   12 _ZN5kaldi5nnet323RepeatedAffineComponent4ReadERSib
  2204: 0000000000324680     1 FUNC    WEAK   DEFAULT   12 _ZNSt15_Sp_counted_ptrIPN3fst9VectorFstINS0_6ArcTplINS0_17TropicalWeightTplIfEEEENS0_11VectorStateIS5_SaIS5_EEEEELN9__gnu_cxx12_Lock_policyE2EED2Ev
  2205: 000000000034e7c0    51 FUNC    GLOBAL DEFAULT   12 _ZN5kaldi37OnlineIvectorExtractorAdaptationStateC2ERKS0_
  2206: 00000000004b8590   151 FUNC    WEAK   DEFAULT   12 _ZNK3fst9ImplToFstINS_8internal18ComposeFstImplBaseINS_6ArcTplINS_23CompactLatticeWeightTplINS_16LatticeWeightTplIfEEiEEEENS_17DefaultCacheStoreIS8_EENS_10ComposeFstIS8_SA_EEEENS_3FstIS8_EEE10PropertiesEmb
  2207: 000000000059d0e0    37 FUNC    WEAK   DEFAULT   12 _ZN5kaldi5nnet318FixedBiasComponentD2Ev
  2208: 00000000006a44b0    18 FUNC    WEAK   DEFAULT   12 _ZN5kaldi12SparseMatrixIfEC1Ev
  2209: 000000000033b660   418 FUNC    WEAK   DEFAULT   12 _ZN3fst16ImplToMutableFstINS_8internal13VectorFstImplINS_11VectorStateINS_10ReverseArcINS_6ArcTplINS_17TropicalWeightTplIfEEEEEESaIS9_EEEEENS_10MutableFstIS9_EEE15SetInputSymbolsEPKNS_11SymbolTableE
  2210: 0000000000689130   195 FUNC    WEAK   DEFAULT   12 _ZN5kaldi12PackedMatrixIfE11CopyFromVecIdEEvRKNS_9SubVectorIT_EE
  2211: 00000000007fe108    24 OBJECT  WEAK   DEFAULT   21 _ZTIN3fst9VectorFstINS_10ReverseArcINS_6ArcTplINS_16LatticeWeightTplIfEEEEEENS_11VectorStateIS6_SaIS6_EEEEE
  2212: 00000000002df690  2061 FUNC    WEAK   DEFAULT   12 _ZN3fst8internal14ComposeFstImplINS_17DefaultCacheStoreINS_6ArcTplINS_16LatticeWeightTplIfEEEEEENS_22LookAheadComposeFilterINS_21SequenceComposeFilterINS_16LookAheadMatcherINS_3FstIS6_EEEESD_EESD_SD_LNS_9MatchTypeE3EEENS_24GenericComposeStateTableIS6_NS_18IntegerFilterStateIaEENS_24DefaultComposeStateTupleIiSJ_EENS_21CompactHashStateTableISL_NS_11ComposeHashISL_EEEEEEE8MatchArcISD_EEviPT_RKS6_b
  2213: 00000000002540b0     6 FUNC    WEAK   DEFAULT   12 _ZNK3fst18CacheStateIteratorINS_14DeterminizeFstINS_10ReverseArcINS_6ArcTplINS_16LatticeWeightTplIfEEEEEEEEE5ValueEv
  2214: 0000000000512a30   773 FUNC    GLOBAL DEFAULT   12 _ZN5kaldi5nnet38Compiler23ComputeStepDependenciesERKSt6vectorIiSaIiEEiPSt13unordered_setIiSt4hashIiESt8equal_toIiES3_E
  2215: 000000000030c7c0   269 FUNC    WEAK   DEFAULT   12 _ZN3fst13FstRegistererINS_10MatcherFstINS_8ConstFstINS_6ArcTplINS_17TropicalWeightTplIfEEEEjEENS_21LabelLookAheadMatcherINS_13SortedMatcherIS7_EELj1760ENS_18FastLogAccumulatorIS6_EENS_14LabelReachableIS6_SC_NS_18LabelReachableDataIiEEEEEEXadL_ZNS_25olabel_lookahead_fst_typeEEENS_23LabelLookAheadRelabelerIS6_SF_EENS_9AddOnPairISF_SF_EEEEE11ReadGenericERSiRKNS_14FstReadOptionsE
  2216: 00000000002ee3e0  4037 FUNC    GLOBAL DEFAULT   12 _ZNK22LanguageModelEstimator11OutputToFstEiPN3fst9VectorFstINS0_6ArcTplINS0_17TropicalWeightTplIfEEEENS0_11VectorStateIS5_SaIS5_EEEEE
  2217: 00000000004ea840  1024 FUNC    WEAK   DEFAULT   12 _ZNSt6vectorIS_ISt4pairIifESaIS1_EESaIS3_EE17_M_realloc_insertIJRKS3_EEEvN9__gnu_cxx17__normal_iteratorIPS3_S5_EEDpOT_
  2218: 00000000007208c0    50 OBJECT  WEAK   DEFAULT   14 _ZTSSt14default_deleteIN3fst18LabelReachableDataIiEEE
  2219: 0000000000437630  1758 FUNC    GLOBAL DEFAULT   12 _ZNK5kaldi7FullGmm17GaussianSelectionERKNS_10VectorBaseIfEEiPSt6vectorIiSaIiEE
  2220: 00000000004454a0    17 FUNC    WEAK   DEFAULT   12 _ZN5kaldi16GaussClusterable7SetZeroEv
  2221: 0000000000803738    24 OBJECT  WEAK   DEFAULT   21 _ZTIN3fst18MutableArcIteratorINS_9VectorFstINS_10ReverseArcINS_6ArcTplINS_17TropicalWeightTplIfEEEEEENS_11VectorStateIS7_SaIS7_EEEEEEE
  2222: 00000000002eb7d0   660 FUNC    WEAK   DEFAULT   12 _ZN3fst17ComposeFstMatcherINS_17DefaultCacheStoreINS_6ArcTplINS_16LatticeWeightTplIfEEEEEENS_24AltSequenceComposeFilterINS_7MatcherINS_3FstIS5_EEEESB_EENS_24GenericComposeStateTableIS5_NS_18IntegerFilterStateIaEENS_24DefaultComposeStateTupleIiSF_EENS_21CompactHashStateTableISH_NS_11ComposeHashISH_EEEEEEE8FindNextISB_SB_EEbPT_PT0_
  2223: 000000000071b360   296 OBJECT  WEAK   DEFAULT   14 _ZTSSt23_Sp_counted_ptr_inplaceIN3fst8internal18DeterminizeFsaImplINS0_10ReverseArcINS0_6ArcTplINS0_16LatticeWeightTplIfEEEEEENS0_20DefaultCommonDivisorIS6_EENS0_24DefaultDeterminizeFilterIS8_EENS0_28DefaultDeterminizeStateTableIS8_NS0_18IntegerFilterStateIaEEEEEESaIvELN9__gnu_cxx12_Lock_policyE2EE
  2224: 000000000058c1c0  2094 FUNC    GLOBAL DEFAULT   12 _ZN5kaldi5nnet315LinearComponent14InitFromConfigEPNS_10ConfigLineE
  2225: 0000000000645970   295 FUNC    WEAK   DEFAULT   12 _ZN5kaldi10MatrixBaseIfE11CopyFromMatIdEEvRKNS0_IT_EENS_19MatrixTransposeTypeE
  2226: 000000000041fca0   147 FUNC    GLOBAL DEFAULT   12 _ZN5kaldi28OnlineIvectorEstimationStatsC2ERKS0_
  2227: 00000000006635b0  1558 FUNC    WEAK   DEFAULT   12 _ZN5kaldi10MatrixBaseIfE5PowerEf
  2228: 000000000044d300  1222 FUNC    WEAK   DEFAULT   12 _ZNSt6vectorIPN5kaldi6VectorIfEESaIS3_EE14_M_fill_insertEN9__gnu_cxx17__normal_iteratorIPS3_S5_EEmRKS3_
  2229: 00000000004b3230   233 FUNC    WEAK   DEFAULT   12 _ZNK3fst10ComposeFstINS_6ArcTplINS_23CompactLatticeWeightTplINS_16LatticeWeightTplIfEEiEEEENS_17DefaultCacheStoreIS6_EEE4CopyEb
  2230: 000000000033db40   389 FUNC    WEAK   DEFAULT   12 _ZNSt6vectorIPN3fst10CacheStateINS0_10ReverseArcINS0_6ArcTplINS0_17TropicalWeightTplIfEEEEEENS0_13PoolAllocatorIS7_EEEESaISB_EE17_M_realloc_insertIJRKSB_EEEvN9__gnu_cxx17__normal_iteratorIPSB_SD_EEDpOT_
  2231: 000000000080aa68    64 OBJECT  WEAK   DEFAULT   21 _ZTVN5kaldi17StandardInputImplE
  2232: 0000000000355e80    23 FUNC    GLOBAL DEFAULT   12 _ZN5kaldi26OnlineNnet2FeaturePipelineD0Ev
  2233: 000000000034ac90   772 FUNC    WEAK   DEFAULT   12 _ZN3fst8internal14ComposeFstImplINS_17DefaultCacheStoreINS_6ArcTplINS_17TropicalWeightTplIfEEEEEENS_24AltSequenceComposeFilterINS_7MatcherINS_3FstIS6_EEEESC_EENS_24GenericComposeStateTableIS6_NS_18IntegerFilterStateIaEENS_24DefaultComposeStateTupleIiSG_EENS_21CompactHashStateTableISI_NS_11ComposeHashISI_EEEEEEE6ExpandEi
  2234: 00000000004b0c70     6 FUNC    WEAK   DEFAULT   12 _ZNK3fst8internal15MemoryArenaImplILm1544EE4SizeEv
  2235: 0000000000805b98   128 OBJECT  WEAK   DEFAULT   21 _ZTVN3fst17ComposeFstMatcherINS_17DefaultCacheStoreINS_6ArcTplINS_23CompactLatticeWeightTplINS_16LatticeWeightTplIfEEiEEEEEENS_22LookAheadComposeFilterINS_24AltSequenceComposeFilterINS_16LookAheadMatcherINS_3FstIS7_EEEESE_EESE_SE_LNS_9MatchTypeE3EEENS_24GenericComposeStateTableIS7_NS_18IntegerFilterStateIaEENS_24DefaultComposeStateTupleIiSK_EENS_21CompactHashStateTableISM_NS_11ComposeHashISM_EEEEEEEE
  2236: 00000000006a7730    67 FUNC    WEAK   DEFAULT   12 _ZN5kaldi12SparseMatrixIfEC2Eii
  2237: 000000000059f280   145 FUNC    WEAK   DEFAULT   12 _ZNK5kaldi11CuArrayBaseIiE9CopyToVecEPSt6vectorIiSaIiEE
  2238: 000000000036b650    18 FUNC    WEAK   DEFAULT   12 _ZNK5kaldi23LatticeFasterDecoderTplIN3fst8ConstFstINS1_6ArcTplINS1_17TropicalWeightTplIfEEEEjEENS_7decoder16BackpointerTokenEE16NumFramesDecodedEv
  2239: 000000000057c710   333 FUNC    WEAK   DEFAULT   12 _ZNSt10_HashtableISt4pairIiiES0_IKS1_S0_ISt6vectorIiSaIiEES5_EESaIS7_ENSt8__detail10_Select1stESt8equal_toIS1_EN5kaldi10PairHasherIiiEENS9_18_Mod_range_hashingENS9_20_Default_ranged_hashENS9_20_Prime_rehash_policyENS9_17_Hashtable_traitsILb0ELb0ELb1EEEE9_M_rehashEmRKm
  2240: 000000000062fb90     5 FUNC    WEAK   DEFAULT   12 _ZN5kaldi12CuVectorBaseIdE12AddColSumMatEdRKNS_12CuMatrixBaseIdEEd
  2241: 00000000002794e0   228 FUNC    WEAK   DEFAULT   12 _ZN3fst16LookAheadMatcherINS_3FstINS_6ArcTplINS_16LatticeWeightTplIfEEEEEEEC2ERKS6_NS_9MatchTypeE
  2242: 000000000044aa50   223 FUNC    WEAK   DEFAULT   12 _ZN5kaldi24OnlineGenericBaseFeatureINS_13FbankComputerEED0Ev
  2243: 000000000055fd10    18 FUNC    WEAK   DEFAULT   12 _ZNK5kaldi5nnet317ConstantComponent15GetInputIndexesERKNS0_19MiscComputationInfoERKNS0_5IndexEPSt6vectorIS5_SaIS5_EE
  2244: 000000000045c9a0   150 FUNC    GLOBAL DEFAULT   12 _ZN5kaldi28PrunedCompactLatticeComposer20RecomputePruningInfoEv
  2245: 0000000000631710    41 FUNC    GLOBAL DEFAULT   12 _ZN5kaldi11CuArrayBaseIiE3SetERKi
  2246: 00000000002514a0    10 FUNC    WEAK   DEFAULT   12 _ZN3fst9AutoQueueIiE6UpdateEi
  2247: 0000000000593670   328 FUNC    GLOBAL DEFAULT   12 _ZN5kaldi5nnet323ScaleAndOffsetComponent4ReadERSib
  2248: 0000000000328500   263 FUNC    WEAK   DEFAULT   12 _ZNK3fst3FstINS_10ReverseArcINS_6ArcTplINS_17TropicalWeightTplIfEEEEEEE5WriteERKNSt7__cxx1112basic_stringIcSt11char_traitsIcESaIcEEE
  2249: 000000000037dbf0   690 FUNC    WEAK   DEFAULT   12 _ZN5kaldi23LatticeFasterDecoderTplIN3fst8ConstFstINS1_6ArcTplINS1_17TropicalWeightTplIfEEEEjEENS_7decoder8StdTokenEEC2ERKNS_26LatticeFasterDecoderConfigEPS7_
  2250: 0000000000531090   315 FUNC    GLOBAL DEFAULT   12 _ZN5kaldi5nnet315NnetComputation10MatrixInfo4ReadERSib
  2251: 00000000004ddfb0   354 FUNC    GLOBAL DEFAULT   12 _ZNK5kaldi18ConstArpaLmBuilder5WriteERSob
  2252: 000000000040e0d0     1 FUNC    WEAK   DEFAULT   12 _ZNSt15_Sp_counted_ptrIPKN3fst8ConstFstINS0_6ArcTplINS0_17TropicalWeightTplIfEEEEjEELN9__gnu_cxx12_Lock_policyE2EED2Ev
  2253: 000000000026e5c0    42 FUNC    WEAK   DEFAULT   12 _ZN3fst8internal15MemoryArenaImplILm168EED0Ev
  2254: 000000000043bb60   260 FUNC    GLOBAL DEFAULT   12 _ZN5kaldi17BottomUpClusterer21InitializeAssignmentsEv
  2255: 00000000004786f0   817 FUNC    GLOBAL DEFAULT   12 _ZN5kaldi24GetPerFrameAcousticCostsERKN3fst9VectorFstINS0_6ArcTplINS0_16LatticeWeightTplIfEEEENS0_11VectorStateIS5_SaIS5_EEEEEPNS_6VectorIfEE
  2256: 0000000000251ae0     1 FUNC    WEAK   DEFAULT   12 _ZNSt23_Sp_counted_ptr_inplaceIN3fst8internal13ArcMapFstImplINS0_6ArcTplINS0_17TropicalWeightTplIfEEEENS3_INS0_16LatticeWeightTplIfEEEENS0_18StdToLatticeMapperIfEEEESaIvELN9__gnu_cxx12_Lock_policyE2EED1Ev
  2257: 000000000044bcc0   647 FUNC    WEAK   DEFAULT   12 _ZN5kaldi24OnlineGenericBaseFeatureINS_11PlpComputerEE20MaybeCreateResamplerEf
  2258: 00000000005d3ee0  1338 FUNC    GLOBAL DEFAULT   12 _ZNK5kaldi5nnet330OutputGruNonlinearityComponent8BackpropERKNSt7__cxx1112basic_stringIcSt11char_traitsIcESaIcEEEPKNS0_27ComponentPrecomputedIndexesERKNS_12CuMatrixBaseIfEESG_SG_PvPNS0_9ComponentEPSE_
  2259: 00000000005d23b0   211 FUNC    GLOBAL DEFAULT   12 _ZN5kaldi5nnet320ConvolutionComponentC1ERKNS_12CuMatrixBaseIfEERKNS_12CuVectorBaseIfEEiiiiiiiNS1_23TensorVectorizationTypeEf
  2260: 0000000000676670   565 FUNC    WEAK   DEFAULT   12 _ZN5kaldi10VectorBaseIdE7CeilingERKS1_dPi
  2261: 0000000000307470   493 FUNC    WEAK   DEFAULT   12 _ZNSt5dequeIiSaIiEE17_M_reallocate_mapEmb
  2262: 00000000006614f0   512 FUNC    WEAK   DEFAULT   12 _ZN5kaldi10MatrixBaseIdE14DestructiveSvdEPNS_10VectorBaseIdEEPS1_S5_
  2263: 0000000000802968    24 OBJECT  WEAK   DEFAULT   21 _ZTIN3fst13SortedMatcherINS_8ConstFstINS_6ArcTplINS_17TropicalWeightTplIfEEEEjEEEE
  2264: 000000000026e760    67 FUNC    WEAK   DEFAULT   12 _ZN3fst10MemoryPoolINS_13PoolAllocatorINS_10ReverseArcINS_6ArcTplINS_16LatticeWeightTplIfEEEEEEE2TNILi2EEEED0Ev
  2265: 0000000000253500   116 FUNC    WEAK   DEFAULT   12 _ZNK3fst9VectorFstINS_6ArcTplINS_23CompactLatticeWeightTplINS_16LatticeWeightTplIfEEiEEEENS_11VectorStateIS6_SaIS6_EEEE15InitArcIteratorEiPNS_15ArcIteratorDataIS6_EE
  2266: 000000000065ee40     1 FUNC    WEAK   DEFAULT   12 _ZN5kaldi10MatrixBaseIdED1Ev
  2267: 00000000004c2df0  1159 FUNC    WEAK   DEFAULT   12 _ZN3fst22LookAheadComposeFilterINS_21SequenceComposeFilterINS_16LookAheadMatcherINS_3FstINS_6ArcTplINS_23CompactLatticeWeightTplINS_16LatticeWeightTplIfEEiEEEEEEEESB_EESB_SB_LNS_9MatchTypeE3EEC1ERKSA_SG_PSB_SH_
  2268: 00000000006ecf70    51 FUNC    GLOBAL DEFAULT   12 _ZN3fst20ComplementPropertiesEm
  2269: 000000000031d5e0    63 FUNC    GLOBAL DEFAULT   12 vosk_model_new
  2270: 0000000000621980   185 FUNC    WEAK   DEFAULT   12 _ZN5kaldi16AddMatMatBatchedIdEEvT_RSt6vectorIPNS_11CuSubMatrixIS1_EESaIS5_EERKS7_NS_19MatrixTransposeTypeESA_SB_S1_
  2271: 0000000000630e00   268 FUNC    WEAK   DEFAULT   12 _ZN5kaldi8CuVectorIdEaSERKS1_
  2272: 00000000004e2f00   160 FUNC    WEAK   DEFAULT   12 _ZSt25__unguarded_linear_insertIN9__gnu_cxx17__normal_iteratorIPSt4pairIPSt6vectorIiSaIiEEPN5kaldi7LmStateEES3_ISA_SaISA_EEEENS0_5__ops14_Val_comp_iterINS7_18ConstArpaLmBuilder27WordsAndLmStatePairLessThanEEEEvT_T0_
  2273: 0000000000689610     6 FUNC    WEAK   DEFAULT   12 _ZNK5kaldi12PackedMatrixIfE7NumColsEv
  2274: 00000000002efc60    39 FUNC    WEAK   DEFAULT   12 _ZNSt6vectorIN3fst6ArcTplINS0_17TropicalWeightTplIfEEEESaIS4_EED2Ev
  2275: 00000000002d50e0  2543 FUNC    WEAK   DEFAULT   12 _ZNK3fst8internal14ComposeFstImplINS_17DefaultCacheStoreINS_6ArcTplINS_17TropicalWeightTplIfEEEEEENS_23PushLabelsComposeFilterINS_24PushWeightsComposeFilterINS_22LookAheadComposeFilterINS_24AltSequenceComposeFilterINS_16LookAheadMatcherINS_3FstIS6_EEEESF_EESF_SF_LNS_9MatchTypeE3EEESF_SF_LSH_3EEESF_SF_LSH_3EEENS_24GenericComposeStateTableIS6_NS_15PairFilterStateINSM_INS_18IntegerFilterStateIaEENS_17WeightFilterStateIS5_EEEENSN_IiEEEENS_24DefaultComposeStateTupleIiST_EENS_21CompactHashStateTableISV_NS_11ComposeHashISV_EEEEEEE4CopyEv
  2276: 00000000008035c0    56 OBJECT  WEAK   DEFAULT   21 _ZTVSt23_Sp_counted_ptr_inplaceIN3fst9AddOnPairINS0_18LabelReachableDataIiEES3_EESaIvELN9__gnu_cxx12_Lock_policyE2EE
  2277: 00000000005a3080    55 FUNC    WEAK   DEFAULT   12 _ZN5kaldi5nnet313TdnnComponent18PrecomputedIndexesD2Ev
  2278: 0000000000255630    10 FUNC    WEAK   DEFAULT   12 _ZNSt23_Sp_counted_ptr_inplaceIN3fst8internal14ComposeFstImplINS0_17DefaultCacheStoreINS0_6ArcTplINS0_16LatticeWeightTplIfEEEEEENS0_20NoMatchComposeFilterINS0_7MatcherINS0_3FstIS7_EEEESD_EENS0_24GenericComposeStateTableIS7_NS0_18TrivialFilterStateENS0_24DefaultComposeStateTupleIiSG_EENS0_21CompactHashStateTableISI_NS0_11ComposeHashISI_EEEEEEEESaIvELN9__gnu_cxx12_Lock_policyE2EED0Ev
  2279: 0000000000561cb0  1031 FUNC    GLOBAL DEFAULT   12 _ZN5kaldi5nnet318PrintGraphToStringB5cxx11ERKSt6vectorIS1_IiSaIiEESaIS3_EE
  2280: 000000000051d6c0   467 FUNC    WEAK   DEFAULT   12 _ZNSt6vectorIN5kaldi5nnet35IndexESaIS2_EE17_M_realloc_insertIJRKS2_EEEvN9__gnu_cxx17__normal_iteratorIPS2_S4_EEDpOT_
  2281: 00000000003d2f40    45 FUNC    WEAK   DEFAULT   12 _ZN5kaldi28LatticeIncrementalDecoderTplIN3fst13GrammarFstTplIKNS1_8ConstFstINS1_6ArcTplINS1_17TropicalWeightTplIfEEEEjEEEENS_7decoder16BackpointerTokenEE18GetNumToksForFrameEi
  2282: 000000000062fe70     5 FUNC    WEAK   DEFAULT   12 _ZN5kaldi12CuVectorBaseIdE14CopyColFromMatERKNS_12CuMatrixBaseIdEEi
  2283: 0000000000806a68    40 OBJECT  WEAK   DEFAULT   21 _ZTVN3fst8internal15MemoryArenaImplILm3080EEE
  2284: 000000000061b390   158 FUNC    WEAK   DEFAULT   12 _ZN5kaldi2cu4CopyIdEEvRKNS_12CuMatrixBaseIT_EERKNS_7CuArrayIiEEPS4_
  2285: 00000000007271f0    29 OBJECT  WEAK   DEFAULT   14 _ZTSN5kaldi18ConstArpaLmBuilderE
  2286: 000000000069e3a0  3324 FUNC    WEAK   DEFAULT   12 _ZN5kaldi33SolveDoubleQuadraticMatrixProblemIfEET_RKNS_10MatrixBaseIS1_EERKNS_8SpMatrixIS1_EES9_S9_S9_RKNS_13SolverOptionsEPS3_
  2287: 00000000006a2ae0   155 FUNC    WEAK   DEFAULT   12 _ZNK5kaldi12SparseVectorIdE8AddToVecIfEEvdPNS_10VectorBaseIT_EE
  2288: 00000000002fb7f0     1 FUNC    WEAK   DEFAULT   12 _ZNSt15_Sp_counted_ptrIPN3fst8internal9AddOnImplINS0_8ConstFstINS0_6ArcTplINS0_17TropicalWeightTplIfEEEEjEENS0_9AddOnPairINS0_18LabelReachableDataIiEESB_EEEELN9__gnu_cxx12_Lock_policyE2EED2Ev
  2289: 00000000005fa6d0   458 FUNC    GLOBAL DEFAULT   12 _ZN5kaldi5nnet36NnetIoC1ERKNSt7__cxx1112basic_stringIcSt11char_traitsIcESaIcEEEiRKNS_13GeneralMatrixEi
  2290: 000000000051d610    13 FUNC    WEAK   DEFAULT   12 _ZN5kaldi5nnet318UpdatableComponent25SetUnderlyingLearningRateEf
  2291: 0000000000255250    70 FUNC    WEAK   DEFAULT   12 _ZNK3fst17ComposeFstMatcherINS_17DefaultCacheStoreINS_6ArcTplINS_16LatticeWeightTplIfEEEEEENS_22LookAheadComposeFilterINS_24AltSequenceComposeFilterINS_16LookAheadMatcherINS_3FstIS5_EEEESC_EESC_SC_LNS_9MatchTypeE3EEENS_24GenericComposeStateTableIS5_NS_18IntegerFilterStateIaEENS_24DefaultComposeStateTupleIiSI_EENS_21CompactHashStateTableISK_NS_11ComposeHashISK_EEEEEEE4DoneEv
  2292: 0000000000503bf0   120 FUNC    GLOBAL DEFAULT   12 _ZNK5kaldi5nnet312AmNnetSimple5WriteERSob
  2293: 00000000006b0040  1104 FUNC    WEAK   DEFAULT   12 _ZN5kaldi12SparseMatrixIdEC2ERKSt6vectorIiSaIiEEiNS_19MatrixTransposeTypeE
  2294: 000000000040e8e0    47 FUNC    WEAK   DEFAULT   12 _ZNK3fst13GrammarFstTplIKNS_8ConstFstINS_6ArcTplINS_17TropicalWeightTplIfEEEEjEEE5StartEv
  2295: 0000000000286a30   125 FUNC    WEAK   DEFAULT   12 _ZN3fst17ComposeFstMatcherINS_17DefaultCacheStoreINS_6ArcTplINS_16LatticeWeightTplIfEEEEEENS_17NullComposeFilterINS_7MatcherINS_3FstIS5_EEEESB_EENS_24GenericComposeStateTableIS5_NS_18TrivialFilterStateENS_24DefaultComposeStateTupleIiSE_EENS_21CompactHashStateTableISG_NS_11ComposeHashISG_EEEEEEED1Ev
  2296: 0000000000447460   220 FUNC    GLOBAL DEFAULT   12 _ZN5kaldi19OnlineAppendFeature8GetFrameEiPNS_10VectorBaseIfEE
  2297: 0000000000442370  2041 FUNC    WEAK   DEFAULT   12 _ZN5kaldi15RefineClusterer9InitPointEi
  2298: 00000000006b4060   349 FUNC    WEAK   DEFAULT   12 _ZN5kaldi8TpMatrixIfE11CopyFromMatERKNS_10MatrixBaseIfEENS_19MatrixTransposeTypeE
  2299: 0000000000335630   201 FUNC    WEAK   DEFAULT   12 _ZNSt23_Sp_counted_ptr_inplaceIN3fst8internal14ComposeFstImplINS0_17DefaultCacheStoreINS0_6ArcTplINS0_17TropicalWeightTplIfEEEEEENS0_18MatchComposeFilterINS0_7MatcherINS0_3FstIS7_EEEESD_EENS0_24GenericComposeStateTableIS7_NS0_18IntegerFilterStateIaEENS0_24DefaultComposeStateTupleIiSH_EENS0_21CompactHashStateTableISJ_NS0_11ComposeHashISJ_EEEEEEEESaIvELN9__gnu_cxx12_Lock_policyE2EE10_M_disposeEv
  2300: 0000000000808458    24 OBJECT  WEAK   DEFAULT   21 _ZTIN5kaldi5nnet325ConstantFunctionComponentE
  2301: 00000000002b1840   466 FUNC    WEAK   DEFAULT   12 _ZN3fst16AddArcPropertiesINS_10ReverseArcINS_6ArcTplINS_23CompactLatticeWeightTplINS_16LatticeWeightTplIfEEiEEEEEEEEmmNT_7StateIdERKS9_PSB_
  2302: 0000000000407920     5 FUNC    WEAK   DEFAULT   12 _ZN5kaldi34LatticeIncrementalOnlineDecoderTplIN3fst9VectorFstINS1_6ArcTplINS1_17TropicalWeightTplIfEEEENS1_11VectorStateIS6_SaIS6_EEEEEEC2ERKSA_RKNS_21TransitionInformationERKNS_31LatticeIncrementalDecoderConfigE
  2303: 000000000060a170  1196 FUNC    GLOBAL DEFAULT   12 _ZN5kaldi5nnet321ComputationRenumberer16RenumberMatricesEv
  2304: 00000000002b4700   319 FUNC    WEAK   DEFAULT   12 _ZNSt6vectorIN3fst6ArcTplINS0_23CompactLatticeWeightTplINS0_16LatticeWeightTplIfEEiEEEESaIS6_EE7reserveEm
  2305: 00000000006a2c20   370 FUNC    WEAK   DEFAULT   12 _ZNK5kaldi12SparseMatrixIfE9CopyToMatIfEEvPNS_10MatrixBaseIT_EENS_19MatrixTransposeTypeE
  2306: 0000000000268d90    54 FUNC    WEAK   DEFAULT   12 _ZNSt10unique_ptrISt6vectorIiSaIiEESt14default_deleteIS2_EED1Ev
  2307: 0000000000552870    32 FUNC    GLOBAL DEFAULT   12 _ZNK5kaldi5nnet317ConstantComponent9PropagateEPKNS0_27ComponentPrecomputedIndexesERKNS_12CuMatrixBaseIfEEPS6_
  2308: 00000000005658e0    26 FUNC    GLOBAL DEFAULT   12 _ZNK5kaldi5nnet34Nnet15IsComponentNodeEi
  2309: 00000000004b6b90    49 FUNC    WEAK   DEFAULT   12 _ZN3fst10MemoryPoolINS_13PoolAllocatorINS_6ArcTplINS_23CompactLatticeWeightTplINS_16LatticeWeightTplIfEEiEEEEE2TNILi1EEEED2Ev
  2310: 00000000007fded0    24 OBJECT  WEAK   DEFAULT   21 _ZTIN3fst8internal18ComposeFstImplBaseINS_6ArcTplINS_17TropicalWeightTplIfEEEENS_17DefaultCacheStoreIS5_EENS_10ComposeFstIS5_S7_EEEE
  2311: 000000000025f0b0   117 FUNC    WEAK   DEFAULT   12 _ZN3fst10MemoryPoolINS_13PoolAllocatorINS_6ArcTplINS_16LatticeWeightTplIfEEEEE2TNILi8EEEED1Ev
  2312: 0000000000255620    10 FUNC    WEAK   DEFAULT   12 _ZNSt23_Sp_counted_ptr_inplaceIN3fst8internal14ComposeFstImplINS0_17DefaultCacheStoreINS0_6ArcTplINS0_16LatticeWeightTplIfEEEEEENS0_20TrivialComposeFilterINS0_7MatcherINS0_3FstIS7_EEEESD_EENS0_24GenericComposeStateTableIS7_NS0_18TrivialFilterStateENS0_24DefaultComposeStateTupleIiSG_EENS0_21CompactHashStateTableISI_NS0_11ComposeHashISI_EEEEEEEESaIvELN9__gnu_cxx12_Lock_policyE2EED0Ev
  2313: 000000000025eab0   117 FUNC    WEAK   DEFAULT   12 _ZN3fst10MemoryPoolINS_13PoolAllocatorINS_6ArcTplINS_17TropicalWeightTplIfEEEEE2TNILi4EEEED1Ev
  2314: 0000000000290ff0  1352 FUNC    WEAK   DEFAULT   12 _ZN3fst16VectorCacheStoreINS_10CacheStateINS_6ArcTplINS_16LatticeWeightTplIfEEEENS_13PoolAllocatorIS5_EEEEEC2ERKNS_12CacheOptionsE
  2315: 000000000062b1c0    19 FUNC    WEAK   DEFAULT   12 _ZN5kaldi14CuPackedMatrixIfED2Ev
  2316: 00000000006aada0   562 FUNC    WEAK   DEFAULT   12 _ZN5kaldi12SparseMatrixIdE6ResizeEiiNS_16MatrixResizeTypeE
  2317: 000000000036aad0    69 FUNC    WEAK   DEFAULT   12 _ZN5kaldi23LatticeFasterDecoderTplIN3fst9VectorFstINS1_6ArcTplINS1_17TropicalWeightTplIfEEEENS1_11VectorStateIS6_SaIS6_EEEEENS_7decoder8StdTokenEE18DeleteForwardLinksEPSC_
  2318: 0000000000629610     5 FUNC    WEAK   DEFAULT   12 _ZNK5kaldi12CuMatrixBaseIdE3MinEv
  2319: 00000000005d04e0    71 FUNC    WEAK   DEFAULT   12 _ZNK5kaldi5nnet328RestrictedAttentionComponent4CopyEv
  2320: 0000000000718220   129 OBJECT  WEAK   DEFAULT   14 _ZTSN3fst8internal18ComposeFstImplBaseINS_6ArcTplINS_17TropicalWeightTplIfEEEENS_17DefaultCacheStoreIS5_EENS_10ComposeFstIS5_S7_EEEE
  2321: 0000000000805870    80 OBJECT  WEAK   DEFAULT   21 _ZTVN5kaldi18OnlineCacheFeatureE
  2322: 0000000000427800   642 FUNC    GLOBAL DEFAULT   12 _ZN5kaldi16IvectorExtractor4ReadERSib
  2323: 00000000003118a0  8333 FUNC    WEAK   DEFAULT   12 _ZN3fst8internal12NGramFstImplINS_6ArcTplINS_17TropicalWeightTplIfEEEEEC2ERKNS_3FstIS5_EEPSt6vectorIiSaIiEE
  2324: 00000000008152fc     1 OBJECT  GLOBAL DEFAULT   25 _ZN5kaldi22pitch_use_naive_searchE
  2325: 00000000006ab490   376 FUNC    WEAK   DEFAULT   12 _ZN5kaldi12SparseVectorIdE8SetRandnEf
  2326: 000000000040e1e0    10 FUNC    WEAK   DEFAULT   12 _ZNSt23_Sp_counted_ptr_inplaceIN3fst13GrammarFstTplIKNS0_8ConstFstINS0_6ArcTplINS0_17TropicalWeightTplIfEEEEjEEE13ExpandedStateESaIvELN9__gnu_cxx12_Lock_policyE2EE10_M_destroyEv
  2327: 0000000000529f10  2534 FUNC    GLOBAL DEFAULT   12 _ZN5kaldi5nnet324ComputationStepsComputer20ProcessComponentStepERKSt6vectorISt4pairIiNS0_5IndexEESaIS5_EE
  2328: 000000000031d700    89 FUNC    GLOBAL DEFAULT   12 vosk_recognizer_new_spk
  2329: 00000000007249a0   161 OBJECT  WEAK   DEFAULT   14 _ZTSSt23_Sp_counted_ptr_inplaceIN3fst13GrammarFstTplIKNS0_8ConstFstINS0_6ArcTplINS0_17TropicalWeightTplIfEEEEjEEE13ExpandedStateESaIvELN9__gnu_cxx12_Lock_policyE2EE
  2330: 0000000000441880   807 FUNC    WEAK   DEFAULT   12 _ZNSt6vectorIS_IfSaIfEESaIS1_EE17_M_default_appendEm
  2331: 0000000000716ee0    39 OBJECT  WEAK   DEFAULT   14 _ZTSN3fst8internal14MemoryPoolImplILm24EEE
  2332: 00000000006f5110   124 FUNC    GLOBAL DEFAULT   12 _ZN3fst21CompositeWeightWriter8WriteEndEv
  2333: 0000000000682880   528 FUNC    WEAK   DEFAULT   12 _ZN5kaldi18RealFftInefficientIfEEvPNS_10VectorBaseIT_EEb
  2334: 00000000003811d0   651 FUNC    WEAK   DEFAULT   12 _ZN5kaldi23LatticeFasterDecoderTplIN3fst13GrammarFstTplIKNS1_8ConstFstINS1_6ArcTplINS1_17TropicalWeightTplIfEEEEjEEEENS_7decoder16BackpointerTokenEEC2ERKNS_26LatticeFasterDecoderConfigEPSA_
  2335: 0000000000698b10    71 FUNC    WEAK   DEFAULT   12 _ZNK5kaldi8SpMatrixIdE5TraceEv
  2336: 00000000003246b0     1 FUNC    WEAK   DEFAULT   12 _ZNSt23_Sp_counted_ptr_inplaceIN3fst8internal14ComposeFstImplINS0_17DefaultCacheStoreINS0_6ArcTplINS0_17TropicalWeightTplIfEEEEEENS0_18MatchComposeFilterINS0_7MatcherINS0_3FstIS7_EEEESD_EENS0_24GenericComposeStateTableIS7_NS0_18IntegerFilterStateIaEENS0_24DefaultComposeStateTupleIiSH_EENS0_21CompactHashStateTableISJ_NS0_11ComposeHashISJ_EEEEEEEESaIvELN9__gnu_cxx12_Lock_policyE2EED1Ev
  2337: 0000000000621840    14 FUNC    WEAK   DEFAULT   12 _ZNK5kaldi12CuMatrixBaseIfE9CopyToMatIfEEvPNS_10MatrixBaseIT_EENS_19MatrixTransposeTypeE
  2338: 00000000002fbfd0    10 FUNC    WEAK   DEFAULT   12 _ZNSt23_Sp_counted_ptr_inplaceIN3fst8internal9AddOnImplINS0_8ConstFstINS0_6ArcTplINS0_17TropicalWeightTplIfEEEEjEENS0_9AddOnPairINS0_18LabelReachableDataIiEESB_EEEESaIvELN9__gnu_cxx12_Lock_policyE2EED0Ev
  2339: 00000000004b11e0     1 FUNC    WEAK   DEFAULT   12 _ZN3fst18CacheStateIteratorINS_10RandGenFstINS_6ArcTplINS_23CompactLatticeWeightTplINS_16LatticeWeightTplIfEEiEEEES7_NS_10ArcSamplerIS7_NS_18UniformArcSelectorIS7_EEEEEEED2Ev
  2340: 0000000000595110   115 FUNC    GLOBAL DEFAULT   12 _ZNK5kaldi5nnet314PnormComponent5WriteERSob
  2341: 00000000003d2fe0     9 FUNC    WEAK   DEFAULT   12 _ZNK5kaldi28LatticeIncrementalDecoderTplIN3fst13GrammarFstTplINS1_9VectorFstINS1_6ArcTplINS1_17TropicalWeightTplIfEEEENS1_11VectorStateIS7_SaIS7_EEEEEEENS_7decoder16BackpointerTokenEE18NumFramesInLatticeEv
  2342: 000000000029e6c0   187 FUNC    WEAK   DEFAULT   12 _ZN3fst10SccVisitorINS_10ReverseArcINS_6ArcTplINS_16LatticeWeightTplIfEEEEEEED1Ev
  2343: 0000000000603ee0   573 FUNC    GLOBAL DEFAULT   12 _ZN5kaldi5nnet319ComputationExpander17ExpandRowsCommandERKNS0_15NnetComputation7CommandEPS3_
  2344: 000000000026f550    67 FUNC    WEAK   DEFAULT   12 _ZN3fst10MemoryPoolINS_8internal8DfsStateINS_3FstINS_6ArcTplINS_17TropicalWeightTplIfEEEEEEEEED0Ev
  2345: 0000000000334e40   160 FUNC    WEAK   DEFAULT   12 _ZN3fst8internal14ComposeFstImplINS_17DefaultCacheStoreINS_6ArcTplINS_17TropicalWeightTplIfEEEEEENS_18MatchComposeFilterINS_7MatcherINS_3FstIS6_EEEESC_EENS_24GenericComposeStateTableIS6_NS_18IntegerFilterStateIaEENS_24DefaultComposeStateTupleIiSG_EENS_21CompactHashStateTableISI_NS_11ComposeHashISI_EEEEEEED2Ev
  2346: 00000000003340e0   835 FUNC    WEAK   DEFAULT   12 _ZN3fst8internal22DeterminizeFstImplBaseINS_10ReverseArcINS_6ArcTplINS_17TropicalWeightTplIfEEEEEEED1Ev
  2347: 00000000002fdba0    72 FUNC    WEAK   DEFAULT   12 _ZN3fst29MutableFastLogAccumulatorDataD2Ev
  2348: 00000000003ea340  1272 FUNC    WEAK   DEFAULT   12 _ZN5kaldi28LatticeIncrementalDecoderTplIN3fst9VectorFstINS1_6ArcTplINS1_17TropicalWeightTplIfEEEENS1_11VectorStateIS6_SaIS6_EEEEENS_7decoder8StdTokenEE18ProcessNonemittingEf
  2349: 0000000000321890  2530 FUNC    GLOBAL DEFAULT   12 _ZN9Processor7ComposeERKNSt7__cxx1112basic_stringIcSt11char_traitsIcESaIcEEEPKN3fst9VectorFstINS8_6ArcTplINS8_17TropicalWeightTplIfEEEENS8_11VectorStateISD_SaISD_EEEEE
  2350: 000000000071cdc0    40 OBJECT  WEAK   DEFAULT   14 _ZTSN3fst8internal14MemoryPoolImplILm320EEE
  2351: 00000000006ccd80   546 FUNC    WEAK   DEFAULT   12 _ZNSt8_Rb_treeINSt7__cxx1112basic_stringIcSt11char_traitsIcESaIcEEESt4pairIKS5_PS5_ESt10_Select1stIS9_ESt4lessIS5_ESaIS9_EE11equal_rangeERS7_
  2352: 0000000000654070    31 FUNC    WEAK   DEFAULT   12 _ZN5kaldi10MatrixBaseIdEclEii
  2353: 000000000028fcf0    90 FUNC    WEAK   DEFAULT   12 _ZN3fst8internal13ArcMapFstImplINS_6ArcTplINS_17TropicalWeightTplIfEEEENS2_INS_16LatticeWeightTplIfEEEENS_18StdToLatticeMapperIfEEED2Ev
  2354: 00000000004c4f80   233 FUNC    WEAK   DEFAULT   12 _ZNSt23_Sp_counted_ptr_inplaceIN3fst8internal14ComposeFstImplINS0_17DefaultCacheStoreINS0_6ArcTplINS0_23CompactLatticeWeightTplINS0_16LatticeWeightTplIfEEiEEEEEENS0_21SequenceComposeFilterINS0_7MatcherINS0_3FstIS9_EEEESF_EENS0_24GenericComposeStateTableIS9_NS0_18IntegerFilterStateIaEENS0_24DefaultComposeStateTupleIiSJ_EENS0_21CompactHashStateTableISL_NS0_11ComposeHashISL_EEEEEEEESaIvELN9__gnu_cxx12_Lock_policyE2EE10_M_disposeEv
  2355: 00000000002616b0    76 FUNC    WEAK   DEFAULT   12 _ZNSt16_Sp_counted_baseILN9__gnu_cxx12_Lock_policyE2EE24_M_release_last_use_coldEv
  2356: 0000000000803c40    24 OBJECT  WEAK   DEFAULT   21 _ZTIN3fst8internal13CacheBaseImplINS_10CacheStateINS_10ReverseArcINS_6ArcTplINS_17TropicalWeightTplIfEEEEEENS_13PoolAllocatorIS8_EEEENS_17DefaultCacheStoreIS8_EEEE
  2357: 00000000002b1f80   312 FUNC    WEAK   DEFAULT   12 _ZN3fst8internal7FstImplINS_6ArcTplINS_16LatticeWeightTplIfEEEEE14WriteFstHeaderERKNS_3FstIS5_EERSoRKNS_15FstWriteOptionsEiRKNSt7__cxx1112basic_stringIcSt11char_traitsIcESaIcEEEmPNS_9FstHeaderE
  2358: 0000000000316e30   578 FUNC    WEAK   DEFAULT   12 _ZN3fst8internal7FstImplINS_6ArcTplINS_17TropicalWeightTplIfEEEEE15UpdateFstHeaderERKNS_3FstIS5_EERSoRKNS_15FstWriteOptionsEiRKNSt7__cxx1112basic_stringIcSt11char_traitsIcESaIcEEEmPNS_9FstHeaderEm
  2359: 0000000000673220     6 FUNC    WEAK   DEFAULT   12 _ZNK5kaldi10VectorBaseIfE4DataEv
  2360: 000000000036b3f0    21 FUNC    WEAK   DEFAULT   12 _ZN5kaldi23LatticeFasterDecoderTplIN3fst3FstINS1_6ArcTplINS1_17TropicalWeightTplIfEEEEEENS_7decoder16BackpointerTokenEE9TokenListC2Ev
  2361: 00000000002d23e0   281 FUNC    WEAK   DEFAULT   12 _ZNSt10_HashtableIiiN3fst13PoolAllocatorIiEENSt8__detail9_IdentityENS0_18CompactHashBiTableIiNS0_24DefaultComposeStateTupleIiNS0_18TrivialFilterStateEEENS0_11ComposeHashIS8_EESt8equal_toIS8_ELNS0_6HSTypeE3EE9HashEqualENSE_8HashFuncENS3_18_Mod_range_hashingENS3_20_Default_ranged_hashENS3_20_Prime_rehash_policyENS3_17_Hashtable_traitsILb1ELb1ELb1EEEE9_M_rehashEmRKm
  2362: 00000000002fd8f0    55 FUNC    WEAK   DEFAULT   12 _ZN3fst11ArcIteratorINS_8NGramFstINS_6ArcTplINS_17TropicalWeightTplIfEEEEEEED1Ev
  2363: 00000000002bb5a0  2300 FUNC    WEAK   DEFAULT   12 _ZN3fst9VectorFstINS_10ReverseArcINS_6ArcTplINS_16LatticeWeightTplIfEEEEEENS_11VectorStateIS6_SaIS6_EEEE8WriteFstISA_EEbRKT_RSoRKNS_15FstWriteOptionsE
  2364: 0000000000370c50    39 FUNC    WEAK   DEFAULT   12 _ZNSt6vectorIN5kaldi23LatticeFasterDecoderTplIN3fst9VectorFstINS2_6ArcTplINS2_17TropicalWeightTplIfEEEENS2_11VectorStateIS7_SaIS7_EEEEENS0_7decoder8StdTokenEE9TokenListESaISF_EED2Ev
  2365: 00000000007fe2d8    24 OBJECT  WEAK   DEFAULT   21 _ZTIN3fst8internal14ComposeFstImplINS_17DefaultCacheStoreINS_6ArcTplINS_16LatticeWeightTplIfEEEEEENS_17NullComposeFilterINS_7MatcherINS_3FstIS6_EEEESC_EENS_24GenericComposeStateTableIS6_NS_18TrivialFilterStateENS_24DefaultComposeStateTupleIiSF_EENS_21CompactHashStateTableISH_NS_11ComposeHashISH_EEEEEEEE
  2366: 0000000000355c70    10 FUNC    GLOBAL DEFAULT   12 _ZNK5kaldi26OnlineNnet2FeaturePipeline14NumFramesReadyEv
  2367: 00000000002fbf60    10 FUNC    WEAK   DEFAULT   12 _ZNSt19_Sp_counted_deleterIPN3fst18LabelReachableDataIiEESt14default_deleteIS2_ESaIvELN9__gnu_cxx12_Lock_policyE2EED0Ev
  2368: 0000000000724e30    30 OBJECT  WEAK   DEFAULT   14 _ZTSN5kaldi19OnlineAppendFeatureE
  2369: 000000000060d3f0  1199 FUNC    GLOBAL DEFAULT   12 _ZN5kaldi5nnet325OptimizeLoopedComputationERKNS0_4NnetEPNS0_15NnetComputationE
  2370: 00000000004113d0   939 FUNC    WEAK   DEFAULT   12 _ZN3fst13GrammarFstTplINS_9VectorFstINS_6ArcTplINS_17TropicalWeightTplIfEEEENS_11VectorStateIS5_SaIS5_EEEEEED1Ev
  2371: 00000000002c2ca0   389 FUNC    WEAK   DEFAULT   12 _ZNSt6vectorIPN3fst10CacheStateINS0_6ArcTplINS0_17TropicalWeightTplIfEEEENS0_13PoolAllocatorIS5_EEEESaIS9_EE17_M_realloc_insertIJRKS9_EEEvN9__gnu_cxx17__normal_iteratorIPS9_SB_EEDpOT_
  2372: 0000000000394f10   583 FUNC    WEAK   DEFAULT   12 _ZN5kaldi23LatticeFasterDecoderTplIN3fst13GrammarFstTplINS1_9VectorFstINS1_6ArcTplINS1_17TropicalWeightTplIfEEEENS1_11VectorStateIS7_SaIS7_EEEEEEENS_7decoder16BackpointerTokenEE12InitDecodingEv
  2373: 0000000000393fc0   736 FUNC    WEAK   DEFAULT   12 _ZN3fst11ArcIteratorINS_13GrammarFstTplINS_9VectorFstINS_6ArcTplINS_17TropicalWeightTplIfEEEENS_11VectorStateIS6_SaIS6_EEEEEEEEC2ERKSB_l
  2374: 00000000004b11d0     1 FUNC    WEAK   DEFAULT   12 _ZN3fst18CacheStateIteratorINS_10ComposeFstINS_6ArcTplINS_23CompactLatticeWeightTplINS_16LatticeWeightTplIfEEiEEEENS_17DefaultCacheStoreIS7_EEEEED2Ev
  2375: 0000000000581380    67 FUNC    GLOBAL DEFAULT   12 _ZN5kaldi5nnet315LinearComponent3AddEfRKNS0_9ComponentE
  2376: 0000000000307660   135 FUNC    WEAK   DEFAULT   12 _ZNSt10_HashtableIiSt4pairIKiiESaIS2_ENSt8__detail10_Select1stESt8equal_toIiESt4hashIiENS4_18_Mod_range_hashingENS4_20_Default_ranged_hashENS4_20_Prime_rehash_policyENS4_17_Hashtable_traitsILb0ELb0ELb1EEEED2Ev
  2377: 00000000006d6970   375 FUNC    WEAK   DEFAULT   12 _ZNSt8_Rb_treeINSt7__cxx1112basic_stringIcSt11char_traitsIcESaIcEEESt4pairIKS5_fESt10_Select1stIS8_ESt4lessIS5_ESaIS8_EE24_M_get_insert_unique_posERS7_
  2378: 00000000003e6970   654 FUNC    WEAK   DEFAULT   12 _ZN5kaldi28LatticeIncrementalDecoderTplIN3fst8ConstFstINS1_6ArcTplINS1_17TropicalWeightTplIfEEEEjEENS_7decoder16BackpointerTokenEEC1ERKS7_RKNS_21TransitionInformationERKNS_31LatticeIncrementalDecoderConfigE
  2379: 0000000000583270    65 FUNC    GLOBAL DEFAULT   12 _ZNK5kaldi5nnet320FixedAffineComponent8BackpropERKNSt7__cxx1112basic_stringIcSt11char_traitsIcESaIcEEEPKNS0_27ComponentPrecomputedIndexesERKNS_12CuMatrixBaseIfEESG_SG_PvPNS0_9ComponentEPSE_
  2380: 0000000000582440    83 FUNC    GLOBAL DEFAULT   12 _ZNK5kaldi5nnet318FixedBiasComponent5WriteERSob
  2381: 0000000000255670    10 FUNC    WEAK   DEFAULT   12 _ZNSt23_Sp_counted_ptr_inplaceIN3fst8internal14ComposeFstImplINS0_17DefaultCacheStoreINS0_6ArcTplINS0_16LatticeWeightTplIfEEEEEENS0_17NullComposeFilterINS0_7MatcherINS0_3FstIS7_EEEESD_EENS0_24GenericComposeStateTableIS7_NS0_18TrivialFilterStateENS0_24DefaultComposeStateTupleIiSG_EENS0_21CompactHashStateTableISI_NS0_11ComposeHashISI_EEEEEEEESaIvELN9__gnu_cxx12_Lock_policyE2EED0Ev
  2382: 0000000000727140   122 OBJECT  WEAK   DEFAULT   14 _ZTSN3fst10MemoryPoolINS_13PoolAllocatorINS_6ArcTplINS_23CompactLatticeWeightTplINS_16LatticeWeightTplIfEEiEEEEE2TNILi64EEEEE
  2383: 0000000000718ae0   161 OBJECT  WEAK   DEFAULT   14 _ZTSN3fst17ImplToExpandedFstINS_8internal13VectorFstImplINS_11VectorStateINS_10ReverseArcINS_6ArcTplINS_16LatticeWeightTplIfEEEEEESaIS9_EEEEENS_10MutableFstIS9_EEEE
  2384: 00000000002540e0   283 FUNC    WEAK   DEFAULT   12 _ZNK3fst17ComposeFstMatcherINS_17DefaultCacheStoreINS_6ArcTplINS_16LatticeWeightTplIfEEEEEENS_17NullComposeFilterINS_7MatcherINS_3FstIS5_EEEESB_EENS_24GenericComposeStateTableIS5_NS_18TrivialFilterStateENS_24DefaultComposeStateTupleIiSE_EENS_21CompactHashStateTableISG_NS_11ComposeHashISG_EEEEEEE4TypeEb
  2385: 0000000000806150    24 OBJECT  WEAK   DEFAULT   21 _ZTIN3fst8internal15MemoryArenaImplILm3080EEE
  2386: 000000000035b7a0    21 FUNC    WEAK   DEFAULT   12 _ZN5kaldi41SingleUtteranceNnet3IncrementalDecoderTplIN3fst13GrammarFstTplIKNS1_8ConstFstINS1_6ArcTplINS1_17TropicalWeightTplIfEEEEjEEEEE15AdvanceDecodingEv
  2387: 00000000005719a0   853 FUNC    WEAK   DEFAULT   12 _ZNSt6vectorIN5kaldi5nnet311NetworkNodeESaIS2_EE17_M_realloc_insertIJRKS2_EEEvN9__gnu_cxx17__normal_iteratorIPS2_S4_EEDpOT_
  2388: 0000000000303160   951 FUNC    WEAK   DEFAULT   12 _ZN5kaldi18ReadConfigFromFileINS_12FbankOptionsEEEvRKNSt7__cxx1112basic_stringIcSt11char_traitsIcESaIcEEEPT_
  2389: 00000000006920f0  2059 FUNC    WEAK   DEFAULT   12 _ZNK5kaldi8SpMatrixIdE7TopEigsEPNS_10VectorBaseIdEEPNS_10MatrixBaseIdEEi
  2390: 0000000000673550   598 FUNC    WEAK   DEFAULT   12 _ZN5kaldi10VectorBaseIfE7CeilingERKS1_fPi
  2391: 000000000031da30   219 FUNC    GLOBAL DEFAULT   12 vosk_text_processor_new
  2392: 0000000000253c90     3 FUNC    WEAK   DEFAULT   12 _ZNSt15_Sp_counted_ptrIPN3fst8internal18ComposeFstImplBaseINS0_6ArcTplINS0_17TropicalWeightTplIfEEEENS0_17DefaultCacheStoreIS6_EENS0_10ComposeFstIS6_S8_EEEELN9__gnu_cxx12_Lock_policyE2EE14_M_get_deleterERKSt9type_info
  2393: 000000000038dbc0   847 FUNC    WEAK   DEFAULT   12 _ZN5kaldi23LatticeFasterDecoderTplIN3fst3FstINS1_6ArcTplINS1_17TropicalWeightTplIfEEEEEENS_7decoder16BackpointerTokenEE16FinalizeDecodingEv
  2394: 000000000025fbb0   117 FUNC    WEAK   DEFAULT   12 _ZN3fst10MemoryPoolINS_13PoolAllocatorINS_6ArcTplINS_17TropicalWeightTplIfEEEEE2TNILi64EEEED1Ev
  2395: 000000000061b140   205 FUNC    WEAK   DEFAULT   12 _ZN5kaldi2cu6SpliceIfEEvRKNS_12CuMatrixBaseIT_EERKNS_7CuArrayIiEEPS4_
  2396: 0000000000386190    99 FUNC    WEAK   DEFAULT   12 _ZNK5kaldi23LatticeFasterDecoderTplIN3fst9VectorFstINS1_6ArcTplINS1_17TropicalWeightTplIfEEEENS1_11VectorStateIS6_SaIS6_EEEEENS_7decoder8StdTokenEE17FinalRelativeCostEv
  2397: 000000000031d7c0     5 FUNC    GLOBAL DEFAULT   12 vosk_recognizer_set_max_alternatives
  2398: 00000000003d1d10    53 FUNC    WEAK   DEFAULT   12 _ZN5kaldi28LatticeIncrementalDecoderTplIN3fst9VectorFstINS1_6ArcTplINS1_17TropicalWeightTplIfEEEENS1_11VectorStateIS6_SaIS6_EEEEENS_7decoder8StdTokenEE10SetOptionsERKNS_31LatticeIncrementalDecoderConfigE
  2399: 000000000051d5c0     1 FUNC    WEAK   DEFAULT   12 _ZNK5kaldi5nnet39Component14ReorderIndexesEPSt6vectorINS0_5IndexESaIS3_EES6_
  2400: 000000000026b7b0   347 FUNC    WEAK   DEFAULT   12 _ZN3fst15TopOrderVisitorINS_6ArcTplINS_23CompactLatticeWeightTplINS_16LatticeWeightTplIfEEiEEEEE11FinishVisitEv
  2401: 000000000056fc80  2124 FUNC    GLOBAL DEFAULT   12 _ZN5kaldi5nnet34Nnet22RemoveOrphanComponentsEv
  2402: 000000000071c420    38 OBJECT  WEAK   DEFAULT   14 _ZTSN3fst8internal14MemoryPoolImplILm8EEE
  2403: 0000000000674b40    78 FUNC    WEAK   DEFAULT   12 _ZN5kaldi10VectorBaseIfE18CopyDiagFromPackedERKNS_12PackedMatrixIfEE
  2404: 0000000000677680   263 FUNC    WEAK   DEFAULT   12 _ZN5kaldi10VectorBaseIdE12AddVecDivVecEdRKS1_S3_d
  2405: 000000000057c080   865 FUNC    WEAK   DEFAULT   12 _ZN5kaldi5nnet38AnalyzerD2Ev
  2406: 00000000006df920  1515 FUNC    WEAK   DEFAULT   12 _ZN5kaldi18ExtractObjectRangeIdEEbRKNS_6VectorIT_EERKNSt7__cxx1112basic_stringIcSt11char_traitsIcESaIcEEEPS3_
  2407: 0000000000587320   215 FUNC    GLOBAL DEFAULT   12 _ZN5kaldi5nnet339NaturalGradientPerElementScaleComponent4InitENSt7__cxx1112basic_stringIcSt11char_traitsIcESaIcEEEiiff
  2408: 00000000007248a0     1 OBJECT  <OS specific>: 10 DEFAULT   14 _ZZN3fst8DfsVisitINS_3FstINS_10ReverseArcINS_6ArcTplINS_16LatticeWeightTplIfEEEEEEEENS_15TopOrderVisitorIS7_EENS_12AnyArcFilterIS7_EEEEvRKT_PT0_T1_bE9kDfsWhite
  2409: 00000000003b1260     5 FUNC    WEAK   DEFAULT   12 _ZN5kaldi29LatticeFasterOnlineDecoderTplIN3fst3FstINS1_6ArcTplINS1_17TropicalWeightTplIfEEEEEEEC2ERKS7_RKNS_26LatticeFasterDecoderConfigE
  2410: 000000000068f520  1413 FUNC    WEAK   DEFAULT   12 _ZN5kaldi6QrStepIfEEviPT_S2_PNS_10MatrixBaseIS1_EE
  2411: 00000000003249a0    10 FUNC    WEAK   DEFAULT   12 _ZNK3fst9ImplToFstINS_8internal13VectorFstImplINS_11VectorStateINS_10ReverseArcINS_6ArcTplINS_17TropicalWeightTplIfEEEEEESaIS9_EEEEENS_10MutableFstIS9_EEE5StartEv
  2412: 000000000062d000     5 FUNC    WEAK   DEFAULT   12 _ZN5kaldi14CuSparseMatrixIdE4SwapEPS1_
  2413: 00000000006167d0  1411 FUNC    GLOBAL DEFAULT   12 _ZN5kaldi5nnet324ComputeObjectiveFunctionERKNS_13GeneralMatrixENS0_13ObjectiveTypeERKNSt7__cxx1112basic_stringIcSt11char_traitsIcESaIcEEEbPNS0_12NnetComputerEPfSF_
  2414: 0000000000583c90   262 FUNC    GLOBAL DEFAULT   12 _ZNK5kaldi5nnet327ElementwiseProductComponent9PropagateEPKNS0_27ComponentPrecomputedIndexesERKNS_12CuMatrixBaseIfEEPS6_
  2415: 00000000002b3ac0  2639 FUNC    WEAK   DEFAULT   12 _ZN3fst9VectorFstINS_10ReverseArcINS_6ArcTplINS_23CompactLatticeWeightTplINS_16LatticeWeightTplIfEEiEEEEEENS_11VectorStateIS8_SaIS8_EEEE8WriteFstISC_EEbRKT_RSoRKNS_15FstWriteOptionsE
  2416: 00000000003d8820    39 FUNC    WEAK   DEFAULT   12 _ZNSt6vectorIN5kaldi28LatticeIncrementalDecoderTplIN3fst3FstINS2_6ArcTplINS2_17TropicalWeightTplIfEEEEEENS0_7decoder8StdTokenEE9TokenListESaISC_EED2Ev
  2417: 000000000037d930   689 FUNC    WEAK   DEFAULT   12 _ZN5kaldi23LatticeFasterDecoderTplIN3fst8ConstFstINS1_6ArcTplINS1_17TropicalWeightTplIfEEEEjEENS_7decoder8StdTokenEEC2ERKS7_RKNS_26LatticeFasterDecoderConfigE
  2418: 0000000000254420   113 FUNC    WEAK   DEFAULT   12 _ZN3fst17ComposeFstMatcherINS_17DefaultCacheStoreINS_6ArcTplINS_16LatticeWeightTplIfEEEEEENS_21SequenceComposeFilterINS_7MatcherINS_3FstIS5_EEEESB_EENS_24GenericComposeStateTableIS5_NS_18IntegerFilterStateIaEENS_24DefaultComposeStateTupleIiSF_EENS_21CompactHashStateTableISH_NS_11ComposeHashISH_EEEEEEE8SetStateEi
  2419: 00000000006b3070   309 FUNC    WEAK   DEFAULT   12 _ZN5kaldi20SplitRadixComplexFftIdEC1Ei
  2420: 00000000008058c0    80 OBJECT  WEAK   DEFAULT   21 _ZTVN5kaldi19OnlineAppendFeatureE
  2421: 000000000069dea0   192 FUNC    WEAK   DEFAULT   12 _ZNK5kaldi8SpMatrixIdE6LogDetEPd
  2422: 0000000000675ec0     1 FUNC    WEAK   DEFAULT   12 _ZN5kaldi10VectorBaseIfED2Ev
  2423: 00000000007fe4a8    24 OBJECT  WEAK   DEFAULT   21 _ZTIN3fst11ExpandedFstINS_10ReverseArcINS_6ArcTplINS_23CompactLatticeWeightTplINS_16LatticeWeightTplIfEEiEEEEEEEE
  2424: 00000000006ee250   221 FUNC    GLOBAL DEFAULT   12 _ZN3fst8internal20ConstSymbolTableImpl7SetNameERKNSt7__cxx1112basic_stringIcSt11char_traitsIcESaIcEEE
  2425: 0000000000720940    76 OBJECT  WEAK   DEFAULT   14 _ZTSN3fst11ArcIteratorINS_8NGramFstINS_6ArcTplINS_17TropicalWeightTplIfEEEEEEEE
  2426: 0000000000626c70     8 FUNC    WEAK   DEFAULT   12 _ZN5kaldi12CuMatrixBaseIdE8CopyRowsERKS1_RKNS_11CuArrayBaseIiEE
  2427: 00000000003d2200     9 FUNC    WEAK   DEFAULT   12 _ZNK5kaldi28LatticeIncrementalDecoderTplIN3fst13GrammarFstTplIKNS1_8ConstFstINS1_6ArcTplINS1_17TropicalWeightTplIfEEEEjEEEENS_7decoder8StdTokenEE18NumFramesInLatticeEv
  2428: 0000000000445a70   182 FUNC    GLOBAL DEFAULT   12 _ZN5kaldi20ShiftedDeltaFeaturesC1ERKNS_27ShiftedDeltaFeaturesOptionsE
  2429: 000000000036ad10    48 FUNC    WEAK   DEFAULT   12 _ZN5kaldi23LatticeFasterDecoderTplIN3fst8ConstFstINS1_6ArcTplINS1_17TropicalWeightTplIfEEEEjEENS_7decoder8StdTokenEE11DeleteElemsEPNS_8HashListIiPS9_E4ElemE
  2430: 000000000080a7d0    24 OBJECT  WEAK   DEFAULT   21 _ZTISt15_Sp_counted_ptrIPKN5kaldi5nnet315NnetComputationELN9__gnu_cxx12_Lock_policyE2EE
  2431: 0000000000658c20   147 FUNC    WEAK   DEFAULT   12 _ZNK5kaldi10MatrixBaseIdE9AddToRowsEdPKiPS1_
  2432: 000000000031d960     1 FUNC    GLOBAL DEFAULT   12 vosk_gpu_init
  2433: 000000000026ee90    67 FUNC    WEAK   DEFAULT   12 _ZN3fst10MemoryPoolINS_13PoolAllocatorIPNSt8__detail15_Hash_node_baseEE2TNILi16EEEED0Ev
  2434: 0000000000804ef8    24 OBJECT  WEAK   DEFAULT   21 _ZTISt23_Sp_counted_ptr_inplaceIN3fst8internal14RandGenFstImplINS0_6ArcTplINS0_16LatticeWeightTplIfEEEES6_NS0_10ArcSamplerIS6_NS0_18UniformArcSelectorIS6_EEEEEESaIvELN9__gnu_cxx12_Lock_policyE2EE
  2435: 00000000006c2610  2098 FUNC    GLOBAL DEFAULT   12 _ZN5kaldi12ParseOptions10PrintUsageEb
  2436: 00000000003b39e0   286 FUNC    WEAK   DEFAULT   12 _ZNSt5dequeISt4pairIPN5kaldi7decoder16BackpointerTokenEiESaIS5_EE12emplace_backIJS5_EEEvDpOT_
  2437: 000000000055fb60    19 FUNC    WEAK   DEFAULT   12 _ZN5kaldi5nnet341GeneralDropoutComponentPrecomputedIndexesD2Ev
  2438: 000000000062fd30     5 FUNC    WEAK   DEFAULT   12 _ZN5kaldi12CuVectorBaseIdE8ApplyExpEv
  2439: 00000000004b3550   260 FUNC    WEAK   DEFAULT   12 _ZNK5kaldi16WordBoundaryInfo11TypeOfPhoneEi
  2440: 00000000006ed910    36 FUNC    GLOBAL DEFAULT   12 _ZN3fst22ShortestPathPropertiesEmb
  2441: 000000000036b450    10 FUNC    WEAK   DEFAULT   12 _ZNK5kaldi23LatticeFasterDecoderTplIN3fst9VectorFstINS1_6ArcTplINS1_17TropicalWeightTplIfEEEENS1_11VectorStateIS6_SaIS6_EEEEENS_7decoder16BackpointerTokenEE10GetOptionsEv
  2442: 000000000063ca30    25 FUNC    WEAK   DEFAULT   12 _ZN5kaldi16CompressedMatrixaSIdEERS0_RKNS_10MatrixBaseIT_EE
  2443: 000000000060e1d0   927 FUNC    GLOBAL DEFAULT   12 _ZN5kaldi5nnet326MemoryCompressionOptimizer17ModifyComputationEv
  2444: 000000000069e1d0   457 FUNC    WEAK   DEFAULT   12 _ZNK5kaldi8SpMatrixIdE11ApproxEqualERKS1_f
  2445: 0000000000355890   389 FUNC    WEAK   DEFAULT   12 _ZNSt6vectorIPN5kaldi22OnlineFeatureInterfaceESaIS2_EE17_M_realloc_insertIJS2_EEEvN9__gnu_cxx17__normal_iteratorIPS2_S4_EEDpOT_
  2446: 000000000058e0f0  1052 FUNC    GLOBAL DEFAULT   12 _ZNK5kaldi5nnet316DropoutComponent4InfoB5cxx11Ev
  2447: 0000000000626ef0   228 FUNC    WEAK   DEFAULT   12 _ZN5kaldi12CuMatrixBaseIdE12AddRowRangesERKS1_RKNS_11CuArrayBaseI9Int32PairEE
  2448: 0000000000803630    56 OBJECT  WEAK   DEFAULT   21 _ZTVSt23_Sp_counted_ptr_inplaceIN3fst29MutableFastLogAccumulatorDataESaIvELN9__gnu_cxx12_Lock_policyE2EE
  2449: 0000000000554cd0   105 FUNC    GLOBAL DEFAULT   12 _ZN5kaldi5nnet317ConstantComponentC1Ev
  2450: 000000000059f0c0    39 FUNC    WEAK   DEFAULT   12 _ZNSt6vectorIPN5kaldi11CuSubMatrixIfEESaIS3_EED2Ev
  2451: 000000000028b560  1159 FUNC    WEAK   DEFAULT   12 _ZN3fst22LookAheadComposeFilterINS_21SequenceComposeFilterINS_16LookAheadMatcherINS_3FstINS_6ArcTplINS_16LatticeWeightTplIfEEEEEEEES9_EES9_S9_LNS_9MatchTypeE3EEC2ERKS8_SE_PS9_SF_
  2452: 000000000059c0d0   174 FUNC    GLOBAL DEFAULT   12 _ZNK5kaldi5nnet317SumGroupComponent4CopyEv
  2453: 0000000000682a90   630 FUNC    WEAK   DEFAULT   12 _ZN5kaldi7RealFftIfEEvPNS_10VectorBaseIT_EEb
  2454: 00000000007fe2c8    16 OBJECT  WEAK   DEFAULT   21 _ZTIN3fst15ArcIteratorBaseINS_10ReverseArcINS_6ArcTplINS_16LatticeWeightTplIfEEEEEEEE
  2455: 000000000071ce60    41 OBJECT  WEAK   DEFAULT   14 _ZTSN3fst8internal15MemoryArenaImplILm648EEE
  2456: 0000000000805cd8    64 OBJECT  WEAK   DEFAULT   21 _ZTVN3fst13StateIteratorINS_10ComposeFstINS_6ArcTplINS_23CompactLatticeWeightTplINS_16LatticeWeightTplIfEEiEEEENS_17DefaultCacheStoreIS7_EEEEEE
  2457: 000000000025f030   117 FUNC    WEAK   DEFAULT   12 _ZN3fst8internal14MemoryPoolImplILm80EED2Ev
  2458: 00000000002938f0   381 FUNC    WEAK   DEFAULT   12 _ZN3fst20MemoryPoolCollection4PoolINS_13PoolAllocatorINS_6ArcTplINS_17TropicalWeightTplIfEEEEE2TNILi16EEEEEPNS_10MemoryPoolIT_EEv
  2459: 00000000002a1320   322 FUNC    WEAK   DEFAULT   12 _ZNK3fst9ImplToFstINS_8internal13VectorFstImplINS_11VectorStateINS_6ArcTplINS_17TropicalWeightTplIfEEEESaIS7_EEEEENS_10MutableFstIS7_EEE10PropertiesEmb
  2460: 00000000007fe6c0    24 OBJECT  WEAK   DEFAULT   21 _ZTISt23_Sp_counted_ptr_inplaceIN3fst8internal13VectorFstImplINS0_11VectorStateINS0_10ReverseArcINS0_6ArcTplINS0_23CompactLatticeWeightTplINS0_16LatticeWeightTplIfEEiEEEEEESaISB_EEEEESaIvELN9__gnu_cxx12_Lock_policyE2EE
  2461: 000000000036a930    48 FUNC    WEAK   DEFAULT   12 _ZN5kaldi23LatticeFasterDecoderTplIN3fst3FstINS1_6ArcTplINS1_17TropicalWeightTplIfEEEEEENS_7decoder8StdTokenEE11DeleteElemsEPNS_8HashListIiPS9_E4ElemE
  2462: 00000000006c2520   232 FUNC    GLOBAL DEFAULT   12 _ZN5kaldi12ParseOptions8ToDoubleERKNSt7__cxx1112basic_stringIcSt11char_traitsIcESaIcEEE
  2463: 00000000007fe9a8    24 OBJECT  WEAK   DEFAULT   21 _ZTIN3fst10MemoryPoolINS_13PoolAllocatorINS_6ArcTplINS_16LatticeWeightTplIfEEEEE2TNILi1EEEEE
  2464: 0000000000524d30   176 FUNC    GLOBAL DEFAULT   12 _ZN5kaldi5nnet324ComputationStepsComputer16ConvertToIndexesERKSt6vectorISt4pairIiNS0_5IndexEESaIS5_EEPS2_IS4_SaIS4_EE
  2465: 0000000000582360   115 FUNC    GLOBAL DEFAULT   12 _ZNK5kaldi5nnet320FixedAffineComponent5WriteERSob
  2466: 000000000025fd30   117 FUNC    WEAK   DEFAULT   12 _ZN3fst10MemoryPoolINS_13PoolAllocatorINS_10CacheStateINS_6ArcTplINS_16LatticeWeightTplIfEEEENS1_IS6_EEEEE2TNILi1EEEED2Ev
  2467: 00000000003884f0    99 FUNC    WEAK   DEFAULT   12 _ZNK5kaldi23LatticeFasterDecoderTplIN3fst13GrammarFstTplINS1_9VectorFstINS1_6ArcTplINS1_17TropicalWeightTplIfEEEENS1_11VectorStateIS7_SaIS7_EEEEEEENS_7decoder8StdTokenEE17FinalRelativeCostEv
  2468: 0000000000715ea0   305 OBJECT  WEAK   DEFAULT   14 _ZTSN3fst17ComposeFstMatcherINS_17DefaultCacheStoreINS_6ArcTplINS_16LatticeWeightTplIfEEEEEENS_24AltSequenceComposeFilterINS_7MatcherINS_3FstIS5_EEEESB_EENS_24GenericComposeStateTableIS5_NS_18IntegerFilterStateIaEENS_24DefaultComposeStateTupleIiSF_EENS_21CompactHashStateTableISH_NS_11ComposeHashISH_EEEEEEEE
  2469: 00000000002544f0    17 FUNC    WEAK   DEFAULT   12 _ZNK3fst17ComposeFstMatcherINS_17DefaultCacheStoreINS_6ArcTplINS_16LatticeWeightTplIfEEEEEENS_21SequenceComposeFilterINS_7MatcherINS_3FstIS5_EEEESB_EENS_24GenericComposeStateTableIS5_NS_18IntegerFilterStateIaEENS_24DefaultComposeStateTupleIiSF_EENS_21CompactHashStateTableISH_NS_11ComposeHashISH_EEEEEEE5ValueEv
  2470: 00000000002a11a0   373 FUNC    WEAK   DEFAULT   12 _ZNK3fst9ImplToFstINS_8internal13ArcMapFstImplINS_6ArcTplINS_17TropicalWeightTplIfEEEES6_NS_28RemoveSomeInputSymbolsMapperIS6_iEEEENS_3FstIS6_EEE10PropertiesEmb
  2471: 000000000057a060  1783 FUNC    GLOBAL DEFAULT   12 _ZN5kaldi5nnet38OptimizeERKNS0_19NnetOptimizeOptionsERKNS0_4NnetEiPNS0_15NnetComputationE
  2472: 0000000000720c60    79 OBJECT  WEAK   DEFAULT   14 _ZTSN3fst13SortedMatcherINS_8ConstFstINS_6ArcTplINS_17TropicalWeightTplIfEEEEjEEEE
  2473: 000000000026a050   573 FUNC    WEAK   DEFAULT   12 _ZN3fst8internal14RmEpsilonStateINS_6ArcTplINS_23CompactLatticeWeightTplINS_16LatticeWeightTplIfEEiEEEENS_9AutoQueueIiEEED1Ev
  2474: 000000000064e060   437 FUNC    WEAK   DEFAULT   12 _ZN5kaldi23EigenvalueDecompositionIfEC1ERKNS_10MatrixBaseIfEE
  2475: 00000000006a9620   406 FUNC    WEAK   DEFAULT   12 _ZNSt6vectorISt4pairIidESaIS1_EE17_M_realloc_insertIJS1_EEEvN9__gnu_cxx17__normal_iteratorIPS1_S3_EEDpOT_
  2476: 000000000056bce0  5072 FUNC    GLOBAL DEFAULT   12 _ZN5kaldi5nnet34Nnet26RemoveRedundantConfigLinesEiPSt6vectorINS_10ConfigLineESaIS3_EE
  2477: 00000000003246d0     1 FUNC    WEAK   DEFAULT   12 _ZNSt23_Sp_counted_ptr_inplaceIN3fst8internal14ComposeFstImplINS0_17DefaultCacheStoreINS0_6ArcTplINS0_17TropicalWeightTplIfEEEEEENS0_17NullComposeFilterINS0_7MatcherINS0_3FstIS7_EEEESD_EENS0_24GenericComposeStateTableIS7_NS0_18TrivialFilterStateENS0_24DefaultComposeStateTupleIiSG_EENS0_21CompactHashStateTableISI_NS0_11ComposeHashISI_EEEEEEEESaIvELN9__gnu_cxx12_Lock_policyE2EED2Ev
  2478: 00000000006bcfe0    53 FUNC    GLOBAL DEFAULT   12 _ZN5kaldi9SemaphoreC1Ei
  2479: 000000000071a900   109 OBJECT  WEAK   DEFAULT   14 _ZTSN3fst10MutableFstINS_10ReverseArcINS_6ArcTplINS_23CompactLatticeWeightTplINS_16LatticeWeightTplIfEEiEEEEEEEE
  2480: 0000000000284690    39 FUNC    WEAK   DEFAULT   12 _ZNSt6vectorIPN3fst8internal21DeterminizeStateTupleINS0_10ReverseArcINS0_6ArcTplINS0_16LatticeWeightTplIfEEEEEENS0_18IntegerFilterStateIaEEEESaISC_EED2Ev
  2481: 0000000000440b10    39 FUNC    WEAK   DEFAULT   12 _ZNSt6vectorItSaItEED2Ev
  2482: 0000000000444210    83 FUNC    GLOBAL DEFAULT   12 _ZN5kaldi16GaussClusterable4ReadERSib
  2483: 0000000000320be0  1029 FUNC    GLOBAL DEFAULT   12 _ZN9ProcessorC1ERKNSt7__cxx1112basic_stringIcSt11char_traitsIcESaIcEEES7_
  2484: 0000000000433dd0   315 FUNC    GLOBAL DEFAULT   12 _ZN5kaldi7FullGmm7PerturbEf
  2485: 00000000004a8220  1012 FUNC    GLOBAL DEFAULT   12 _ZN5kaldi18LatticeWordAligner16ComputationState16OutputSilenceArcERKNS_16WordBoundaryInfoERKNS_21TransitionInformationEPN3fst6ArcTplINS8_23CompactLatticeWeightTplINS8_16LatticeWeightTplIfEEiEEEEPb
  2486: 0000000000251780     1 FUNC    WEAK   DEFAULT   12 _ZNSt23_Sp_counted_ptr_inplaceIN3fst8internal14ComposeFstImplINS0_17DefaultCacheStoreINS0_6ArcTplINS0_16LatticeWeightTplIfEEEEEENS0_22LookAheadComposeFilterINS0_24AltSequenceComposeFilterINS0_16LookAheadMatcherINS0_3FstIS7_EEEESE_EESE_SE_LNS0_9MatchTypeE3EEENS0_24GenericComposeStateTableIS7_NS0_18IntegerFilterStateIaEENS0_24DefaultComposeStateTupleIiSK_EENS0_21CompactHashStateTableISM_NS0_11ComposeHashISM_EEEEEEEESaIvELN9__gnu_cxx12_Lock_policyE2EED2Ev
  2487: 000000000062c5d0    56 FUNC    WEAK   DEFAULT   12 _ZN5kaldi10CuSpMatrixIdEC2ERKNS_8SpMatrixIdEE
  2488: 00000000005a1010   397 FUNC    GLOBAL DEFAULT   12 _ZN5kaldi5nnet313TdnnComponentC2ERKS1_
  2489: 0000000000260f60   796 FUNC    WEAK   DEFAULT   12 _ZN3fst8internal16CompatPropertiesEmm
  2490: 00000000006a61d0    63 FUNC    WEAK   DEFAULT   12 _ZN5kaldi12SparseVectorIfEC2ERKS1_
  2491: 000000000050eda0   608 FUNC    GLOBAL DEFAULT   12 _ZNK5kaldi5nnet38Compiler33CompileForwardFromSubmatLocationsEifRKSt6vectorISt4pairIiiESaIS4_EEPNS0_15NnetComputationE
  2492: 00000000004c1bf0    64 FUNC    WEAK   DEFAULT   12 _ZNSt10unique_ptrIN3fst7MatcherINS0_3FstINS0_6ArcTplINS0_23CompactLatticeWeightTplINS0_16LatticeWeightTplIfEEiEEEEEEEESt14default_deleteISA_EED2Ev
  2493: 00000000004fd360   117 FUNC    GLOBAL DEFAULT   12 _ZNK5kaldi11HmmTopology13NumPdfClassesEi
  2494: 0000000000658680   182 FUNC    WEAK   DEFAULT   12 _ZN5kaldi10MatrixBaseIdE9TransposeEv
  2495: 0000000000253f90     6 FUNC    WEAK   DEFAULT   12 _ZNK3fst13StateIteratorINS_9ArcMapFstINS_6ArcTplINS_17TropicalWeightTplIfEEEENS2_INS_16LatticeWeightTplIfEEEENS_18StdToLatticeMapperIfEEEEE5ValueEv
  2496: 00000000002524b0     1 FUNC    WEAK   DEFAULT   12 _ZN3fst9FifoQueueIiE6UpdateEi
  2497: 000000000037f810   530 FUNC    WEAK   DEFAULT   12 _ZN5kaldi23LatticeFasterDecoderTplIN3fst3FstINS1_6ArcTplINS1_17TropicalWeightTplIfEEEEEENS_7decoder16BackpointerTokenEEC1ERKNS_26LatticeFasterDecoderConfigEPS7_
  2498: 000000000071ad40    60 OBJECT  WEAK   DEFAULT   14 _ZTSN3fst11MatcherBaseINS_6ArcTplINS_16LatticeWeightTplIfEEEEEE
  2499: 0000000000697040    17 FUNC    WEAK   DEFAULT   12 _ZN5kaldi8SpMatrixIdEC2Ev
  2500: 000000000029d6f0   371 FUNC    WEAK   DEFAULT   12 _ZN3fst8internal14ComposeFstImplINS_17DefaultCacheStoreINS_6ArcTplINS_17TropicalWeightTplIfEEEEEENS_23PushLabelsComposeFilterINS_24PushWeightsComposeFilterINS_22LookAheadComposeFilterINS_24AltSequenceComposeFilterINS_16LookAheadMatcherINS_3FstIS6_EEEESF_EESF_SF_LNS_9MatchTypeE3EEESF_SF_LSH_3EEESF_SF_LSH_3EEENS_24GenericComposeStateTableIS6_NS_15PairFilterStateINSM_INS_18IntegerFilterStateIaEENS_17WeightFilterStateIS5_EEEENSN_IiEEEENS_24DefaultComposeStateTupleIiST_EENS_21CompactHashStateTableISV_NS_11ComposeHashISV_EEEEEEE12ComputeFinalEi
  2501: 0000000000626c30    25 FUNC    WEAK   DEFAULT   12 _ZN5kaldi12CuMatrixBaseIfEC2EPfiii
  2502: 00000000003dbc60  1253 FUNC    WEAK   DEFAULT   12 _ZN5kaldi28LatticeIncrementalDecoderTplIN3fst8ConstFstINS1_6ArcTplINS1_17TropicalWeightTplIfEEEEjEENS_7decoder8StdTokenEE9GetCutoffEPNS_8HashListIiPS9_E4ElemEPmPfPSF_
  2503: 0000000000724cf0    22 OBJECT  WEAK   DEFAULT   14 _ZTSN5kaldi11ClusterableE
  2504: 00000000003f27a0  1307 FUNC    WEAK   DEFAULT   12 _ZN5kaldi28LatticeIncrementalDecoderTplIN3fst9VectorFstINS1_6ArcTplINS1_17TropicalWeightTplIfEEEENS1_11VectorStateIS6_SaIS6_EEEEENS_7decoder16BackpointerTokenEE22PruneForwardLinksFinalEv
  2505: 00000000006464e0   234 FUNC    WEAK   DEFAULT   12 _ZN5kaldi19AttemptComplexPowerIdEEbPT_S2_S1_
  2506: 00000000004458b0   435 FUNC    GLOBAL DEFAULT   12 _ZNK5kaldi13DeltaFeatures7ProcessERKNS_10MatrixBaseIfEEiPNS_10VectorBaseIfEE
  2507: 000000000026b040   533 FUNC    WEAK   DEFAULT   12 _ZN3fst10SccVisitorINS_6ArcTplINS_23CompactLatticeWeightTplINS_16LatticeWeightTplIfEEiEEEEE9InitVisitERKNS_3FstIS6_EE
  2508: 0000000000803e60    24 OBJECT  WEAK   DEFAULT   21 _ZTIN3fst10MemoryPoolINS_13PoolAllocatorINS_10ReverseArcINS_6ArcTplINS_17TropicalWeightTplIfEEEEEEE2TNILi1EEEEE
  2509: 000000000031d9e0     1 FUNC    GLOBAL DEFAULT   12 vosk_batch_recognizer_set_nlsml
  2510: 000000000035e3b0   147 FUNC    WEAK   DEFAULT   12 _ZN5kaldi16EndpointDetectedINS_34LatticeIncrementalOnlineDecoderTplIN3fst13GrammarFstTplIKNS2_8ConstFstINS2_6ArcTplINS2_17TropicalWeightTplIfEEEEjEEEEEEEEbRKNS_20OnlineEndpointConfigERKNS_21TransitionInformationEfRKT_
  2511: 000000000062c480    21 FUNC    WEAK   DEFAULT   12 _ZN5kaldi10CuSpMatrixIfE11CopyFromMatERKNS_12CuMatrixBaseIfEENS_10SpCopyTypeE
  2512: 000000000062ce70     6 FUNC    WEAK   DEFAULT   12 _ZN5kaldi14CuSparseMatrixIfE4SmatEv
  2513: 00000000003c05b0   123 FUNC    WEAK   DEFAULT   12 _ZN3fst13PoolAllocatorINS_10CacheStateINS_6ArcTplINS_16LatticeWeightTplIfEEEENS0_IS5_EEEEED2Ev
  2514: 000000000062ff20     5 FUNC    WEAK   DEFAULT   12 _ZN5kaldi12CuVectorBaseIdE18CopyDiagFromPackedERKNS_14CuPackedMatrixIdEE
  2515: 00000000003d7200   381 FUNC    WEAK   DEFAULT   12 _ZN5kaldi28LatticeIncrementalDecoderTplIN3fst13GrammarFstTplIKNS1_8ConstFstINS1_6ArcTplINS1_17TropicalWeightTplIfEEEEjEEEENS_7decoder16BackpointerTokenEE19PruneTokensForFrameEi
  2516: 000000000062cdb0    45 FUNC    WEAK   DEFAULT   12 _ZN5kaldi14CuSparseMatrixIfEC2Ev
  2517: 00000000008068d8    40 OBJECT  WEAK   DEFAULT   21 _ZTVN3fst8internal14MemoryPoolImplILm1536EEE
  2518: 00000000004932d0   157 FUNC    WEAK   DEFAULT   12 _ZNSt10_HashtableImSt4pairIKmSt6vectorIiSaIiEEESaIS5_ENSt8__detail10_Select1stESt8equal_toImESt4hashImENS7_18_Mod_range_hashingENS7_20_Default_ranged_hashENS7_20_Prime_rehash_policyENS7_17_Hashtable_traitsILb0ELb0ELb1EEEED1Ev
  2519: 0000000000439440    94 FUNC    WEAK   DEFAULT   12 _ZN5kaldi13FullGmmNormalD2Ev
  2520: 0000000000295740  1336 FUNC    WEAK   DEFAULT   12 _ZN3fst16VectorCacheStoreINS_10CacheStateINS_6ArcTplINS_17TropicalWeightTplIfEEEENS_13PoolAllocatorIS5_EEEEEC2ERKNS_12CacheOptionsE
  2521: 0000000000407a00    13 FUNC    WEAK   DEFAULT   12 _ZN5kaldi34LatticeIncrementalOnlineDecoderTplIN3fst13GrammarFstTplINS1_9VectorFstINS1_6ArcTplINS1_17TropicalWeightTplIfEEEENS1_11VectorStateIS7_SaIS7_EEEEEEEE16BestPathIteratorC2EPvi
  2522: 00000000002bf880  9027 FUNC    WEAK   DEFAULT   12 _ZN3fst16ShortestDistanceINS_6ArcTplINS_23CompactLatticeWeightTplINS_16LatticeWeightTplIfEEiEEEEEEvRKNS_3FstIT_EEPSt6vectorINS8_6WeightESaISD_EEbf
  2523: 00000000007224a0   115 OBJECT  WEAK   DEFAULT   14 _ZTSN3fst18ShortestFirstQueueIiNS_8internal18StateWeightCompareIiNS_11NaturalLessINS_17TropicalWeightTplIfEEEEEELb0EEE
  2524: 000000000054a540   130 FUNC    WEAK   DEFAULT   12 _ZNK5kaldi5nnet330TimeHeightConvolutionComponent4TypeB5cxx11Ev
  2525: 00000000006282f0     5 FUNC    WEAK   DEFAULT   12 _ZN5kaldi12CuMatrixBaseIdE10MulRowsVecERKNS_12CuVectorBaseIdEE
  2526: 0000000000726a60    39 OBJECT  WEAK   DEFAULT   14 _ZTSN3fst8internal14MemoryPoolImplILm96EEE
  2527: 00000000006c7a50  2567 FUNC    GLOBAL DEFAULT   12 _ZN5kaldi12ParseOptions16RegisterSpecificERKNSt7__cxx1112basic_stringIcSt11char_traitsIcESaIcEEES8_PdS8_b
  2528: 000000000032b900    67 FUNC    WEAK   DEFAULT   12 _ZN3fst10MemoryPoolINS_13PoolAllocatorINS_10CacheStateINS_10ReverseArcINS_6ArcTplINS_17TropicalWeightTplIfEEEEEENS1_IS8_EEEEE2TNILi1EEEED0Ev
  2529: 00000000006ce450   815 FUNC    WEAK   DEFAULT   12 _ZN5kaldi12ParseOptions12RegisterTmplIiEEvRKNSt7__cxx1112basic_stringIcSt11char_traitsIcESaIcEEEPT_S9_
  2530: 0000000000383f70  1282 FUNC    WEAK   DEFAULT   12 _ZN5kaldi23LatticeFasterDecoderTplIN3fst9VectorFstINS1_6ArcTplINS1_17TropicalWeightTplIfEEEENS1_11VectorStateIS6_SaIS6_EEEEENS_7decoder8StdTokenEE18ProcessNonemittingEf
  2531: 00000000004b81b0   794 FUNC    WEAK   DEFAULT   12 _ZN3fst13SortedMatcherINS_3FstINS_6ArcTplINS_23CompactLatticeWeightTplINS_16LatticeWeightTplIfEEiEEEEEEEC1EPKS8_NS_9MatchTypeEi
  2532: 000000000027b640   362 FUNC    WEAK   DEFAULT   12 _ZN3fst8internal21ShortestDistanceStateINS_6ArcTplINS_16LatticeWeightTplIfEEEENS_9AutoQueueIiEENS_12AnyArcFilterIS5_EENS_17WeightApproxEqualEE26EnsureDistanceIndexIsValidEm
  2533: 00000000002b8020   493 FUNC    WEAK   DEFAULT   12 _ZNSt6vectorIPN3fst11VectorStateINS0_6ArcTplINS0_23CompactLatticeWeightTplINS0_16LatticeWeightTplIfEEiEEEESaIS7_EEESaISA_EE17_M_default_appendEm
  2534: 000000000054fcd0   190 FUNC    GLOBAL DEFAULT   12 _ZNK5kaldi5nnet317GeneralDescriptor15NormalizeAppendEv
  2535: 0000000000716ca0    23 OBJECT  WEAK   DEFAULT   14 _ZTSN3fst14MemoryPoolBaseE
  2536: 00000000003ed3a0  1307 FUNC    WEAK   DEFAULT   12 _ZN5kaldi28LatticeIncrementalDecoderTplIN3fst13GrammarFstTplIKNS1_8ConstFstINS1_6ArcTplINS1_17TropicalWeightTplIfEEEEjEEEENS_7decoder8StdTokenEE22PruneForwardLinksFinalEv
  2537: 0000000000254bb0   283 FUNC    WEAK   DEFAULT   12 _ZNK3fst17ComposeFstMatcherINS_17DefaultCacheStoreINS_6ArcTplINS_16LatticeWeightTplIfEEEEEENS_20TrivialComposeFilterINS_7MatcherINS_3FstIS5_EEEESB_EENS_24GenericComposeStateTableIS5_NS_18TrivialFilterStateENS_24DefaultComposeStateTupleIiSE_EENS_21CompactHashStateTableISG_NS_11ComposeHashISG_EEEEEEE4TypeEb
  2538: 00000000005a4440    95 FUNC    GLOBAL DEFAULT   12 _ZN5kaldi5nnet318ZeroComponentStatsEPNS0_4NnetE
  2539: 0000000000802308    40 OBJECT  WEAK   DEFAULT   21 _ZTVN3fst8internal14MemoryPoolImplILm80EEE
  2540: 00000000006c1670  1301 FUNC    GLOBAL DEFAULT   12 _ZN5kaldi12ParseOptionsC1ERKNSt7__cxx1112basic_stringIcSt11char_traitsIcESaIcEEEPNS_10OptionsItfE
  2541: 0000000000803288   160 OBJECT  WEAK   DEFAULT   21 _ZTVN3fst17ImplToExpandedFstINS_8internal12NGramFstImplINS_6ArcTplINS_17TropicalWeightTplIfEEEEEENS_11ExpandedFstIS6_EEEE
  2542: 000000000036bbb0    21 FUNC    WEAK   DEFAULT   12 _ZN5kaldi23LatticeFasterDecoderTplIN3fst13GrammarFstTplINS1_9VectorFstINS1_6ArcTplINS1_17TropicalWeightTplIfEEEENS1_11VectorStateIS7_SaIS7_EEEEEEENS_7decoder16BackpointerTokenEE9TokenListC1Ev
  2543: 000000000058a1d0  1328 FUNC    GLOBAL DEFAULT   12 _ZN5kaldi5nnet320BlockAffineComponent14InitFromConfigEPNS_10ConfigLineE
  2544: 00000000004642c0  1293 FUNC    WEAK   DEFAULT   12 _ZN3fst25LatticeDeterminizerPrunedINS_16LatticeWeightTplIfEEiE14FreeMostMemoryEv
  2545: 000000000040ed20    55 FUNC    WEAK   DEFAULT   12 _ZN3fst11ArcIteratorINS_13GrammarFstTplINS_9VectorFstINS_6ArcTplINS_17TropicalWeightTplIfEEEENS_11VectorStateIS6_SaIS6_EEEEEEEE13CopyArcToTempEv
  2546: 000000000041b740   707 FUNC    WEAK   DEFAULT   12 _ZNK3fst13GrammarFstTplIKNS_8ConstFstINS_6ArcTplINS_17TropicalWeightTplIfEEEEjEEE5WriteERSob
  2547: 0000000000396930   333 FUNC    WEAK   DEFAULT   12 _ZNSt10_HashtableIPN5kaldi7decoder8StdTokenES3_SaIS3_ENSt8__detail9_IdentityESt8equal_toIS3_ESt4hashIS3_ENS5_18_Mod_range_hashingENS5_20_Default_ranged_hashENS5_20_Prime_rehash_policyENS5_17_Hashtable_traitsILb0ELb1ELb1EEEE9_M_rehashEmRKm
  2548: 000000000060b7b0   592 FUNC    GLOBAL DEFAULT   12 _ZN5kaldi5nnet326ComputationLoopedOptimizer21AddMatrixSwapCommandsERKSt6vectorIiSaIiEES6_PNS0_15NnetComputationE
  2549: 00000000005b8aa0   249 FUNC    GLOBAL DEFAULT   12 _ZN5kaldi5nnet323time_height_convolution16UnPadModelHeightERKNS1_29ConvolutionComputationOptionsERKNS1_16ConvolutionModelES7_PNS1_22ConvolutionComputationE
  2550: 000000000044ba10    28 FUNC    WEAK   DEFAULT   12 _ZN5kaldi24OnlineGenericBaseFeatureINS_13FbankComputerEE8GetFrameEiPNS_10VectorBaseIfEE
  2551: 0000000000565820     6 FUNC    GLOBAL DEFAULT   12 _ZNK5kaldi5nnet34Nnet17GetComponentNamesB5cxx11Ev
  2552: 0000000000372e20   539 FUNC    WEAK   DEFAULT   12 _ZN5kaldi23LatticeFasterDecoderTplIN3fst13GrammarFstTplINS1_9VectorFstINS1_6ArcTplINS1_17TropicalWeightTplIfEEEENS1_11VectorStateIS7_SaIS7_EEEEEEENS_7decoder16BackpointerTokenEED1Ev
  2553: 0000000000626450    39 FUNC    WEAK   DEFAULT   12 _ZN5kaldi12CuMatrixBaseIfEclEii
  2554: 00000000002900b0   160 FUNC    WEAK   DEFAULT   12 _ZN3fst8internal14ComposeFstImplINS_17DefaultCacheStoreINS_6ArcTplINS_16LatticeWeightTplIfEEEEEENS_20TrivialComposeFilterINS_7MatcherINS_3FstIS6_EEEESC_EENS_24GenericComposeStateTableIS6_NS_18TrivialFilterStateENS_24DefaultComposeStateTupleIiSF_EENS_21CompactHashStateTableISH_NS_11ComposeHashISH_EEEEEEED2Ev
  2555: 0000000000339a70   296 FUNC    WEAK   DEFAULT   12 _ZN3fst16AddArcPropertiesINS_10ReverseArcINS_6ArcTplINS_17TropicalWeightTplIfEEEEEEEEmmNT_7StateIdERKS7_PS9_
  2556: 00000000004079a0     5 FUNC    WEAK   DEFAULT   12 _ZN5kaldi34LatticeIncrementalOnlineDecoderTplIN3fst13GrammarFstTplIKNS1_8ConstFstINS1_6ArcTplINS1_17TropicalWeightTplIfEEEEjEEEEEC2ERKSA_RKNS_21TransitionInformationERKNS_31LatticeIncrementalDecoderConfigE
  2557: 00000000003a0310  3180 FUNC    WEAK   DEFAULT   12 _ZNK5kaldi23LatticeFasterDecoderTplIN3fst13GrammarFstTplINS1_9VectorFstINS1_6ArcTplINS1_17TropicalWeightTplIfEEEENS1_11VectorStateIS7_SaIS7_EEEEEEENS_7decoder16BackpointerTokenEE13GetRawLatticeEPNS3_INS4_INS1_16LatticeWeightTplIfEEEENS8_ISI_SaISI_EEEEEb
  2558: 00000000006b6c40  1747 FUNC    WEAK   DEFAULT   12 _ZN3fst13FstRegistererINS_8ConstFstINS_6ArcTplINS_17TropicalWeightTplIfEEEEjEEEC2Ev
  2559: 00000000006cfd10   615 FUNC    WEAK   DEFAULT   12 _ZNSt8_Rb_treeINSt7__cxx1112basic_stringIcSt11char_traitsIcESaIcEEESt4pairIKS5_PdESt10_Select1stIS9_ESt4lessIS5_ESaIS9_EE29_M_get_insert_hint_unique_posESt23_Rb_tree_const_iteratorIS9_ERS7_
  2560: 00000000002d22c0   281 FUNC    WEAK   DEFAULT   12 _ZNSt10_HashtableIiiN3fst13PoolAllocatorIiEENSt8__detail9_IdentityENS0_18CompactHashBiTableIiNS0_24DefaultComposeStateTupleIiNS0_15PairFilterStateINS7_INS0_18IntegerFilterStateIaEENS0_17WeightFilterStateINS0_17TropicalWeightTplIfEEEEEENS8_IiEEEEEENS0_11ComposeHashISH_EESt8equal_toISH_ELNS0_6HSTypeE3EE9HashEqualENSN_8HashFuncENS3_18_Mod_range_hashingENS3_20_Default_ranged_hashENS3_20_Prime_rehash_policyENS3_17_Hashtable_traitsILb1ELb1ELb1EEEE9_M_rehashEmRKm
  2561: 0000000000582d70   113 FUNC    GLOBAL DEFAULT   12 _ZN5kaldi5nnet339NaturalGradientPerElementScaleComponent17ConsolidateMemoryEv
  2562: 00000000003ed040   684 FUNC    WEAK   DEFAULT   12 _ZNK5kaldi28LatticeIncrementalDecoderTplIN3fst13GrammarFstTplIKNS1_8ConstFstINS1_6ArcTplINS1_17TropicalWeightTplIfEEEEjEEEENS_7decoder8StdTokenEE17ComputeFinalCostsEPSt13unordered_mapIPSC_fSt4hashISF_ESt8equal_toISF_ESaISt4pairIKSF_fEEEPfSQ_
  2563: 000000000059ddd0   124 FUNC    WEAK   DEFAULT   12 _ZN5kaldi5nnet315AffineComponent6UpdateERKNSt7__cxx1112basic_stringIcSt11char_traitsIcESaIcEEERKNS_12CuMatrixBaseIfEESD_
  2564: 0000000000554210  1121 FUNC    GLOBAL DEFAULT   12 _ZNK5kaldi5nnet326StatisticsPoolingComponent9PropagateEPKNS0_27ComponentPrecomputedIndexesERKNS_12CuMatrixBaseIfEEPS6_
  2565: 0000000000398e80  1765 FUNC    WEAK   DEFAULT   12 _ZN5kaldi23LatticeFasterDecoderTplIN3fst13GrammarFstTplINS1_9VectorFstINS1_6ArcTplINS1_17TropicalWeightTplIfEEEENS1_11VectorStateIS7_SaIS7_EEEEEEENS_7decoder16BackpointerTokenEE13TopSortTokensEPSE_PSt6vectorISG_SaISG_EE
  2566: 0000000000800f20    40 OBJECT  WEAK   DEFAULT   21 _ZTVN3fst10MemoryPoolINS_8internal8DfsStateINS_3FstINS_6ArcTplINS_16LatticeWeightTplIfEEEEEEEEEE
  2567: 00000000006294d0    86 FUNC    WEAK   DEFAULT   12 _ZNK5kaldi12CuMatrixBaseIdE8ColRangeEii
  2568: 00000000007fdc20    16 OBJECT  WEAK   DEFAULT   21 _ZTIN3fst8internal7FstImplINS_6ArcTplINS_23CompactLatticeWeightTplINS_16LatticeWeightTplIfEEiEEEEEE
  2569: 0000000000721220    61 OBJECT  WEAK   DEFAULT   14 _ZTSN3fst11FstRegisterINS_6ArcTplINS_17TropicalWeightTplIfEEEEEE
  2570: 000000000062ec20   447 FUNC    WEAK   DEFAULT   12 _ZN5kaldi9VecMatVecIdEET_RKNS_12CuVectorBaseIS1_EERKNS_12CuMatrixBaseIS1_EES5_
  2571: 0000000000698320   289 FUNC    WEAK   DEFAULT   12 _ZN5kaldi8SpMatrixIdE10AddMat2VecEdRKNS_10MatrixBaseIdEENS_19MatrixTransposeTypeERKNS_10VectorBaseIdEEd
  2572: 00000000007ff368    48 OBJECT  WEAK   DEFAULT   21 _ZTVN3fst8internal17VectorFstBaseImplINS_11VectorStateINS_6ArcTplINS_23CompactLatticeWeightTplINS_16LatticeWeightTplIfEEiEEEESaIS8_EEEEE
  2573: 000000000037eb80   804 FUNC    WEAK   DEFAULT   12 _ZN5kaldi23LatticeFasterDecoderTplIN3fst13GrammarFstTplIKNS1_8ConstFstINS1_6ArcTplINS1_17TropicalWeightTplIfEEEEjEEEENS_7decoder8StdTokenEEC2ERKSA_RKNS_26LatticeFasterDecoderConfigE
  2574: 0000000000630040    17 FUNC    WEAK   DEFAULT   12 _ZN5kaldi8CuVectorIfEC2Ev
  2575: 00000000005a3100   130 FUNC    WEAK   DEFAULT   12 _ZNK5kaldi5nnet313TdnnComponent18PrecomputedIndexes4TypeB5cxx11Ev
  2576: 0000000000804d00    24 OBJECT  WEAK   DEFAULT   21 _ZTIN3fst10MemoryPoolIN5kaldi7decoder8StdTokenEEE
  2577: 00000000004079d0    10 FUNC    WEAK   DEFAULT   12 _ZN5kaldi34LatticeIncrementalOnlineDecoderTplIN3fst13GrammarFstTplIKNS1_8ConstFstINS1_6ArcTplINS1_17TropicalWeightTplIfEEEEjEEEEE16BestPathIterator4DoneEv
  2578: 00000000008028d8    24 OBJECT  WEAK   DEFAULT   21 _ZTIN3fst29MutableFastLogAccumulatorDataE
  2579: 00000000006a28f0    83 FUNC    WEAK   DEFAULT   12 _ZNK5kaldi12SparseVectorIdE17CopyElementsToVecIfEEvPNS_10VectorBaseIT_EE
  2580: 0000000000801178    88 OBJECT  WEAK   DEFAULT   21 _ZTVN3fst8internal14ComposeFstImplINS_17DefaultCacheStoreINS_6ArcTplINS_16LatticeWeightTplIfEEEEEENS_20TrivialComposeFilterINS_7MatcherINS_3FstIS6_EEEESC_EENS_24GenericComposeStateTableIS6_NS_18TrivialFilterStateENS_24DefaultComposeStateTupleIiSF_EENS_21CompactHashStateTableISH_NS_11ComposeHashISH_EEEEEEEE
  2581: 00000000005ed0d0  1474 FUNC    GLOBAL DEFAULT   12 _ZNK5kaldi5nnet317UtteranceSplitter25GetChunkSizesForUtteranceEiPSt6vectorIiSaIiEE
  2582: 0000000000452600    39 FUNC    WEAK   DEFAULT   12 _ZNSt6vectorIN5kaldi18OnlineProcessPitch18NormalizationStatsESaIS2_EED2Ev
  2583: 000000000044ddb0   382 FUNC    GLOBAL DEFAULT   12 _ZN5kaldi18ComputeCorrelationERKNS_10VectorBaseIfEEiiiPS1_S4_
  2584: 00000000004e27c0   371 FUNC    WEAK   DEFAULT   12 _ZNSt10_HashtableISt6vectorIiSaIiEESt4pairIKS2_PN5kaldi7LmStateEESaIS8_ENSt8__detail10_Select1stESt8equal_toIS2_ENS5_12VectorHasherIiEENSA_18_Mod_range_hashingENSA_20_Default_ranged_hashENSA_20_Prime_rehash_policyENSA_17_Hashtable_traitsILb0ELb0ELb1EEEE9_M_rehashEmRKm
  2585: 00000000005b7f20   862 FUNC    GLOBAL DEFAULT   12 _ZNK5kaldi5nnet323time_height_convolution22ConvolutionComputation5CheckEv
  2586: 0000000000287820    39 FUNC    WEAK   DEFAULT   12 _ZNSt6vectorIN3fst24DefaultComposeStateTupleIiNS0_18TrivialFilterStateEEESaIS3_EED2Ev
  2587: 000000000062bc00     6 FUNC    WEAK   DEFAULT   12 _ZNK5kaldi14CuPackedMatrixIdE7NumColsEv
  2588: 00000000008001a0    88 OBJECT  WEAK   DEFAULT   21 _ZTVN3fst8internal18ComposeFstImplBaseINS_6ArcTplINS_17TropicalWeightTplIfEEEENS_17DefaultCacheStoreIS5_EENS_10ComposeFstIS5_S7_EEEE
  2589: 0000000000719800   311 OBJECT  WEAK   DEFAULT   14 _ZTSN3fst8internal14ComposeFstImplINS_17DefaultCacheStoreINS_6ArcTplINS_16LatticeWeightTplIfEEEEEENS_24AltSequenceComposeFilterINS_7MatcherINS_3FstIS6_EEEESC_EENS_24GenericComposeStateTableIS6_NS_18IntegerFilterStateIaEENS_24DefaultComposeStateTupleIiSG_EENS_21CompactHashStateTableISI_NS_11ComposeHashISI_EEEEEEEE
  2590: 000000000025f730   117 FUNC    WEAK   DEFAULT   12 _ZN3fst10MemoryPoolINS_13PoolAllocatorINS_10ReverseArcINS_6ArcTplINS_16LatticeWeightTplIfEEEEEEE2TNILi1EEEED2Ev
  2591: 0000000000253440    95 FUNC    WEAK   DEFAULT   12 _ZNK3fst9ImplToFstINS_8internal18ComposeFstImplBaseINS_6ArcTplINS_16LatticeWeightTplIfEEEENS_17DefaultCacheStoreIS6_EENS_10ComposeFstIS6_S8_EEEENS_3FstIS6_EEE5StartEv
  2592: 00000000003e9ab0   313 FUNC    WEAK   DEFAULT   12 _ZN5kaldi28LatticeIncrementalDecoderTplIN3fst3FstINS1_6ArcTplINS1_17TropicalWeightTplIfEEEEEENS_7decoder8StdTokenEE14FindOrAddTokenEiifPS9_Pb
  2593: 00000000006a33c0   131 FUNC    WEAK   DEFAULT   12 _ZN5kaldi7VecSvecIdEET_RKNS_10VectorBaseIS1_EERKNS_12SparseVectorIS1_EE
  2594: 000000000052d690   357 FUNC    WEAK   DEFAULT   12 _ZNSt10_HashtableISt4pairIiN5kaldi5nnet35IndexEES0_IKS4_iESaIS6_ENSt8__detail10_Select1stESt8equal_toIS4_ENS2_12CindexHasherENS8_18_Mod_range_hashingENS8_20_Default_ranged_hashENS8_20_Prime_rehash_policyENS8_17_Hashtable_traitsILb0ELb0ELb1EEEE9_M_rehashEmRKm
  2595: 0000000000601c60   543 FUNC    GLOBAL DEFAULT   12 _ZN5kaldi5nnet314RowOpsSplitter12GetSplitInfoEN9__gnu_cxx17__normal_iteratorIPKSt4pairIiiESt6vectorIS5_SaIS5_EEEESB_PNS1_15SingleSplitInfoE
  2596: 0000000000675ef0    19 FUNC    WEAK   DEFAULT   12 _ZN5kaldi10VectorBaseIfE11CopyFromPtrEPKfi
  2597: 000000000064dbc0   134 FUNC    WEAK   DEFAULT   12 _ZN5kaldi10MatrixBaseIfE8ApplyExpEv
  2598: 00000000006c2e50  1979 FUNC    GLOBAL DEFAULT   12 _ZN5kaldi12ParseOptions12SplitLongArgERKNSt7__cxx1112basic_stringIcSt11char_traitsIcESaIcEEEPS6_S9_Pb
  2599: 00000000002fd820   202 FUNC    WEAK   DEFAULT   12 _ZN3fst15NGramFstMatcherINS_6ArcTplINS_17TropicalWeightTplIfEEEEE8PriorityEi
  2600: 0000000000620e20     5 FUNC    WEAK   DEFAULT   12 _ZN5kaldi12CuMatrixBaseIfE11CopyFromMatIdEEvRKNS0_IT_EENS_19MatrixTransposeTypeE
  2601: 0000000000720ea0   167 OBJECT  WEAK   DEFAULT   14 _ZTSN3fst9ImplToFstINS_8internal9AddOnImplINS_8ConstFstINS_6ArcTplINS_17TropicalWeightTplIfEEEEjEENS_9AddOnPairINS_18LabelReachableDataIiEESB_EEEENS_11ExpandedFstIS7_EEEE
  2602: 000000000051f710   291 FUNC    GLOBAL DEFAULT   12 _ZNK5kaldi5nnet324ComputationStepsComputer5CheckEv
  2603: 0000000000694110   205 FUNC    WEAK   DEFAULT   12 _ZN5kaldi9TraceSpSpIfdEET_RKNS_8SpMatrixIS1_EERKNS2_IT0_EE
  2604: 0000000000801f60    40 OBJECT  WEAK   DEFAULT   21 _ZTVN3fst8internal14MemoryPoolImplILm16EEE
  2605: 0000000000808428    24 OBJECT  WEAK   DEFAULT   21 _ZTIN5kaldi5nnet324PerElementScaleComponentE
  2606: 0000000000543580   389 FUNC    WEAK   DEFAULT   12 _ZNSt6vectorIPN5kaldi8CuMatrixIfEESaIS3_EE17_M_realloc_insertIJS3_EEEvN9__gnu_cxx17__normal_iteratorIPS3_S5_EEDpOT_
  2607: 00000000002379c0   473 FUNC    GLOBAL DEFAULT   12 _ZN10RecognizerD2Ev
  2608: 00000000004a39a0   155 FUNC    WEAK   DEFAULT   12 _ZNSt12_Vector_baseIN3fst10ReverseArcINS0_6ArcTplINS0_17TropicalWeightTplIfEEEEEENS0_13PoolAllocatorIS6_EEED1Ev
  2609: 0000000000267550    91 FUNC    WEAK   DEFAULT   12 _ZNSt6vectorIN3fst9VectorFstINS0_6ArcTplINS0_16LatticeWeightTplIfEEEENS0_11VectorStateIS5_SaIS5_EEEEESaIS9_EED2Ev
  2610: 000000000054b330    10 FUNC    GLOBAL DEFAULT   12 _ZNK5kaldi5nnet328RoundingForwardingDescriptor15GetScaleForNodeEi
  2611: 0000000000251470    10 FUNC    WEAK   DEFAULT   12 _ZNK3fst9AutoQueueIiE5EmptyEv
  2612: 000000000066fd00   191 FUNC    WEAK   DEFAULT   12 _ZN5kaldi10VectorBaseIfE11CopyFromVecIdEEvRKNS0_IT_EE
  2613: 00000000004fbda0   693 FUNC    GLOBAL DEFAULT   12 _ZN5kaldi15TransitionModelC1ERKNS_26ContextDependencyInterfaceERKNS_11HmmTopologyE
  2614: 0000000000695750   201 FUNC    WEAK   DEFAULT   12 _ZNK5kaldi8SpMatrixIfE9MaxAbsEigEv
  2615: 000000000065a4e0   432 FUNC    WEAK   DEFAULT   12 _ZN5kaldi10MatrixBaseIdE6PowAbsERKS1_db
  2616: 00000000002d3210   296 FUNC    WEAK   DEFAULT   12 _ZN3fst8internal14ComposeFstImplINS_17DefaultCacheStoreINS_6ArcTplINS_16LatticeWeightTplIfEEEEEENS_24AltSequenceComposeFilterINS_7MatcherINS_3FstIS6_EEEESC_EENS_24GenericComposeStateTableIS6_NS_18IntegerFilterStateIaEENS_24DefaultComposeStateTupleIiSG_EENS_21CompactHashStateTableISI_NS_11ComposeHashISI_EEEEEEE12ComputeStartEv
  2617: 0000000000626cc0    24 FUNC    WEAK   DEFAULT   12 _ZN5kaldi12CuMatrixBaseIdE7AddRowsEdRKS1_RKNS_11CuArrayBaseIiEE
  2618: 00000000003ebf70    84 FUNC    WEAK   DEFAULT   12 _ZNK5kaldi28LatticeIncrementalDecoderTplIN3fst9VectorFstINS1_6ArcTplINS1_17TropicalWeightTplIfEEEENS1_11VectorStateIS6_SaIS6_EEEEENS_7decoder8StdTokenEE12ReachedFinalEv
  2619: 000000000059cc40     6 FUNC    WEAK   DEFAULT   12 _ZNK5kaldi5nnet317SumGroupComponent8InputDimEv
  2620: 0000000000804a70    56 OBJECT  WEAK   DEFAULT   21 _ZTVSt23_Sp_counted_ptr_inplaceIN3fst8internal14ComposeFstImplINS0_17DefaultCacheStoreINS0_6ArcTplINS0_17TropicalWeightTplIfEEEEEENS0_20NoMatchComposeFilterINS0_7MatcherINS0_3FstIS7_EEEESD_EENS0_24GenericComposeStateTableIS7_NS0_18TrivialFilterStateENS0_24DefaultComposeStateTupleIiSG_EENS0_21CompactHashStateTableISI_NS0_11ComposeHashISI_EEEEEEEESaIvELN9__gnu_cxx12_Lock_policyE2EE
  2621: 0000000000567c30   328 FUNC    GLOBAL DEFAULT   12 _ZN5kaldi5nnet34Nnet12AddComponentERKNSt7__cxx1112basic_stringIcSt11char_traitsIcESaIcEEEPNS0_9ComponentE
  2622: 0000000000800f98    40 OBJECT  WEAK   DEFAULT   21 _ZTVN3fst10MemoryPoolINS_8internal8DfsStateINS_3FstINS_6ArcTplINS_17TropicalWeightTplIfEEEEEEEEEE
  2623: 000000000034e890   113 FUNC    GLOBAL DEFAULT   12 _ZNK5kaldi37OnlineIvectorExtractorAdaptationState5WriteERSob
  2624: 00000000005055a0   251 FUNC    GLOBAL DEFAULT   12 _ZN5kaldi5nnet329DecodableNnetSimpleLoopedInfoC2ERKNS0_34NnetSimpleLoopedComputationOptionsEPNS0_4NnetE
  2625: 0000000000807768    24 OBJECT  WEAK   DEFAULT   21 _ZTIN5kaldi5nnet344StatisticsPoolingComponentPrecomputedIndexesE
  2626: 000000000025ffb0   970 FUNC    WEAK   DEFAULT   12 _ZNSt7__cxx119to_stringEl
  2627: 0000000000565da0    16 FUNC    GLOBAL DEFAULT   12 _ZNK5kaldi5nnet34Nnet11GetNodeNameB5cxx11Ei
  2628: 0000000000727820    45 OBJECT  WEAK   DEFAULT   14 _ZTSN5kaldi5nnet328RoundingForwardingDescriptorE
  2629: 0000000000324ae0    11 FUNC    WEAK   DEFAULT   12 _ZNK3fst9ImplToFstINS_8internal13VectorFstImplINS_11VectorStateINS_10ReverseArcINS_6ArcTplINS_17TropicalWeightTplIfEEEEEESaIS9_EEEEENS_10MutableFstIS9_EEE13OutputSymbolsEv
  2630: 0000000000629cd0     6 FUNC    WEAK   DEFAULT   12 _ZN5kaldi12CuMatrixBaseIdE3MatEv
  2631: 0000000000429600   198 FUNC    WEAK   DEFAULT   12 _ZN5kaldi13TaskSequencerINS_33IvectorExtractorUpdateWeightClassEE7RunTaskEPNS2_15RunTaskArgsListE
  2632: 00000000004af710  3779 FUNC    GLOBAL DEFAULT   12 _ZN5kaldi16WordAlignLatticeERKN3fst9VectorFstINS0_6ArcTplINS0_23CompactLatticeWeightTplINS0_16LatticeWeightTplIfEEiEEEENS0_11VectorStateIS7_SaIS7_EEEEERKNS_21TransitionInformationERKNS_16WordBoundaryInfoEiPSB_
  2633: 0000000000325060   283 FUNC    WEAK   DEFAULT   12 _ZNK3fst17ComposeFstMatcherINS_17DefaultCacheStoreINS_6ArcTplINS_17TropicalWeightTplIfEEEEEENS_17NullComposeFilterINS_7MatcherINS_3FstIS5_EEEESB_EENS_24GenericComposeStateTableIS5_NS_18TrivialFilterStateENS_24DefaultComposeStateTupleIiSE_EENS_21CompactHashStateTableISG_NS_11ComposeHashISG_EEEEEEE4TypeEb
  2634: 0000000000278c70   526 FUNC    WEAK   DEFAULT   12 _ZNSt6vectorIN3fst19LatticeDeterminizerINS0_16LatticeWeightTplIfEEiE7TempArcESaIS5_EE17_M_realloc_insertIJRKS5_EEEvN9__gnu_cxx17__normal_iteratorIPS5_S7_EEDpOT_
  2635: 00000000004b1960    10 FUNC    WEAK   DEFAULT   12 _ZNSt23_Sp_counted_ptr_inplaceIN3fst8internal14RandGenFstImplINS0_6ArcTplINS0_23CompactLatticeWeightTplINS0_16LatticeWeightTplIfEEiEEEES8_NS0_10ArcSamplerIS8_NS0_18UniformArcSelectorIS8_EEEEEESaIvELN9__gnu_cxx12_Lock_policyE2EED0Ev
  2636: 0000000000717ac0   134 OBJECT  WEAK   DEFAULT   14 _ZTSN3fst9ImplToFstINS_8internal13VectorFstImplINS_11VectorStateINS_6ArcTplINS_16LatticeWeightTplIfEEEESaIS7_EEEEENS_10MutableFstIS7_EEEE
  2637: 0000000000305f60    38 FUNC    WEAK   DEFAULT   12 _ZNSt10unique_ptrIN3fst10MappedFileESt14default_deleteIS1_EED2Ev
  2638: 00000000005c9100 11785 FUNC    GLOBAL DEFAULT   12 _ZNK5kaldi5nnet318ComputationChecker23CheckComputationIndexesEv
  2639: 000000000026e9c0    42 FUNC    WEAK   DEFAULT   12 _ZN3fst8internal15MemoryArenaImplILm32EED0Ev
  2640: 00000000006486c0    19 FUNC    WEAK   DEFAULT   12 _ZN5kaldi6MatrixIdED1Ev
  2641: 0000000000626c10    25 FUNC    WEAK   DEFAULT   12 _ZN5kaldi12CuMatrixBaseIfEC1Ev
  2642: 00000000004b8630   240 FUNC    WEAK   DEFAULT   12 _ZNK3fst9ImplToFstINS_8internal14RandGenFstImplINS_6ArcTplINS_23CompactLatticeWeightTplINS_16LatticeWeightTplIfEEiEEEES8_NS_10ArcSamplerIS8_NS_18UniformArcSelectorIS8_EEEEEENS_3FstIS8_EEE10PropertiesEmb
  2643: 00000000005f5a00   309 FUNC    GLOBAL DEFAULT   12 _ZN5kaldi5nnet317UtteranceSplitterC1ERKNS0_23ExampleGenerationConfigE
  2644: 0000000000458a10   488 FUNC    GLOBAL DEFAULT   12 _ZN5kaldi13ExtractWindowElRKNS_10VectorBaseIfEEiRKNS_22FrameExtractionOptionsERKNS_21FeatureWindowFunctionEPNS_6VectorIfEEPf
  2645: 000000000038d0d0   333 FUNC    WEAK   DEFAULT   12 _ZNSt10_HashtableIPN5kaldi7decoder16BackpointerTokenESt4pairIKS3_fESaIS6_ENSt8__detail10_Select1stESt8equal_toIS3_ESt4hashIS3_ENS8_18_Mod_range_hashingENS8_20_Default_ranged_hashENS8_20_Prime_rehash_policyENS8_17_Hashtable_traitsILb0ELb0ELb1EEEE9_M_rehashEmRKm
  2646: 0000000000668d80   186 FUNC    WEAK   DEFAULT   12 _ZNK5kaldi10MatrixBaseIdE16MinSingularValueEv
  2647: 000000000026b4f0   133 FUNC    WEAK   DEFAULT   12 _ZN3fst13StateIteratorINS_3FstINS_6ArcTplINS_23CompactLatticeWeightTplINS_16LatticeWeightTplIfEEiEEEEEEEC2ERKS8_
  2648: 0000000000481100   817 FUNC    GLOBAL DEFAULT   12 _ZN5kaldi27ComputeCompactLatticeAlphasERKN3fst9VectorFstINS0_6ArcTplINS0_23CompactLatticeWeightTplINS0_16LatticeWeightTplIfEEiEEEENS0_11VectorStateIS7_SaIS7_EEEEEPSt6vectorIdSaIdEE
  2649: 00000000005d0c50   190 FUNC    GLOBAL DEFAULT   12 _ZN5kaldi5nnet330OutputGruNonlinearityComponent3AddEfRKNS0_9ComponentE
  2650: 000000000028b560  1159 FUNC    WEAK   DEFAULT   12 _ZN3fst22LookAheadComposeFilterINS_21SequenceComposeFilterINS_16LookAheadMatcherINS_3FstINS_6ArcTplINS_16LatticeWeightTplIfEEEEEEEES9_EES9_S9_LNS_9MatchTypeE3EEC1ERKS8_SE_PS9_SF_
  2651: 0000000000326fd0   242 FUNC    WEAK   DEFAULT   12 _ZN3fst17ComposeFstMatcherINS_17DefaultCacheStoreINS_6ArcTplINS_17TropicalWeightTplIfEEEEEENS_24AltSequenceComposeFilterINS_7MatcherINS_3FstIS5_EEEESB_EENS_24GenericComposeStateTableIS5_NS_18IntegerFilterStateIaEENS_24DefaultComposeStateTupleIiSF_EENS_21CompactHashStateTableISH_NS_11ComposeHashISH_EEEEEEE8PriorityEi
  2652: 00000000005cf4f0   789 FUNC    GLOBAL DEFAULT   12 _ZN5kaldi5nnet328RestrictedAttentionComponent19CreateIndexesVectorERKSt6vectorISt4pairIiiESaIS4_EEiiiRKSt13unordered_setINS0_5IndexENS0_11IndexHasherESt8equal_toISA_ESaISA_EEPS2_ISA_SE_E
  2653: 000000000030dba0   233 FUNC    WEAK   DEFAULT   12 _ZN3fst7ArcSortINS_6ArcTplINS_17TropicalWeightTplIfEEEENS_13ILabelCompareIS4_EEEEvPNS_10MutableFstIT_EET0_
  2654: 000000000027ec00   454 FUNC    WEAK   DEFAULT   12 _ZNSt8__detail9_Map_baseIPKSt6vectorIN3fst19LatticeDeterminizerINS2_16LatticeWeightTplIfEEiE7ElementESaIS7_EESt4pairIKSB_S7_ESaISE_ENS_10_Select1stENS6_11SubsetEqualENS6_9SubsetKeyENS_18_Mod_range_hashingENS_20_Default_ranged_hashENS_20_Prime_rehash_policyENS_17_Hashtable_traitsILb1ELb0ELb1EEELb1EEixERSD_
  2655: 0000000000423cc0  1073 FUNC    GLOBAL DEFAULT   12 _ZNK5kaldi21IvectorExtractorStats17UpdateProjectionsERKNS_33IvectorExtractorEstimationOptionsEPNS_16IvectorExtractorE
  2656: 00000000007175a0    91 OBJECT  WEAK   DEFAULT   14 _ZTSN3fst10MutableFstINS_6ArcTplINS_23CompactLatticeWeightTplINS_16LatticeWeightTplIfEEiEEEEEE
  2657: 0000000000325240    17 FUNC    WEAK   DEFAULT   12 _ZNK3fst17ComposeFstMatcherINS_17DefaultCacheStoreINS_6ArcTplINS_17TropicalWeightTplIfEEEEEENS_17NullComposeFilterINS_7MatcherINS_3FstIS5_EEEESB_EENS_24GenericComposeStateTableIS5_NS_18TrivialFilterStateENS_24DefaultComposeStateTupleIiSE_EENS_21CompactHashStateTableISG_NS_11ComposeHashISG_EEEEEEE5ValueEv
  2658: 00000000003d7f30   756 FUNC    WEAK   DEFAULT   12 _ZN5kaldi30LatticeIncrementalDeterminizerC2ERKNS_21TransitionInformationERKNS_31LatticeIncrementalDecoderConfigE
  2659: 00000000003d9fd0    39 FUNC    WEAK   DEFAULT   12 _ZNSt6vectorIN5kaldi28LatticeIncrementalDecoderTplIN3fst13GrammarFstTplIKNS2_8ConstFstINS2_6ArcTplINS2_17TropicalWeightTplIfEEEEjEEEENS0_7decoder16BackpointerTokenEE9TokenListESaISF_EED1Ev
  2660: 000000000028adf0   748 FUNC    WEAK   DEFAULT   12 _ZNK3fst17ComposeFstMatcherINS_17DefaultCacheStoreINS_6ArcTplINS_16LatticeWeightTplIfEEEEEENS_22LookAheadComposeFilterINS_24AltSequenceComposeFilterINS_16LookAheadMatcherINS_3FstIS5_EEEESC_EESC_SC_LNS_9MatchTypeE3EEENS_24GenericComposeStateTableIS5_NS_18IntegerFilterStateIaEENS_24DefaultComposeStateTupleIiSI_EENS_21CompactHashStateTableISK_NS_11ComposeHashISK_EEEEEEE4CopyEb
  2661: 000000000064d0e0   182 FUNC    WEAK   DEFAULT   12 _ZN5kaldi10MatrixBaseIfE9TransposeEv
  2662: 00000000004b6230    42 FUNC    WEAK   DEFAULT   12 _ZN3fst8internal15MemoryArenaImplILm96EED0Ev
  2663: 0000000000659850   201 FUNC    WEAK   DEFAULT   12 _ZNK5kaldi10MatrixBaseIdE10IsDiagonalEd
  2664: 0000000000551350     6 FUNC    WEAK   DEFAULT   12 _ZNK5kaldi5nnet321ConstantSumDescriptor7ModulusEv
  2665: 000000000033d0c0  2677 FUNC    WEAK   DEFAULT   12 _ZN3fst7ComposeINS_6ArcTplINS_17TropicalWeightTplIfEEEEEEvRKNS_3FstIT_EES9_PNS_10MutableFstIS6_EERKNS_14ComposeOptionsE
  2666: 0000000000251330     8 FUNC    WEAK   DEFAULT   12 _ZNK5kaldi15KaldiFatalError4whatEv
  2667: 000000000042c5b0   377 FUNC    GLOBAL DEFAULT   12 _ZNK5kaldi7DiagGmm13LogLikelihoodERKNS_10VectorBaseIfEE
  2668: 0000000000466e10   494 FUNC    WEAK   DEFAULT   12 _ZNSt6vectorISt4pairIiN3fst25LatticeDeterminizerPrunedINS1_16LatticeWeightTplIfEEiE7ElementEESaIS7_EE17_M_realloc_insertIJRKS7_EEEvN9__gnu_cxx17__normal_iteratorIPS7_S9_EEDpOT_
  2669: 0000000000371cb0   576 FUNC    WEAK   DEFAULT   12 _ZN5kaldi23LatticeFasterDecoderTplIN3fst9VectorFstINS1_6ArcTplINS1_17TropicalWeightTplIfEEEENS1_11VectorStateIS6_SaIS6_EEEEENS_7decoder8StdTokenEED2Ev
  2670: 00000000008027b8    24 OBJECT  WEAK   DEFAULT   21 _ZTIN3fst11ArcIteratorINS_8NGramFstINS_6ArcTplINS_17TropicalWeightTplIfEEEEEEEE
  2671: 0000000000268390   297 FUNC    WEAK   DEFAULT   12 _ZN3fst8SccQueueIiNS_9QueueBaseIiEEE7EnqueueEi
  2672: 00000000006e2870   184 FUNC    GLOBAL DEFAULT   12 _ZN5kaldi8WithProbEfPNS_11RandomStateE
  2673: 000000000053eb70   138 FUNC    GLOBAL DEFAULT   12 _ZN5kaldi5nnet312NnetComputerC1ERKNS0_18NnetComputeOptionsERKNS0_15NnetComputationEPNS0_4NnetES9_
  2674: 00000000002efd10  1154 FUNC    WEAK   DEFAULT   12 _ZNSt6vectorIN22LanguageModelEstimator7LmStateESaIS1_EE17_M_default_appendEm
  2675: 000000000028e030   534 FUNC    WEAK   DEFAULT   12 _ZNSt10_HashtableIiiN3fst13PoolAllocatorIiEENSt8__detail9_IdentityENS0_18CompactHashBiTableIiNS0_24DefaultComposeStateTupleIiNS0_18IntegerFilterStateIaEEEENS0_11ComposeHashIS9_EESt8equal_toIS9_ELNS0_6HSTypeE3EE9HashEqualENSF_8HashFuncENS3_18_Mod_range_hashingENS3_20_Default_ranged_hashENS3_20_Prime_rehash_policyENS3_17_Hashtable_traitsILb1ELb1ELb1EEEED2Ev
  2676: 00000000005835e0    74 FUNC    GLOBAL DEFAULT   12 _ZN5kaldi5nnet315LinearComponent11UnVectorizeERKNS_10VectorBaseIfEE
  2677: 00000000006a1310    43 FUNC    GLOBAL DEFAULT   12 _ZN5kaldi13GeneralMatrixaSERKNS_12SparseMatrixIfEE
  2678: 00000000006350d0    71 FUNC    GLOBAL DEFAULT   12 _ZN5kaldi16CompressedMatrixaSERKS0_
  2679: 00000000005522e0     6 FUNC    GLOBAL DEFAULT   12 _ZNK5kaldi5nnet317ConstantComponent13NumParametersEv
  2680: 0000000000575de0   129 FUNC    WEAK   DEFAULT   12 _ZNK5kaldi5nnet318BatchNormComponent4TypeB5cxx11Ev
  2681: 0000000000623110   235 FUNC    WEAK   DEFAULT   12 _ZN5kaldi8CuMatrixIdEC2ERKNS_10CuSpMatrixIdEE
  2682: 000000000054cbc0    29 FUNC    GLOBAL DEFAULT   12 _ZN5kaldi5nnet321ConstantSumDescriptorC2Efi
  2683: 0000000000325c20    10 FUNC    WEAK   DEFAULT   12 _ZN3fst18CacheStateIteratorINS_14DeterminizeFstINS_10ReverseArcINS_6ArcTplINS_17TropicalWeightTplIfEEEEEEEEED0Ev
  2684: 00000000006b4540     5 FUNC    WEAK   DEFAULT   12 _ZN5kaldi8TpMatrixIdE6ResizeEiNS_16MatrixResizeTypeE
  2685: 0000000000483fd0  4896 FUNC    GLOBAL DEFAULT   12 _ZN5kaldi28AddNnlmScoreToCompactLatticeERKSt13unordered_mapISt4pairIiiEdNS_10PairHasherIiiEESt8equal_toIS2_ESaIS1_IKS2_dEEEPN3fst9VectorFstINSD_6ArcTplINSD_23CompactLatticeWeightTplINSD_16LatticeWeightTplIfEEiEEEENSD_11VectorStateISK_SaISK_EEEEE
  2686: 0000000000629650    21 FUNC    WEAK   DEFAULT   12 _ZN5kaldi12CuMatrixBaseIdE14SetRandUniformEv
  2687: 00000000004078f0     5 FUNC    WEAK   DEFAULT   12 _ZN5kaldi34LatticeIncrementalOnlineDecoderTplIN3fst3FstINS1_6ArcTplINS1_17TropicalWeightTplIfEEEEEEEC2ERKNS_31LatticeIncrementalDecoderConfigEPS7_RKNS_21TransitionInformationE
  2688: 00000000003b3090    72 FUNC    WEAK   DEFAULT   12 _ZN3fst9LifoQueueIiEC2Ev
  2689: 00000000006b8a80  1212 FUNC    GLOBAL DEFAULT   12 _ZN5kaldi6Output4OpenERKNSt7__cxx1112basic_stringIcSt11char_traitsIcESaIcEEEbb
  2690: 000000000062c0e0    17 FUNC    WEAK   DEFAULT   12 _ZN5kaldi10CuSpMatrixIfEC1Ev
  2691: 000000000067af20   643 FUNC    WEAK   DEFAULT   12 _ZNK5kaldi10VectorBaseIdE3MinEPi
  2692: 0000000000724df0    29 OBJECT  WEAK   DEFAULT   14 _ZTSN5kaldi18OnlineDeltaFeatureE
  2693: 0000000000414e80   333 FUNC    WEAK   DEFAULT   12 _ZNSt10_HashtableIlSt4pairIKliESaIS2_ENSt8__detail10_Select1stESt8equal_toIlESt4hashIlENS4_18_Mod_range_hashingENS4_20_Default_ranged_hashENS4_20_Prime_rehash_policyENS4_17_Hashtable_traitsILb0ELb0ELb1EEEE9_M_rehashEmRKm
  2694: 00000000003947b0   579 FUNC    WEAK   DEFAULT   12 _ZN5kaldi23LatticeFasterDecoderTplIN3fst13GrammarFstTplINS1_9VectorFstINS1_6ArcTplINS1_17TropicalWeightTplIfEEEENS1_11VectorStateIS7_SaIS7_EEEEEEENS_7decoder8StdTokenEE12InitDecodingEv
  2695: 00000000004572b0   502 FUNC    GLOBAL DEFAULT   12 _ZN5kaldi11PlpComputerD2Ev
  2696: 000000000034cd90    59 FUNC    WEAK   DEFAULT   12 _ZN3fst17ComposeFstMatcherINS_17DefaultCacheStoreINS_6ArcTplINS_17TropicalWeightTplIfEEEEEENS_20TrivialComposeFilterINS_7MatcherINS_3FstIS5_EEEESB_EENS_24GenericComposeStateTableIS5_NS_18TrivialFilterStateENS_24DefaultComposeStateTupleIiSE_EENS_21CompactHashStateTableISG_NS_11ComposeHashISG_EEEEEEE4NextEv
  2697: 000000000055fec0    69 FUNC    WEAK   DEFAULT   12 _ZN5kaldi5nnet347StatisticsExtractionComponentPrecomputedIndexesD0Ev
  2698: 0000000000650140   272 FUNC    WEAK   DEFAULT   12 _ZN5kaldi10MatrixBaseIfE13GroupMaxDerivERKS1_S3_
  2699: 0000000000628ae0     5 FUNC    WEAK   DEFAULT   12 _ZN5kaldi12CuMatrixBaseIdE13AddMatDiagVecEdRKS1_NS_19MatrixTransposeTypeERNS_12CuVectorBaseIdEEd
  2700: 00000000005e5fd0   333 FUNC    GLOBAL DEFAULT   12 _ZN5kaldi5nnet315NnetComputeProb5ResetEv
  2701: 0000000000454990   694 FUNC    GLOBAL DEFAULT   12 _ZN5kaldi13FbankComputerC1ERKS0_
  2702: 000000000071c9a0    83 OBJECT  WEAK   DEFAULT   14 _ZTSN3fst10MemoryPoolINS_13PoolAllocatorIPNSt8__detail15_Hash_node_baseEE2TNILi64EEEEE
  2703: 00000000007219e0    93 OBJECT  WEAK   DEFAULT   14 _ZTSSt23_Sp_counted_ptr_inplaceIN3fst18LabelReachableDataIiEESaIvELN9__gnu_cxx12_Lock_policyE2EE
  2704: 0000000000726ba0    41 OBJECT  WEAK   DEFAULT   14 _ZTSN3fst8internal15MemoryArenaImplILm776EEE
  2705: 0000000000662c40   584 FUNC    WEAK   DEFAULT   12 _ZN5kaldi10MatrixBaseIfE15CopyColsFromVecERKNS_10VectorBaseIfEE
  2706: 00000000006a3d10    51 FUNC    WEAK   DEFAULT   12 _ZN5kaldi12SparseVectorIdE4SwapEPS1_
  2707: 0000000000327300    75 FUNC    WEAK   DEFAULT   12 _ZNSt23_Sp_counted_ptr_inplaceIN3fst8internal13VectorFstImplINS0_11VectorStateINS0_10ReverseArcINS0_6ArcTplINS0_17TropicalWeightTplIfEEEEEESaIS9_EEEEESaIvELN9__gnu_cxx12_Lock_policyE2EE14_M_get_deleterERKSt9type_info
  2708: 0000000000583be0   169 FUNC    GLOBAL DEFAULT   12 _ZN5kaldi5nnet323RepeatedAffineComponent11UnVectorizeERKNS_10VectorBaseIfEE
  2709: 000000000050c460   335 FUNC    GLOBAL DEFAULT   12 _ZNK5kaldi5nnet38Compiler24AddBackwardStepComponentEiPNS0_15NnetComputationE
  2710: 00000000002517e0     1 FUNC    WEAK   DEFAULT   12 _ZNSt23_Sp_counted_ptr_inplaceIN3fst8internal14ComposeFstImplINS0_17DefaultCacheStoreINS0_6ArcTplINS0_16LatticeWeightTplIfEEEEEENS0_18MatchComposeFilterINS0_7MatcherINS0_3FstIS7_EEEESD_EENS0_24GenericComposeStateTableIS7_NS0_18IntegerFilterStateIaEENS0_24DefaultComposeStateTupleIiSH_EENS0_21CompactHashStateTableISJ_NS0_11ComposeHashISJ_EEEEEEEESaIvELN9__gnu_cxx12_Lock_policyE2EED2Ev
  2711: 0000000000469190  2464 FUNC    WEAK   DEFAULT   12 _ZN3fst25LatticeDeterminizerPrunedINS_16LatticeWeightTplIfEEiE15NormalizeSubsetEPSt6vectorINS3_7ElementESaIS5_EEPS2_PPKNS_23LatticeStringRepositoryIiE5EntryE
  2712: 00000000004453a0     1 FUNC    WEAK   DEFAULT   12 _ZN5kaldi17ScalarClusterableD1Ev
  2713: 000000000059cb40     6 FUNC    WEAK   DEFAULT   12 _ZNK5kaldi5nnet315AffineComponent10PropertiesEv
  2714: 00000000007fe440    24 OBJECT  WEAK   DEFAULT   21 _ZTISt23_Sp_counted_ptr_inplaceIN3fst8internal13ArcMapFstImplINS0_6ArcTplINS0_17TropicalWeightTplIfEEEENS3_INS0_16LatticeWeightTplIfEEEENS0_18StdToLatticeMapperIfEEEESaIvELN9__gnu_cxx12_Lock_policyE2EE
  2715: 00000000002569d0    10 FUNC    WEAK   DEFAULT   12 _ZNSt23_Sp_counted_ptr_inplaceIN3fst8internal14ComposeFstImplINS0_17DefaultCacheStoreINS0_6ArcTplINS0_17TropicalWeightTplIfEEEEEENS0_23PushLabelsComposeFilterINS0_24PushWeightsComposeFilterINS0_22LookAheadComposeFilterINS0_21SequenceComposeFilterINS0_16LookAheadMatcherINS0_3FstIS7_EEEESG_EESG_SG_LNS0_9MatchTypeE3EEESG_SG_LSI_3EEESG_SG_LSI_3EEENS0_24GenericComposeStateTableIS7_NS0_15PairFilterStateINSN_INS0_18IntegerFilterStateIaEENS0_17WeightFilterStateIS6_EEEENSO_IiEEEENS0_24DefaultComposeStateTupleIiSU_EENS0_21CompactHashStateTableISW_NS0_11ComposeHashISW_EEEEEEEESaIvELN9__gnu_cxx12_Lock_policyE2EE10_M_destroyEv
  2716: 0000000000258d00   157 FUNC    WEAK   DEFAULT   12 _ZNK3fst13SortedMatcherINS_3FstINS_6ArcTplINS_16LatticeWeightTplIfEEEEEEE5ValueEv
  2717: 00000000005693d0  1553 FUNC    GLOBAL DEFAULT   12 _ZN5kaldi5nnet34Nnet26ProcessInputNodeConfigLineEPNS_10ConfigLineE
  2718: 00000000003246a0     1 FUNC    WEAK   DEFAULT   12 _ZNSt23_Sp_counted_ptr_inplaceIN3fst8internal14ComposeFstImplINS0_17DefaultCacheStoreINS0_6ArcTplINS0_17TropicalWeightTplIfEEEEEENS0_20NoMatchComposeFilterINS0_7MatcherINS0_3FstIS7_EEEESD_EENS0_24GenericComposeStateTableIS7_NS0_18TrivialFilterStateENS0_24DefaultComposeStateTupleIiSG_EENS0_21CompactHashStateTableISI_NS0_11ComposeHashISI_EEEEEEEESaIvELN9__gnu_cxx12_Lock_policyE2EED2Ev
  2719: 0000000000464c60  1044 FUNC    WEAK   DEFAULT   12 _ZN3fst25LatticeDeterminizerPrunedINS_16LatticeWeightTplIfEEiEC1ERKNS_11ExpandedFstINS_6ArcTplIS2_EEEEdNS_31DeterminizeLatticePrunedOptionsE
  2720: 000000000062ca30     6 FUNC    WEAK   DEFAULT   12 _ZNK5kaldi10CuSpMatrixIdE3MatEv
  2721: 000000000041e550    21 FUNC    GLOBAL DEFAULT   12 _ZNK5kaldi16IvectorExtractor8NumGaussEv
  2722: 00000000004584f0   225 FUNC    GLOBAL DEFAULT   12 _ZN5kaldi9NumFramesElRKNS_22FrameExtractionOptionsEb
  2723: 00000000004207e0   268 FUNC    GLOBAL DEFAULT   12 _ZN5kaldi21IvectorExtractorStats19CommitStatsForPriorERKNS_10VectorBaseIdEERKNS_8SpMatrixIdEE
  2724: 00000000004b0f50     7 FUNC    WEAK   DEFAULT   12 _ZNK3fst13SortedMatcherINS_3FstINS_6ArcTplINS_23CompactLatticeWeightTplINS_16LatticeWeightTplIfEEiEEEEEEE6GetFstEv
  2725: 0000000000326cd0   242 FUNC    WEAK   DEFAULT   12 _ZN3fst17ComposeFstMatcherINS_17DefaultCacheStoreINS_6ArcTplINS_17TropicalWeightTplIfEEEEEENS_20NoMatchComposeFilterINS_7MatcherINS_3FstIS5_EEEESB_EENS_24GenericComposeStateTableIS5_NS_18TrivialFilterStateENS_24DefaultComposeStateTupleIiSE_EENS_21CompactHashStateTableISG_NS_11ComposeHashISG_EEEEEEE8PriorityEi
  2726: 00000000007ffe18    48 OBJECT  WEAK   DEFAULT   21 _ZTVN3fst8internal9CacheImplINS_6ArcTplINS_17TropicalWeightTplIfEEEEEE
  2727: 00000000002fea90  1132 FUNC    WEAK   DEFAULT   12 _ZN5kaldi12ParseOptionsC1EPKc
  2728: 000000000035dec0   147 FUNC    WEAK   DEFAULT   12 _ZN5kaldi16EndpointDetectedINS_34LatticeIncrementalOnlineDecoderTplIN3fst3FstINS2_6ArcTplINS2_17TropicalWeightTplIfEEEEEEEEEEbRKNS_20OnlineEndpointConfigERKNS_21TransitionInformationEfRKT_
  2729: 0000000000253e10    11 FUNC    WEAK   DEFAULT   12 _ZN3fst18MutableArcIteratorINS_9VectorFstINS_6ArcTplINS_23CompactLatticeWeightTplINS_16LatticeWeightTplIfEEiEEEENS_11VectorStateIS7_SaIS7_EEEEEE5ResetEv
  2730: 000000000059f020    71 FUNC    WEAK   DEFAULT   12 _ZNK5kaldi5nnet323ScaleAndOffsetComponent4CopyEv
  2731: 00000000003ff750   695 FUNC    WEAK   DEFAULT   12 _ZN5kaldi28LatticeIncrementalDecoderTplIN3fst3FstINS1_6ArcTplINS1_17TropicalWeightTplIfEEEEEENS_7decoder16BackpointerTokenEE6DecodeEPNS_18DecodableInterfaceE
  2732: 000000000025ea30   117 FUNC    WEAK   DEFAULT   12 _ZN3fst10MemoryPoolINS_13PoolAllocatorINS_6ArcTplINS_17TropicalWeightTplIfEEEEE2TNILi1EEEED1Ev
  2733: 00000000004e8040    63 FUNC    GLOBAL DEFAULT   12 _ZNK5kaldi5rnnlm17RnnlmComputeState17GetSuccessorStateEi
  2734: 0000000000446e30    89 FUNC    WEAK   DEFAULT   12 _ZNSt6vectorIN5kaldi6VectorIfEESaIS2_EED1Ev
  2735: 000000000029b8c0  1034 FUNC    WEAK   DEFAULT   12 _ZNK3fst3FstINS_6ArcTplINS_16LatticeWeightTplIfEEEEE9WriteFileERKNSt7__cxx1112basic_stringIcSt11char_traitsIcESaIcEEE
  2736: 0000000000251540     3 FUNC    WEAK   DEFAULT   12 _ZNK3fst11MatcherBaseINS_6ArcTplINS_16LatticeWeightTplIfEEEEE5FlagsEv
  2737: 0000000000601760   734 FUNC    GLOBAL DEFAULT   12 _ZN5kaldi5nnet314MatrixExtenderC1EPNS0_15NnetComputationE
  2738: 00000000002c7110  1184 FUNC    WEAK   DEFAULT   12 _ZN3fst16ImplToMutableFstINS_8internal13VectorFstImplINS_11VectorStateINS_10ReverseArcINS_6ArcTplINS_16LatticeWeightTplIfEEEEEESaIS9_EEEEENS_10MutableFstIS9_EEE12DeleteStatesERKSt6vectorIiSaIiEE
  2739: 000000000025ebb0   117 FUNC    WEAK   DEFAULT   12 _ZN3fst10MemoryPoolINS_13PoolAllocatorINS_10ReverseArcINS_6ArcTplINS_16LatticeWeightTplIfEEEEEEE2TNILi64EEEED1Ev
  2740: 000000000028fed0   160 FUNC    WEAK   DEFAULT   12 _ZN3fst8internal14ComposeFstImplINS_17DefaultCacheStoreINS_6ArcTplINS_16LatticeWeightTplIfEEEEEENS_18MatchComposeFilterINS_7MatcherINS_3FstIS6_EEEESC_EENS_24GenericComposeStateTableIS6_NS_18IntegerFilterStateIaEENS_24DefaultComposeStateTupleIiSG_EENS_21CompactHashStateTableISI_NS_11ComposeHashISI_EEEEEEED1Ev
  2741: 000000000059da10    99 FUNC    WEAK   DEFAULT   12 _ZN5kaldi5nnet323ScaleAndOffsetComponentD0Ev
  2742: 000000000035b680   226 FUNC    WEAK   DEFAULT   12 _ZN5kaldi41SingleUtteranceNnet3IncrementalDecoderTplIN3fst13GrammarFstTplIKNS1_8ConstFstINS1_6ArcTplINS1_17TropicalWeightTplIfEEEEjEEEEEC2ERKNS_31LatticeIncrementalDecoderConfigERKNS_15TransitionModelERKNS_5nnet329DecodableNnetSimpleLoopedInfoERKSA_PNS_26OnlineNnet2FeaturePipelineE
  2743: 00000000006b7430   211 FUNC    WEAK   DEFAULT   12 _ZN3fst13FstRegistererINS_8ConstFstINS_6ArcTplINS_17TropicalWeightTplIfEEEEjEEE7ConvertERKNS_3FstIS5_EE
  2744: 0000000000676d40   176 FUNC    WEAK   DEFAULT   12 _ZN5kaldi10VectorBaseIdE7SigmoidERKS1_
  2745: 00000000004563c0  1099 FUNC    GLOBAL DEFAULT   12 _ZN5kaldi12MfccComputerC1ERKNS_11MfccOptionsE
  2746: 00000000005421d0  1361 FUNC    GLOBAL DEFAULT   12 _ZN5kaldi5nnet312NnetComputerC2ERKS1_
  2747: 0000000000324690     1 FUNC    WEAK   DEFAULT   12 _ZNSt23_Sp_counted_ptr_inplaceIN3fst8internal14ComposeFstImplINS0_17DefaultCacheStoreINS0_6ArcTplINS0_17TropicalWeightTplIfEEEEEENS0_20TrivialComposeFilterINS0_7MatcherINS0_3FstIS7_EEEESD_EENS0_24GenericComposeStateTableIS7_NS0_18TrivialFilterStateENS0_24DefaultComposeStateTupleIiSG_EENS0_21CompactHashStateTableISI_NS0_11ComposeHashISI_EEEEEEEESaIvELN9__gnu_cxx12_Lock_policyE2EED2Ev
  2748: 00000000005e2810   900 FUNC    GLOBAL DEFAULT   12 _ZN5kaldi5nnet321HasContiguousPropertyERKSt6vectorIiSaIiEEPS1_ISt4pairIiiESaIS7_EE
  2749: 000000000062fcc0     5 FUNC    WEAK   DEFAULT   12 _ZN5kaldi12CuVectorBaseIdE7CeilingERKS1_dPi
  2750: 0000000000802380    40 OBJECT  WEAK   DEFAULT   21 _ZTVN3fst8internal14MemoryPoolImplILm160EEE
  2751: 000000000062d830    90 FUNC    WEAK   DEFAULT   12 _ZN5kaldi14CuSparseMatrixIfEC2ERKS1_NS_19MatrixTransposeTypeE
  2752: 0000000000253c60     1 FUNC    WEAK   DEFAULT   12 _ZNSt15_Sp_counted_ptrIPN3fst8internal22DeterminizeFstImplBaseINS0_10ReverseArcINS0_6ArcTplINS0_16LatticeWeightTplIfEEEEEEEELN9__gnu_cxx12_Lock_policyE2EED2Ev
  2753: 00000000004c5630   469 FUNC    WEAK   DEFAULT   12 _ZN3fst8internal13CacheBaseImplINS_10CacheStateINS_6ArcTplINS_23CompactLatticeWeightTplINS_16LatticeWeightTplIfEEiEEEENS_13PoolAllocatorIS8_EEEENS_17DefaultCacheStoreIS8_EEEC2ERKNS_16CacheImplOptionsISD_EE
  2754: 0000000000372130   592 FUNC    WEAK   DEFAULT   12 _ZN5kaldi23LatticeFasterDecoderTplIN3fst13GrammarFstTplIKNS1_8ConstFstINS1_6ArcTplINS1_17TropicalWeightTplIfEEEEjEEEENS_7decoder8StdTokenEED1Ev
  2755: 0000000000446a10   350 FUNC    GLOBAL DEFAULT   12 _ZN5kaldi13ReverseFramesERKNS_10MatrixBaseIfEEPNS_6MatrixIfEE
  2756: 00000000004e3a60    85 FUNC    GLOBAL DEFAULT   12 _ZN5kaldi14ArpaFileParserC1ERKNS_16ArpaParseOptionsEPN3fst11SymbolTableE
  2757: 00000000003f8020  1775 FUNC    WEAK   DEFAULT   12 _ZN5kaldi28LatticeIncrementalDecoderTplIN3fst13GrammarFstTplINS1_9VectorFstINS1_6ArcTplINS1_17TropicalWeightTplIfEEEENS1_11VectorStateIS7_SaIS7_EEEEEEENS_7decoder8StdTokenEE15ProcessEmittingEPNS_18DecodableInterfaceE
  2758: 00000000002bb450   322 FUNC    WEAK   DEFAULT   12 _ZNK3fst9ImplToFstINS_8internal13VectorFstImplINS_11VectorStateINS_10ReverseArcINS_6ArcTplINS_16LatticeWeightTplIfEEEEEESaIS9_EEEEENS_10MutableFstIS9_EEE10PropertiesEmb
  2759: 00000000008011d0    56 OBJECT  WEAK   DEFAULT   21 _ZTVSt23_Sp_counted_ptr_inplaceIN3fst8internal13VectorFstImplINS0_11VectorStateINS0_6ArcTplINS0_17TropicalWeightTplIfEEEESaIS7_EEEEESaIvELN9__gnu_cxx12_Lock_policyE2EE
  2760: 0000000000295740  1336 FUNC    WEAK   DEFAULT   12 _ZN3fst16VectorCacheStoreINS_10CacheStateINS_6ArcTplINS_17TropicalWeightTplIfEEEENS_13PoolAllocatorIS5_EEEEEC1ERKNS_12CacheOptionsE
  2761: 0000000000626290    21 FUNC    WEAK   DEFAULT   12 _ZN5kaldi12CuMatrixBaseIfE16CopyLowerToUpperEv
  2762: 00000000003dfe60  2511 FUNC    WEAK   DEFAULT   12 _ZNSt6vectorIN5kaldi28LatticeIncrementalDecoderTplIN3fst13GrammarFstTplINS2_9VectorFstINS2_6ArcTplINS2_17TropicalWeightTplIfEEEENS2_11VectorStateIS8_SaIS8_EEEEEEENS0_7decoder8StdTokenEE9TokenListESaISH_EE17_M_default_appendEm
  2763: 000000000051d630    14 FUNC    WEAK   DEFAULT   12 _ZN5kaldi5nnet318UpdatableComponent13SetAsGradientEv
  2764: 00000000006073a0   153 FUNC    GLOBAL DEFAULT   12 _ZN5kaldi5nnet317ExpandComputationERKNS0_4NnetERKNS0_19MiscComputationInfoERKNS0_15NnetComputationEbiPS7_
  2765: 000000000062ca20     5 FUNC    WEAK   DEFAULT   12 _ZN5kaldi10CuSpMatrixIdE5AddSpEdRKS1_
  2766: 00000000005ba220  1483 FUNC    GLOBAL DEFAULT   12 _ZN5kaldi5nnet323time_height_convolution16ConvolutionModel4ReadERSib
  2767: 0000000000808320    24 OBJECT  WEAK   DEFAULT   21 _ZTIN5kaldi5nnet319LogSoftmaxComponentE
  2768: 0000000000295c80   478 FUNC    WEAK   DEFAULT   12 _ZN3fst8internal13CacheBaseImplINS_10CacheStateINS_6ArcTplINS_17TropicalWeightTplIfEEEENS_13PoolAllocatorIS6_EEEENS_17DefaultCacheStoreIS6_EEEC2ERKNS_16CacheImplOptionsISB_EE
  2769: 00000000003258e0     7 FUNC    WEAK   DEFAULT   12 _ZNK3fst17ComposeFstMatcherINS_17DefaultCacheStoreINS_6ArcTplINS_17TropicalWeightTplIfEEEEEENS_20NoMatchComposeFilterINS_7MatcherINS_3FstIS5_EEEESB_EENS_24GenericComposeStateTableIS5_NS_18TrivialFilterStateENS_24DefaultComposeStateTupleIiSE_EENS_21CompactHashStateTableISG_NS_11ComposeHashISG_EEEEEEE6GetFstEv
  2770: 00000000003d1b10     9 FUNC    WEAK   DEFAULT   12 _ZNK5kaldi28LatticeIncrementalDecoderTplIN3fst3FstINS1_6ArcTplINS1_17TropicalWeightTplIfEEEEEENS_7decoder8StdTokenEE18NumFramesInLatticeEv
  2771: 00000000005f0820    78 FUNC    GLOBAL DEFAULT   12 _ZN5kaldi5nnet319ExampleMergingStats17DiscardedExamplesEimi
  2772: 00000000003b1330     5 FUNC    WEAK   DEFAULT   12 _ZN5kaldi29LatticeFasterOnlineDecoderTplIN3fst13GrammarFstTplIKNS1_8ConstFstINS1_6ArcTplINS1_17TropicalWeightTplIfEEEEjEEEEEC1ERKNS_26LatticeFasterDecoderConfigEPSA_
  2773: 000000000040e0f0     1 FUNC    WEAK   DEFAULT   12 _ZNSt23_Sp_counted_ptr_inplaceIN3fst13GrammarFstTplINS0_9VectorFstINS0_6ArcTplINS0_17TropicalWeightTplIfEEEENS0_11VectorStateIS6_SaIS6_EEEEEE13ExpandedStateESaIvELN9__gnu_cxx12_Lock_policyE2EED1Ev
  2774: 0000000000815230     8 OBJECT  <OS specific>: 10 DEFAULT   25 _ZZN3fst10ReverseArcINS_6ArcTplINS_23CompactLatticeWeightTplINS_16LatticeWeightTplIfEEiEEEEE4TypeB5cxx11EvE4type
  2775: 000000000059d990   113 FUNC    WEAK   DEFAULT   12 _ZN5kaldi5nnet330NaturalGradientAffineComponentD0Ev
  2776: 000000000025ff30   117 FUNC    WEAK   DEFAULT   12 _ZN3fst10MemoryPoolINS_8internal8DfsStateINS_3FstINS_6ArcTplINS_23CompactLatticeWeightTplINS_16LatticeWeightTplIfEEiEEEEEEEEED2Ev
  2777: 000000000059cd50     6 FUNC    WEAK   DEFAULT   12 _ZNK5kaldi5nnet321ClipGradientComponent10PropertiesEv
  2778: 000000000069b730  1183 FUNC    WEAK   DEFAULT   12 _ZN5kaldi8SpMatrixIfE10ApplyFloorERKS1_fb
  2779: 00000000004131a0   406 FUNC    WEAK   DEFAULT   12 _ZNSt6vectorISt4pairIliESaIS1_EE17_M_realloc_insertIJS1_EEEvN9__gnu_cxx17__normal_iteratorIPS1_S3_EEDpOT_
  2780: 0000000000695580     5 FUNC    WEAK   DEFAULT   12 _ZN5kaldi8SpMatrixIfE6ResizeEiNS_16MatrixResizeTypeE
  2781: 0000000000254990   283 FUNC    WEAK   DEFAULT   12 _ZNK3fst17ComposeFstMatcherINS_17DefaultCacheStoreINS_6ArcTplINS_16LatticeWeightTplIfEEEEEENS_20NoMatchComposeFilterINS_7MatcherINS_3FstIS5_EEEESB_EENS_24GenericComposeStateTableIS5_NS_18TrivialFilterStateENS_24DefaultComposeStateTupleIiSE_EENS_21CompactHashStateTableISG_NS_11ComposeHashISG_EEEEEEE4TypeEb
  2782: 000000000062f510     5 FUNC    WEAK   DEFAULT   12 _ZN5kaldi12CuVectorBaseIfE5ScaleEf
  2783: 0000000000301fe0    44 FUNC    WEAK   DEFAULT   12 _ZNSt23_Sp_counted_ptr_inplaceIN3fst9AddOnPairINS0_18LabelReachableDataIiEES3_EESaIvELN9__gnu_cxx12_Lock_policyE2EE10_M_disposeEv
  2784: 0000000000251700     6 FUNC    WEAK   DEFAULT   12 _ZNK3fst8internal15MemoryArenaImplILm40EE4SizeEv
  2785: 0000000000728780    41 OBJECT  WEAK   DEFAULT   14 _ZTSN5kaldi5nnet324GruNonlinearityComponentE
  2786: 00000000002649b0    54 FUNC    WEAK   DEFAULT   12 _ZNSt14__shared_countILN9__gnu_cxx12_Lock_policyE2EEC2ERKS2_
  2787: 000000000062f590     5 FUNC    WEAK   DEFAULT   12 _ZN5kaldi12CuVectorBaseIfE12AddColSumMatEfRKNS_12CuMatrixBaseIfEEf
  2788: 00000000005d06d0   168 FUNC    GLOBAL DEFAULT   12 _ZN5kaldi5nnet325LstmNonlinearityComponent13PerturbParamsEf
  2789: 0000000000327da0   117 FUNC    WEAK   DEFAULT   12 _ZN3fst10MemoryPoolINS_13PoolAllocatorINS_10ReverseArcINS_6ArcTplINS_17TropicalWeightTplIfEEEEEEE2TNILi8EEEED2Ev
  2790: 0000000000648860    25 FUNC    WEAK   DEFAULT   12 _ZN5kaldi10MatrixBaseIfE7RowDataEi
  2791: 0000000000554c60    58 FUNC    GLOBAL DEFAULT   12 _ZN5kaldi5nnet326StatisticsPoolingComponentC1ERKS1_
  2792: 00000000006a3e50    21 FUNC    WEAK   DEFAULT   12 _ZNK5kaldi12SparseVectorIdE4DataEv
  2793: 00000000004ec2b0   152 FUNC    GLOBAL DEFAULT   12 _ZN5kaldi14TotalPosteriorERKSt6vectorIS0_ISt4pairIifESaIS2_EESaIS4_EE
  2794: 0000000000255660    10 FUNC    WEAK   DEFAULT   12 _ZNSt23_Sp_counted_ptr_inplaceIN3fst8internal14ComposeFstImplINS0_17DefaultCacheStoreINS0_6ArcTplINS0_16LatticeWeightTplIfEEEEEENS0_21SequenceComposeFilterINS0_7MatcherINS0_3FstIS7_EEEESD_EENS0_24GenericComposeStateTableIS7_NS0_18IntegerFilterStateIaEENS0_24DefaultComposeStateTupleIiSH_EENS0_21CompactHashStateTableISJ_NS0_11ComposeHashISJ_EEEEEEEESaIvELN9__gnu_cxx12_Lock_policyE2EED0Ev
  2795: 00000000003d3010    65 FUNC    WEAK   DEFAULT   12 _ZN5kaldi28LatticeIncrementalDecoderTplIN3fst13GrammarFstTplINS1_9VectorFstINS1_6ArcTplINS1_17TropicalWeightTplIfEEEENS1_11VectorStateIS7_SaIS7_EEEEEEENS_7decoder16BackpointerTokenEE18DeleteForwardLinksEPSE_
  2796: 0000000000408290   825 FUNC    WEAK   DEFAULT   12 _ZNK5kaldi34LatticeIncrementalOnlineDecoderTplIN3fst3FstINS1_6ArcTplINS1_17TropicalWeightTplIfEEEEEEE11BestPathEndEbPf
  2797: 0000000000253b80     1 FUNC    WEAK   DEFAULT   12 _ZN3fst13StateIteratorINS_10ComposeFstINS_6ArcTplINS_16LatticeWeightTplIfEEEENS_17DefaultCacheStoreIS5_EEEEED2Ev
  2798: 0000000000573380   109 FUNC    GLOBAL DEFAULT   12 _ZN5kaldi5nnet318BatchNormComponent5ScaleEf
  2799: 0000000000381700   443 FUNC    WEAK   DEFAULT   12 _ZNSt8__detail9_Map_baseIPN5kaldi7decoder8StdTokenESt4pairIKS4_iESaIS7_ENS_10_Select1stESt8equal_toIS4_ESt4hashIS4_ENS_18_Mod_range_hashingENS_20_Default_ranged_hashENS_20_Prime_rehash_policyENS_17_Hashtable_traitsILb0ELb0ELb1EEELb1EEixERS6_
  2800: 00000000007fea38    24 OBJECT  WEAK   DEFAULT   21 _ZTIN3fst8internal14MemoryPoolImplILm160EEE
  2801: 000000000026eca0    42 FUNC    WEAK   DEFAULT   12 _ZN3fst8internal15MemoryArenaImplILm520EED0Ev
  2802: 00000000002f6390  2482 FUNC    GLOBAL DEFAULT   12 _ZN5ModelD2Ev
  2803: 0000000000444370    96 FUNC    GLOBAL DEFAULT   12 _ZNK5kaldi17VectorClusterable7ReadNewERSib
  2804: 000000000059e080   134 FUNC    WEAK   DEFAULT   12 _ZNK5kaldi5nnet323ScaleAndOffsetComponent4TypeB5cxx11Ev
  2805: 00000000007fe338    24 OBJECT  WEAK   DEFAULT   21 _ZTIN3fst8internal14ComposeFstImplINS_17DefaultCacheStoreINS_6ArcTplINS_16LatticeWeightTplIfEEEEEENS_20NoMatchComposeFilterINS_7MatcherINS_3FstIS6_EEEESC_EENS_24GenericComposeStateTableIS6_NS_18TrivialFilterStateENS_24DefaultComposeStateTupleIiSF_EENS_21CompactHashStateTableISH_NS_11ComposeHashISH_EEEEEEEE
  2806: 00000000003d5540   623 FUNC    WEAK   DEFAULT   12 _ZN5kaldi28LatticeIncrementalDecoderTplIN3fst13GrammarFstTplINS1_9VectorFstINS1_6ArcTplINS1_17TropicalWeightTplIfEEEENS1_11VectorStateIS7_SaIS7_EEEEEEENS_7decoder8StdTokenEE17PruneActiveTokensEf
  2807: 000000000069c4d0   622 FUNC    WEAK   DEFAULT   12 _ZN5kaldi8SpMatrixIfE8ApplyPowEf
  2808: 0000000000629560    39 FUNC    WEAK   DEFAULT   12 _ZN5kaldi12CuMatrixBaseIdE3RowEi
  2809: 0000000000352660   172 FUNC    WEAK   DEFAULT   12 _ZN5kaldi22OnlineFeatureInterface9GetFramesERKSt6vectorIiSaIiEEPNS_10MatrixBaseIfEE
  2810: 0000000000385630   107 FUNC    WEAK   DEFAULT   12 _ZNK5kaldi23LatticeFasterDecoderTplIN3fst3FstINS1_6ArcTplINS1_17TropicalWeightTplIfEEEEEENS_7decoder8StdTokenEE12ReachedFinalEv
  2811: 0000000000443ce0   133 FUNC    GLOBAL DEFAULT   12 _ZN5kaldi16GaussClusterable3SubERKNS_11ClusterableE
  2812: 0000000000543ac0  1292 FUNC    WEAK   DEFAULT   12 _ZSt16__do_uninit_copyIN9__gnu_cxx17__normal_iteratorIPKN5kaldi5nnet317CommandAttributesESt6vectorIS4_SaIS4_EEEEPS4_ET0_T_SD_SC_
  2813: 0000000000727400    35 OBJECT  WEAK   DEFAULT   14 _ZTSN5kaldi5nnet318UpdatableComponentE
  2814: 000000000059cf30    10 FUNC    WEAK   DEFAULT   12 _ZN5kaldi5nnet316DropoutComponentD0Ev
  2815: 00000000005705d0    39 FUNC    WEAK   DEFAULT   12 _ZNSt6vectorIPN5kaldi5nnet313SumDescriptorESaIS3_EED1Ev
  2816: 0000000000278440   666 FUNC    WEAK   DEFAULT   12 _ZNSt5dequeIN3fst19LatticeDeterminizerINS0_16LatticeWeightTplIfEEiE7ElementESaIS5_EE16_M_push_back_auxIJRKS5_EEEvDpOT_
  2817: 0000000000627680     5 FUNC    WEAK   DEFAULT   12 _ZN5kaldi12CuMatrixBaseIdE10GroupPnormERKS1_d
  2818: 000000000055fa90     1 FUNC    WEAK   DEFAULT   12 _ZN5kaldi5nnet320DropoutMaskComponentD2Ev
  2819: 0000000000806928    40 OBJECT  WEAK   DEFAULT   21 _ZTVN3fst8internal14MemoryPoolImplILm88EEE
  2820: 0000000000815450     8 OBJECT  <OS specific>: 10 DEFAULT   25 _ZZN12FlagRegisterIdE11GetRegisterEvE3reg
  2821: 0000000000721480   197 OBJECT  WEAK   DEFAULT   14 _ZTSSt23_Sp_counted_ptr_inplaceIN3fst8internal9AddOnImplINS0_8ConstFstINS0_6ArcTplINS0_17TropicalWeightTplIfEEEEjEENS0_9AddOnPairINS0_18LabelReachableDataIiEESB_EEEESaIvELN9__gnu_cxx12_Lock_policyE2EE
  2822: 000000000028f100  1490 FUNC    WEAK   DEFAULT   12 _ZN3fst13PoolAllocatorINS_6ArcTplINS_16LatticeWeightTplIfEEEEE10deallocateEPS4_m
  2823: 0000000000802b58    24 OBJECT  WEAK   DEFAULT   21 _ZTISt15_Sp_counted_ptrIPN3fst8internal12ConstFstImplINS0_6ArcTplINS0_17TropicalWeightTplIfEEEEjEELN9__gnu_cxx12_Lock_policyE2EE
  2824: 00000000003eced0   366 FUNC    WEAK   DEFAULT   12 _ZN5kaldi28LatticeIncrementalDecoderTplIN3fst8ConstFstINS1_6ArcTplINS1_17TropicalWeightTplIfEEEEjEENS_7decoder8StdTokenEE16FinalizeDecodingEv
  2825: 00000000006f8620   197 FUNC    WEAK   DEFAULT   12 _ZNSt6vectorIjSaIjEE7reserveEm
  2826: 0000000000624f20     8 FUNC    WEAK   DEFAULT   12 _ZN5kaldi12CuMatrixBaseIfE8ApplyExpEv
  2827: 00000000003d5020   916 FUNC    WEAK   DEFAULT   12 _ZN5kaldi28LatticeIncrementalDecoderTplIN3fst13GrammarFstTplINS1_9VectorFstINS1_6ArcTplINS1_17TropicalWeightTplIfEEEENS1_11VectorStateIS7_SaIS7_EEEEEEENS_7decoder8StdTokenEE17PruneForwardLinksEiPbSG_f
  2828: 0000000000465880  1024 FUNC    WEAK   DEFAULT   12 _ZN3fst25LatticeDeterminizerPrunedINS_16LatticeWeightTplIfEEiE12ProcessFinalEi
  2829: 000000000062fa70     6 FUNC    WEAK   DEFAULT   12 _ZNK5kaldi12CuVectorBaseIdE4DataEv
  2830: 0000000000445450    42 FUNC    WEAK   DEFAULT   12 _ZN5kaldi16GaussClusterableD0Ev
  2831: 0000000000399570  1765 FUNC    WEAK   DEFAULT   12 _ZN5kaldi23LatticeFasterDecoderTplIN3fst13GrammarFstTplIKNS1_8ConstFstINS1_6ArcTplINS1_17TropicalWeightTplIfEEEEjEEEENS_7decoder16BackpointerTokenEE13TopSortTokensEPSC_PSt6vectorISE_SaISE_EE
  2832: 00000000006292c0   259 FUNC    WEAK   DEFAULT   12 _ZN5kaldi8CuMatrixIdEC1ERKNS_13CuBlockMatrixIdEENS_19MatrixTransposeTypeE
  2833: 0000000000264040   464 FUNC    WEAK   DEFAULT   12 _ZN3fst8internal13VectorFstImplINS_11VectorStateINS_6ArcTplINS_23CompactLatticeWeightTplINS_16LatticeWeightTplIfEEiEEEESaIS8_EEEED1Ev
  2834: 0000000000253b60     1 FUNC    WEAK   DEFAULT   12 _ZN3fst18MutableArcIteratorINS_9VectorFstINS_10ReverseArcINS_6ArcTplINS_16LatticeWeightTplIfEEEEEENS_11VectorStateIS7_SaIS7_EEEEEED2Ev
  2835: 000000000034fd30   424 FUNC    GLOBAL DEFAULT   12 _ZN5kaldi22OnlineSilenceWeighting19GetNonsilenceFramesEiiPSt6vectorIiSaIiEE
  2836: 000000000064faf0  1392 FUNC    WEAK   DEFAULT   12 _ZN5kaldi10MatrixBaseIfE15GroupPnormDerivERKS1_S3_f
  2837: 0000000000301f90    80 FUNC    WEAK   DEFAULT   12 _ZN3fst8NGramFstINS_6ArcTplINS_17TropicalWeightTplIfEEEEED2Ev
  2838: 000000000062c920     5 FUNC    WEAK   DEFAULT   12 _ZN5kaldi10CuSpMatrixIdE10CopyFromSpERKS1_
  2839: 0000000000294be0   245 FUNC    WEAK   DEFAULT   12 _ZN3fst8internal14ComposeFstImplINS_17DefaultCacheStoreINS_6ArcTplINS_17TropicalWeightTplIfEEEEEENS_21SequenceComposeFilterINS_7MatcherINS_3FstIS6_EEEESC_EENS_24GenericComposeStateTableIS6_NS_18IntegerFilterStateIaEENS_24DefaultComposeStateTupleIiSG_EENS_21CompactHashStateTableISI_NS_11ComposeHashISI_EEEEEEED2Ev
  2840: 0000000000627540     5 FUNC    WEAK   DEFAULT   12 _ZN5kaldi12CuMatrixBaseIdE10ExpSpecialERKS1_
  2841: 0000000000325ae0    17 FUNC    WEAK   DEFAULT   12 _ZNK3fst17ComposeFstMatcherINS_17DefaultCacheStoreINS_6ArcTplINS_17TropicalWeightTplIfEEEEEENS_20TrivialComposeFilterINS_7MatcherINS_3FstIS5_EEEESB_EENS_24GenericComposeStateTableIS5_NS_18TrivialFilterStateENS_24DefaultComposeStateTupleIiSE_EENS_21CompactHashStateTableISG_NS_11ComposeHashISG_EEEEEEE5ValueEv
  2842: 000000000071b6a0   383 OBJECT  WEAK   DEFAULT   14 _ZTSSt23_Sp_counted_ptr_inplaceIN3fst8internal14ComposeFstImplINS0_17DefaultCacheStoreINS0_6ArcTplINS0_17TropicalWeightTplIfEEEEEENS0_21SequenceComposeFilterINS0_7MatcherINS0_3FstIS7_EEEESD_EENS0_24GenericComposeStateTableIS7_NS0_18IntegerFilterStateIaEENS0_24DefaultComposeStateTupleIiSH_EENS0_21CompactHashStateTableISJ_NS0_11ComposeHashISJ_EEEEEEEESaIvELN9__gnu_cxx12_Lock_policyE2EE
  2843: 000000000059d870    46 FUNC    WEAK   DEFAULT   12 _ZN5kaldi5nnet317SumGroupComponentD0Ev
  2844: 0000000000470ed0   317 FUNC    WEAK   DEFAULT   12 _ZN3fst7TopSortINS_6ArcTplINS_16LatticeWeightTplIfEEEEEEbPNS_10MutableFstIT_EE
  2845: 0000000000807148   288 OBJECT  WEAK   DEFAULT   21 _ZTVN5kaldi5nnet330TimeHeightConvolutionComponentE
  2846: 00000000003373d0  1833 FUNC    WEAK   DEFAULT   12 _ZN3fst8internal14ComposeFstImplINS_17DefaultCacheStoreINS_6ArcTplINS_17TropicalWeightTplIfEEEEEENS_20TrivialComposeFilterINS_7MatcherINS_3FstIS6_EEEESC_EENS_24GenericComposeStateTableIS6_NS_18TrivialFilterStateENS_24DefaultComposeStateTupleIiSF_EENS_21CompactHashStateTableISH_NS_11ComposeHashISH_EEEEEEEC1ISC_SC_EERKSB_SQ_RKNS_21ComposeFstImplOptionsIT_T0_SD_SM_S7_EE
  2847: 000000000029bcd0     5 FUNC    WEAK   DEFAULT   12 _ZNK3fst9VectorFstINS_6ArcTplINS_16LatticeWeightTplIfEEEENS_11VectorStateIS4_SaIS4_EEEE5WriteERKNSt7__cxx1112basic_stringIcSt11char_traitsIcESaIcEEE
  2848: 000000000071c960    40 OBJECT  WEAK   DEFAULT   14 _ZTSN3fst8internal14MemoryPoolImplILm512EEE
  2849: 000000000054b1f0    10 FUNC    GLOBAL DEFAULT   12 _ZNK5kaldi5nnet326OffsetForwardingDescriptor19GetNodeDependenciesEPSt6vectorIiSaIiEE
  2850: 000000000062cc10    10 FUNC    WEAK   DEFAULT   12 _ZN5kaldi14CuSparseMatrixIdE12CopyFromSmatIdEEvRKNS_12SparseMatrixIT_EE
  2851: 00000000003d93b0   135 FUNC    WEAK   DEFAULT   12 _ZNSt10_HashtableIPN5kaldi7decoder8StdTokenESt4pairIKS3_lESaIS6_ENSt8__detail10_Select1stESt8equal_toIS3_ESt4hashIS3_ENS8_18_Mod_range_hashingENS8_20_Default_ranged_hashENS8_20_Prime_rehash_policyENS8_17_Hashtable_traitsILb0ELb0ELb1EEEED2Ev
  2852: 000000000055fc00    42 FUNC    WEAK   DEFAULT   12 _ZN5kaldi5nnet345BackpropTruncationComponentPrecomputedIndexesD0Ev
  2853: 00000000002d5dd0  2111 FUNC    WEAK   DEFAULT   12 _ZN3fst12GCCacheStoreINS_15FirstCacheStoreINS_16VectorCacheStoreINS_10CacheStateINS_6ArcTplINS_16LatticeWeightTplIfEEEENS_13PoolAllocatorIS7_EEEEEEEEE2GCEPKSA_bf
  2854: 0000000000804958    56 OBJECT  WEAK   DEFAULT   21 _ZTVSt15_Sp_counted_ptrIPN3fst8internal13VectorFstImplINS0_11VectorStateINS0_6ArcTplINS0_17TropicalWeightTplIfEEEESaIS7_EEEEELN9__gnu_cxx12_Lock_policyE2EE
  2855: 00000000002dd290   749 FUNC    WEAK   DEFAULT   12 _ZN3fst8internal14ComposeFstImplINS_17DefaultCacheStoreINS_6ArcTplINS_17TropicalWeightTplIfEEEEEENS_21SequenceComposeFilterINS_7MatcherINS_3FstIS6_EEEESC_EENS_24GenericComposeStateTableIS6_NS_18IntegerFilterStateIaEENS_24DefaultComposeStateTupleIiSG_EENS_21CompactHashStateTableISI_NS_11ComposeHashISI_EEEEEEE6ExpandEi
  2856: 00000000008005a0    80 OBJECT  WEAK   DEFAULT   21 _ZTVN3fst13TopOrderQueueIiEE
  2857: 00000000004ec100   427 FUNC    GLOBAL DEFAULT   12 _ZN5kaldi14ScalePosteriorEfPSt6vectorIS0_ISt4pairIifESaIS2_EESaIS4_EE
  2858: 0000000000444ad0   467 FUNC    GLOBAL DEFAULT   12 _ZNK5kaldi17VectorClusterable4ObjfEv
  2859: 000000000025e2b0   117 FUNC    WEAK   DEFAULT   12 _ZN3fst10MemoryPoolINS_8internal8DfsStateINS_3FstINS_10ReverseArcINS_6ArcTplINS_23CompactLatticeWeightTplINS_16LatticeWeightTplIfEEiEEEEEEEEEEED2Ev
  2860: 00000000002a9b10 11141 FUNC    WEAK   DEFAULT   12 _ZN3fst9AutoQueueIiEC2INS_6ArcTplINS_23CompactLatticeWeightTplINS_16LatticeWeightTplIfEEiEEEENS_16EpsilonArcFilterIS8_EEEERKNS_3FstIT_EEPKSt6vectorINSC_6WeightESaISH_EET0_
  2861: 0000000000803980   128 OBJECT  WEAK   DEFAULT   21 _ZTVN3fst17ComposeFstMatcherINS_17DefaultCacheStoreINS_6ArcTplINS_17TropicalWeightTplIfEEEEEENS_17NullComposeFilterINS_7MatcherINS_3FstIS5_EEEESB_EENS_24GenericComposeStateTableIS5_NS_18TrivialFilterStateENS_24DefaultComposeStateTupleIiSE_EENS_21CompactHashStateTableISG_NS_11ComposeHashISG_EEEEEEEE
  2862: 00000000005819a0    33 FUNC    GLOBAL DEFAULT   12 _ZN5kaldi5nnet324PerElementScaleComponent5ScaleEf
  2863: 00000000006b2990   453 FUNC    WEAK   DEFAULT   12 _ZNK5kaldi20SplitRadixComplexFftIdE7ComputeEPdS2_b
  2864: 0000000000804d60    40 OBJECT  WEAK   DEFAULT   21 _ZTVN3fst10MemoryPoolIN5kaldi7decoder8StdTokenEEE
  2865: 000000000055baf0   553 FUNC    GLOBAL DEFAULT   12 _ZNK5kaldi5nnet341GeneralDropoutComponentPrecomputedIndexes5WriteERSob
  2866: 0000000000592b80   368 FUNC    GLOBAL DEFAULT   12 _ZN5kaldi5nnet314PnormComponent4ReadERSib
  2867: 000000000031d910     5 FUNC    GLOBAL DEFAULT   12 vosk_recognizer_reset
  2868: 00000000006b8600   109 FUNC    GLOBAL DEFAULT   12 _ZN5kaldi6OutputD2Ev
  2869: 00000000007279e0    36 OBJECT  WEAK   DEFAULT   14 _ZTSN5kaldi5nnet319DistributeComponentE
  2870: 00000000008067c0    40 OBJECT  WEAK   DEFAULT   21 _ZTVN3fst8internal15MemoryArenaImplILm200EEE
  2871: 0000000000629d00    25 FUNC    WEAK   DEFAULT   12 _ZN5kaldi12CuMatrixBaseIdEC1EPdiii
  2872: 000000000065ef20     1 FUNC    WEAK   DEFAULT   12 _ZN5kaldi9SubMatrixIfED2Ev
  2873: 0000000000672d90    35 FUNC    WEAK   DEFAULT   12 _ZN5kaldi6VectorIdE7DestroyEv
  2874: 00000000003352f0   201 FUNC    WEAK   DEFAULT   12 _ZNSt23_Sp_counted_ptr_inplaceIN3fst8internal14ComposeFstImplINS0_17DefaultCacheStoreINS0_6ArcTplINS0_17TropicalWeightTplIfEEEEEENS0_24AltSequenceComposeFilterINS0_7MatcherINS0_3FstIS7_EEEESD_EENS0_24GenericComposeStateTableIS7_NS0_18IntegerFilterStateIaEENS0_24DefaultComposeStateTupleIiSH_EENS0_21CompactHashStateTableISJ_NS0_11ComposeHashISJ_EEEEEEEESaIvELN9__gnu_cxx12_Lock_policyE2EE10_M_disposeEv
  2875: 000000000025e6b0   117 FUNC    WEAK   DEFAULT   12 _ZN3fst10MemoryPoolINS_11ArcIteratorINS_3FstINS_6ArcTplINS_16LatticeWeightTplIfEEEEEEEEED2Ev
  2876: 0000000000253b10     1 FUNC    WEAK   DEFAULT   12 _ZN3fst18MutableArcIteratorINS_9VectorFstINS_10ReverseArcINS_6ArcTplINS_23CompactLatticeWeightTplINS_16LatticeWeightTplIfEEiEEEEEENS_11VectorStateIS9_SaIS9_EEEEEED2Ev
  2877: 000000000051f200    93 FUNC    GLOBAL DEFAULT   12 _ZN5kaldi5nnet323ComputationGraphBuilderC1ERKNS0_4NnetEPNS0_16ComputationGraphE
  2878: 000000000052ecd0    53 FUNC    GLOBAL DEFAULT   12 _ZN5kaldi5nnet315NnetComputation15MatrixDebugInfo4SwapEPS2_
  2879: 0000000000716b60   184 OBJECT  WEAK   DEFAULT   14 _ZTSSt15_Sp_counted_ptrIPN3fst8internal18ComposeFstImplBaseINS0_6ArcTplINS0_17TropicalWeightTplIfEEEENS0_17DefaultCacheStoreIS6_EENS0_10ComposeFstIS6_S8_EEEELN9__gnu_cxx12_Lock_policyE2EE
  2880: 000000000061cad0   719 FUNC    WEAK   DEFAULT   12 _ZN5kaldi2cu13EnsureNonzeroIfEEvRKNS_12CuMatrixBaseIT_EES3_PS4_
  2881: 0000000000654010     6 FUNC    WEAK   DEFAULT   12 _ZNK5kaldi10MatrixBaseIdE4DataEv
  2882: 0000000000296cd0  1889 FUNC    WEAK   DEFAULT   12 _ZN3fst8internal14ComposeFstImplINS_17DefaultCacheStoreINS_6ArcTplINS_17TropicalWeightTplIfEEEEEENS_23PushLabelsComposeFilterINS_24PushWeightsComposeFilterINS_22LookAheadComposeFilterINS_21SequenceComposeFilterINS_16LookAheadMatcherINS_3FstIS6_EEEESF_EESF_SF_LNS_9MatchTypeE3EEESF_SF_LSH_3EEESF_SF_LSH_3EEENS_24GenericComposeStateTableIS6_NS_15PairFilterStateINSM_INS_18IntegerFilterStateIaEENS_17WeightFilterStateIS5_EEEENSN_IiEEEENS_24DefaultComposeStateTupleIiST_EENS_21CompactHashStateTableISV_NS_11ComposeHashISV_EEEEEEEC2ISF_SF_EERKSE_S14_RKNS_21ComposeFstImplOptionsIT_T0_SK_S10_S7_EE
  2883: 0000000000654830   665 FUNC    WEAK   DEFAULT   12 _ZN5kaldi6MatrixIdEC1ERKNS_10MatrixBaseIdEENS_19MatrixTransposeTypeE
  2884: 00000000007279c0    32 OBJECT  WEAK   DEFAULT   14 _ZTSN5kaldi5nnet315RandomComponentE
  2885: 0000000000326090   146 FUNC    WEAK   DEFAULT   12 _ZNK3fst8internal14ComposeFstImplINS_17DefaultCacheStoreINS_6ArcTplINS_17TropicalWeightTplIfEEEEEENS_17NullComposeFilterINS_7MatcherINS_3FstIS6_EEEESC_EENS_24GenericComposeStateTableIS6_NS_18TrivialFilterStateENS_24DefaultComposeStateTupleIiSF_EENS_21CompactHashStateTableISH_NS_11ComposeHashISH_EEEEEEE10PropertiesEm
  2886: 00000000003dc640  1253 FUNC    WEAK   DEFAULT   12 _ZN5kaldi28LatticeIncrementalDecoderTplIN3fst13GrammarFstTplINS1_9VectorFstINS1_6ArcTplINS1_17TropicalWeightTplIfEEEENS1_11VectorStateIS7_SaIS7_EEEEEEENS_7decoder8StdTokenEE9GetCutoffEPNS_8HashListIlPSE_E4ElemEPmPfPSK_
  2887: 000000000064b900    19 FUNC    WEAK   DEFAULT   12 _ZN5kaldi10MatrixBaseIfE11CopyFromMatERKNS_16CompressedMatrixE
  2888: 00000000006f45e0   501 FUNC    WEAK   DEFAULT   12 _ZNSt6vectorIlSaIlEE17_M_default_appendEm
  2889: 0000000000268890   249 FUNC    WEAK   DEFAULT   12 _ZN3fst8internal21ShortestDistanceStateINS_6ArcTplINS_23CompactLatticeWeightTplINS_16LatticeWeightTplIfEEiEEEENS_9AutoQueueIiEENS_16EpsilonArcFilterIS7_EENS_17WeightApproxEqualEED1Ev
  2890: 00000000006b4260    49 FUNC    WEAK   DEFAULT   12 _ZN5kaldi8TpMatrixIdEC2ERKS1_
  2891: 00000000005e5cd0   754 FUNC    GLOBAL DEFAULT   12 _ZN5kaldi5nnet315NnetComputeProbD2Ev
  2892: 0000000000265c50   113 FUNC    WEAK   DEFAULT   12 _ZNSt6vectorIS_IdSaIdEESaIS1_EED1Ev
  2893: 000000000043bf20  2467 FUNC    GLOBAL DEFAULT   12 _ZN5kaldi14RefineClustersERKSt6vectorIPNS_11ClusterableESaIS2_EEPS4_PS0_IiSaIiEENS_21RefineClustersOptionsE
  2894: 00000000005855f0    45 FUNC    GLOBAL DEFAULT   12 _ZN5kaldi5nnet316DropoutComponentC2ERKS1_
  2895: 0000000000805550    24 OBJECT  WEAK   DEFAULT   21 _ZTIN5kaldi18OnlineSpliceFramesE
  2896: 00000000005164e0   451 FUNC    WEAK   DEFAULT   12 _ZNSt6vectorIN5kaldi5nnet315NnetComputation15MatrixDebugInfoESaIS3_EE17_M_default_appendEm
  2897: 00000000003b2630   825 FUNC    WEAK   DEFAULT   12 _ZNK5kaldi29LatticeFasterOnlineDecoderTplIN3fst13GrammarFstTplIKNS1_8ConstFstINS1_6ArcTplINS1_17TropicalWeightTplIfEEEEjEEEEE11BestPathEndEbPf
  2898: 0000000000806538    40 OBJECT  WEAK   DEFAULT   21 _ZTVN3fst10MemoryPoolINS_11ArcIteratorINS_3FstINS_6ArcTplINS_23CompactLatticeWeightTplINS_16LatticeWeightTplIfEEiEEEEEEEEEE
  2899: 0000000000716ea0    40 OBJECT  WEAK   DEFAULT   14 _ZTSN3fst8internal15MemoryArenaImplILm32EEE
  2900: 0000000000327740   168 FUNC    WEAK   DEFAULT   12 _ZNK3fst8internal14ComposeFstImplINS_17DefaultCacheStoreINS_6ArcTplINS_17TropicalWeightTplIfEEEEEENS_17NullComposeFilterINS_7MatcherINS_3FstIS6_EEEESC_EENS_24GenericComposeStateTableIS6_NS_18TrivialFilterStateENS_24DefaultComposeStateTupleIiSF_EENS_21CompactHashStateTableISH_NS_11ComposeHashISH_EEEEEEE10PropertiesEv
  2901: 00000000005824a0     9 FUNC    GLOBAL DEFAULT   12 _ZNK5kaldi5nnet325ConstantFunctionComponent9VectorizeEPNS_10VectorBaseIfEE
  2902: 00000000006243a0     5 FUNC    WEAK   DEFAULT   12 _ZN5kaldi12CuMatrixBaseIfE3LogERKS1_
  2903: 00000000005d1da0  1188 FUNC    GLOBAL DEFAULT   12 _ZNK5kaldi5nnet324GruNonlinearityComponent9PropagateEPKNS0_27ComponentPrecomputedIndexesERKNS_12CuMatrixBaseIfEEPS6_
  2904: 0000000000244fd0   718 FUNC    GLOBAL DEFAULT   12 _ZN10RecognizerC1EP5ModelfPKc
  2905: 0000000000258280   107 FUNC    WEAK   DEFAULT   12 _ZNSt23_Sp_counted_ptr_inplaceIN3fst20MemoryPoolCollectionESaIvELN9__gnu_cxx12_Lock_policyE2EE10_M_disposeEv
  2906: 0000000000353110    39 FUNC    WEAK   DEFAULT   12 _ZNSt6vectorISt4pairIifESaIS1_EED2Ev
  2907: 00000000007fd758    64 OBJECT  WEAK   DEFAULT   21 _ZTVN3fst18CacheStateIteratorINS_10ComposeFstINS_6ArcTplINS_17TropicalWeightTplIfEEEENS_17DefaultCacheStoreIS5_EEEEEE
  2908: 0000000000582f50    46 FUNC    GLOBAL DEFAULT   12 _ZNK5kaldi5nnet316SoftmaxComponent9PropagateEPKNS0_27ComponentPrecomputedIndexesERKNS_12CuMatrixBaseIfEEPS6_
  2909: 000000000026edc0    42 FUNC    WEAK   DEFAULT   12 _ZN3fst8internal15MemoryArenaImplILm264EED0Ev
  2910: 0000000000442ea0   406 FUNC    WEAK   DEFAULT   12 _ZNSt6vectorISt4pairIfPN5kaldi13TreeClusterer4NodeEESaIS5_EE17_M_realloc_insertIJS5_EEEvN9__gnu_cxx17__normal_iteratorIPS5_S7_EEDpOT_
  2911: 000000000059d720   123 FUNC    WEAK   DEFAULT   12 _ZNK5kaldi5nnet325ConstantFunctionComponent10PropertiesEv
  2912: 000000000031d860    19 FUNC    GLOBAL DEFAULT   12 vosk_recognizer_set_endpointer_delays
  2913: 000000000062cea0     7 FUNC    WEAK   DEFAULT   12 _ZN5kaldi14CuSparseMatrixIfE6CsrValEv
  2914: 0000000000628af0     5 FUNC    WEAK   DEFAULT   12 _ZN5kaldi12CuMatrixBaseIdE17AddMatMatElementsEdRKS1_S3_d
  2915: 0000000000505900     9 FUNC    WEAK   DEFAULT   12 _ZNK5kaldi5nnet327DecodableAmNnetSimpleLooped14NumFramesReadyEv
  2916: 00000000002517a0     1 FUNC    WEAK   DEFAULT   12 _ZNSt23_Sp_counted_ptr_inplaceIN3fst8internal14ComposeFstImplINS0_17DefaultCacheStoreINS0_6ArcTplINS0_17TropicalWeightTplIfEEEEEENS0_23PushLabelsComposeFilterINS0_24PushWeightsComposeFilterINS0_22LookAheadComposeFilterINS0_24AltSequenceComposeFilterINS0_16LookAheadMatcherINS0_3FstIS7_EEEESG_EESG_SG_LNS0_9MatchTypeE3EEESG_SG_LSI_3EEESG_SG_LSI_3EEENS0_24GenericComposeStateTableIS7_NS0_15PairFilterStateINSN_INS0_18IntegerFilterStateIaEENS0_17WeightFilterStateIS6_EEEENSO_IiEEEENS0_24DefaultComposeStateTupleIiSU_EENS0_21CompactHashStateTableISW_NS0_11ComposeHashISW_EEEEEEEESaIvELN9__gnu_cxx12_Lock_policyE2EED1Ev
  2917: 00000000003545d0   435 FUNC    WEAK   DEFAULT   12 _ZNSt6vectorIN5kaldi22OnlineSilenceWeighting9FrameInfoESaIS2_EE17_M_default_appendEm
  2918: 000000000032df90   415 FUNC    WEAK   DEFAULT   12 _ZNSt6vectorIN3fst17TropicalWeightTplIfEESaIS2_EE17_M_realloc_insertIJS2_EEEvN9__gnu_cxx17__normal_iteratorIPS2_S4_EEDpOT_
  2919: 00000000005f92c0   618 FUNC    WEAK   DEFAULT   12 _ZSt22__move_median_to_firstIN9__gnu_cxx17__normal_iteratorIPSt6vectorIiSaIiEES2_IS4_SaIS4_EEEENS0_5__ops15_Iter_less_iterEEvT_SB_SB_SB_T0_
  2920: 0000000000407560   559 FUNC    WEAK   DEFAULT   12 _ZN3fst14TestPropertiesINS_6ArcTplINS_23CompactLatticeWeightTplINS_16LatticeWeightTplIfEEiEEEEEEmRKNS_3FstIT_EEmPm
  2921: 0000000000804db0    40 OBJECT  WEAK   DEFAULT   21 _ZTVN3fst10MemoryPoolIN5kaldi7decoder16BackpointerTokenEEE
  2922: 00000000006253a0  1505 FUNC    WEAK   DEFAULT   12 _ZN5kaldi12CuMatrixBaseIfE11AddMatBlockEfRKS1_NS_19MatrixTransposeTypeERKNS_13CuBlockMatrixIfEES4_f
  2923: 0000000000542ad0   680 FUNC    WEAK   DEFAULT   12 _ZNSt6vectorIN5kaldi8CuMatrixIfEESaIS2_EE17_M_default_appendEm
  2924: 00000000006896a0    93 FUNC    WEAK   DEFAULT   12 _ZNK5kaldi12PackedMatrixIfE3MaxEv
  2925: 0000000000718920    69 OBJECT  WEAK   DEFAULT   14 _ZTSN3fst3FstINS_10ReverseArcINS_6ArcTplINS_16LatticeWeightTplIfEEEEEEEE
  2926: 0000000000296cd0  1889 FUNC    WEAK   DEFAULT   12 _ZN3fst8internal14ComposeFstImplINS_17DefaultCacheStoreINS_6ArcTplINS_17TropicalWeightTplIfEEEEEENS_23PushLabelsComposeFilterINS_24PushWeightsComposeFilterINS_22LookAheadComposeFilterINS_21SequenceComposeFilterINS_16LookAheadMatcherINS_3FstIS6_EEEESF_EESF_SF_LNS_9MatchTypeE3EEESF_SF_LSH_3EEESF_SF_LSH_3EEENS_24GenericComposeStateTableIS6_NS_15PairFilterStateINSM_INS_18IntegerFilterStateIaEENS_17WeightFilterStateIS5_EEEENSN_IiEEEENS_24DefaultComposeStateTupleIiST_EENS_21CompactHashStateTableISV_NS_11ComposeHashISV_EEEEEEEC1ISF_SF_EERKSE_S14_RKNS_21ComposeFstImplOptionsIT_T0_SK_S10_S7_EE
  2927: 00000000006f6550    45 FUNC    GLOBAL DEFAULT   12 _ZN3fst11CheckSummerC2Ev
  2928: 00000000005f8ba0   187 FUNC    WEAK   DEFAULT   12 _ZN5kaldi5nnet36NnetIoD1Ev
  2929: 0000000000722ee0   128 OBJECT  WEAK   DEFAULT   14 _ZTSSt23_Sp_counted_ptr_inplaceIN3fst13StringPrinterINS0_6ArcTplINS0_17TropicalWeightTplIfEEEEEESaIvELN9__gnu_cxx12_Lock_policyE2EE
  2930: 00000000006488e0    34 FUNC    WEAK   DEFAULT   12 _ZNK5kaldi10MatrixBaseIfEclEii
  2931: 0000000000292270  1578 FUNC    WEAK   DEFAULT   12 _ZN3fst8internal14ComposeFstImplINS_17DefaultCacheStoreINS_6ArcTplINS_16LatticeWeightTplIfEEEEEENS_22LookAheadComposeFilterINS_21SequenceComposeFilterINS_16LookAheadMatcherINS_3FstIS6_EEEESD_EESD_SD_LNS_9MatchTypeE3EEENS_24GenericComposeStateTableIS6_NS_18IntegerFilterStateIaEENS_24DefaultComposeStateTupleIiSJ_EENS_21CompactHashStateTableISL_NS_11ComposeHashISL_EEEEEEEC2ISD_SD_EERKSC_SU_RKNS_21ComposeFstImplOptionsIT_T0_SG_SQ_S7_EE
  2932: 00000000006316e0    42 FUNC    GLOBAL DEFAULT   12 _ZN5kaldi11CuArrayBaseIiE8SequenceEi
  2933: 000000000025e3b0   117 FUNC    WEAK   DEFAULT   12 _ZN3fst10MemoryPoolINS_13PoolAllocatorIPNSt8__detail15_Hash_node_baseEE2TNILi2EEEED2Ev
  2934: 00000000007227a0   153 OBJECT  WEAK   DEFAULT   14 _ZTSN3fst9ImplToFstINS_8internal13VectorFstImplINS_11VectorStateINS_10ReverseArcINS_6ArcTplINS_17TropicalWeightTplIfEEEEEESaIS9_EEEEENS_10MutableFstIS9_EEEE
  2935: 000000000065e520   525 FUNC    WEAK   DEFAULT   12 _ZN5kaldi10MatrixBaseIdE8AddMatTpEdRKS1_NS_19MatrixTransposeTypeERKNS_8TpMatrixIdEES4_d
  2936: 000000000025feb0   117 FUNC    WEAK   DEFAULT   12 _ZN3fst10MemoryPoolINS_13PoolAllocatorINS_10CacheStateINS_6ArcTplINS_17TropicalWeightTplIfEEEENS1_IS6_EEEEE2TNILi1EEEED1Ev
  2937: 00000000006a3e20    16 FUNC    WEAK   DEFAULT   12 _ZNK5kaldi12SparseVectorIdE10GetElementEi
  2938: 00000000008077c8    24 OBJECT  WEAK   DEFAULT   21 _ZTIN5kaldi5nnet320DropoutMaskComponentE
  2939: 00000000002fdd60   229 FUNC    WEAK   DEFAULT   12 _ZNSt23_Sp_counted_ptr_inplaceIN3fst18LabelReachableDataIiEESaIvELN9__gnu_cxx12_Lock_policyE2EE10_M_disposeEv
  2940: 0000000000724640   125 OBJECT  WEAK   DEFAULT   14 _ZTSN3fst8internal14RandGenFstImplINS_6ArcTplINS_16LatticeWeightTplIfEEEES5_NS_10ArcSamplerIS5_NS_18UniformArcSelectorIS5_EEEEEE
  2941: 00000000007fd030    24 OBJECT  WEAK   DEFAULT   21 _ZTIN3fst13StateIteratorINS_9ArcMapFstINS_6ArcTplINS_17TropicalWeightTplIfEEEENS2_INS_16LatticeWeightTplIfEEEENS_18StdToLatticeMapperIfEEEEEE
  2942: 000000000062ff80   115 FUNC    WEAK   DEFAULT   12 _ZN5kaldi12CuVectorBaseIdE11DivElementsERKS1_
  2943: 0000000000375730  1253 FUNC    WEAK   DEFAULT   12 _ZN5kaldi23LatticeFasterDecoderTplIN3fst13GrammarFstTplIKNS1_8ConstFstINS1_6ArcTplINS1_17TropicalWeightTplIfEEEEjEEEENS_7decoder8StdTokenEE9GetCutoffEPNS_8HashListIlPSC_E4ElemEPmPfPSI_
  2944: 00000000007272e0    46 OBJECT  WEAK   DEFAULT   14 _ZTSN5kaldi5nnet329DecodableNnetLoopedOnlineBaseE
  2945: 0000000000261e50   214 FUNC    WEAK   DEFAULT   12 _ZNK3fst9VectorFstINS_10ReverseArcINS_6ArcTplINS_23CompactLatticeWeightTplINS_16LatticeWeightTplIfEEiEEEEEENS_11VectorStateIS8_SaIS8_EEEE4CopyEb
  2946: 00000000003261e0    10 FUNC    WEAK   DEFAULT   12 _ZNSt23_Sp_counted_ptr_inplaceIN3fst8internal14ComposeFstImplINS0_17DefaultCacheStoreINS0_6ArcTplINS0_17TropicalWeightTplIfEEEEEENS0_20NoMatchComposeFilterINS0_7MatcherINS0_3FstIS7_EEEESD_EENS0_24GenericComposeStateTableIS7_NS0_18TrivialFilterStateENS0_24DefaultComposeStateTupleIiSG_EENS0_21CompactHashStateTableISI_NS0_11ComposeHashISI_EEEEEEEESaIvELN9__gnu_cxx12_Lock_policyE2EE10_M_destroyEv
  2947: 0000000000455d30  1062 FUNC    GLOBAL DEFAULT   12 _ZN5kaldi12MfccComputer11GetMelBanksEf
  2948: 00000000004e1210   277 FUNC    WEAK   DEFAULT   12 _ZN5kaldi27ConstArpaLmDeterministicFstD1Ev
  2949: 00000000006ce790   375 FUNC    WEAK   DEFAULT   12 _ZNSt8_Rb_treeINSt7__cxx1112basic_stringIcSt11char_traitsIcESaIcEEESt4pairIKS5_PjESt10_Select1stIS9_ESt4lessIS5_ESaIS9_EE24_M_get_insert_unique_posERS7_
  2950: 00000000005954d0   137 FUNC    GLOBAL DEFAULT   12 _ZNK5kaldi5nnet320BlockAffineComponent5WriteERSob
  2951: 0000000000579310  1901 FUNC    GLOBAL DEFAULT   12 _ZN5kaldi5nnet323ConsolidateIoOperationsERKNS0_4NnetEPNS0_15NnetComputationE
  2952: 0000000000629d20   473 FUNC    WEAK   DEFAULT   12 _ZN5kaldi12CuMatrixBaseIfE18CopyFromGeneralMatERKNS_13GeneralMatrixENS_19MatrixTransposeTypeE
  2953: 000000000071a6c0   151 OBJECT  WEAK   DEFAULT   14 _ZTSN3fst8internal17VectorFstBaseImplINS_11VectorStateINS_10ReverseArcINS_6ArcTplINS_23CompactLatticeWeightTplINS_16LatticeWeightTplIfEEiEEEEEESaISA_EEEEE
  2954: 000000000026c160    78 FUNC    WEAK   DEFAULT   12 _ZN3fst4HeapIiNS_8internal12PruneCompareIiNS_23CompactLatticeWeightTplINS_16LatticeWeightTplIfEEiEEEEED1Ev
  2955: 00000000003b1a60   423 FUNC    WEAK   DEFAULT   12 _ZNK5kaldi29LatticeFasterOnlineDecoderTplIN3fst13GrammarFstTplINS1_9VectorFstINS1_6ArcTplINS1_17TropicalWeightTplIfEEEENS1_11VectorStateIS7_SaIS7_EEEEEEEE17TraceBackBestPathENSD_16BestPathIteratorEPNS4_INS1_16LatticeWeightTplIfEEEE
  2956: 00000000002d3340   304 FUNC    WEAK   DEFAULT   12 _ZN3fst8internal14ComposeFstImplINS_17DefaultCacheStoreINS_6ArcTplINS_17TropicalWeightTplIfEEEEEENS_23PushLabelsComposeFilterINS_24PushWeightsComposeFilterINS_22LookAheadComposeFilterINS_24AltSequenceComposeFilterINS_16LookAheadMatcherINS_3FstIS6_EEEESF_EESF_SF_LNS_9MatchTypeE3EEESF_SF_LSH_3EEESF_SF_LSH_3EEENS_24GenericComposeStateTableIS6_NS_15PairFilterStateINSM_INS_18IntegerFilterStateIaEENS_17WeightFilterStateIS5_EEEENSN_IiEEEENS_24DefaultComposeStateTupleIiST_EENS_21CompactHashStateTableISV_NS_11ComposeHashISV_EEEEEEE12ComputeStartEv
  2957: 00000000002e8060   494 FUNC    WEAK   DEFAULT   12 _ZNK3fst8internal14ComposeFstImplINS_17DefaultCacheStoreINS_6ArcTplINS_16LatticeWeightTplIfEEEEEENS_18MatchComposeFilterINS_7MatcherINS_3FstIS6_EEEESC_EENS_24GenericComposeStateTableIS6_NS_18IntegerFilterStateIaEENS_24DefaultComposeStateTupleIiSG_EENS_21CompactHashStateTableISI_NS_11ComposeHashISI_EEEEEEE4CopyEv
  2958: 00000000003e5810   783 FUNC    WEAK   DEFAULT   12 _ZN5kaldi28LatticeIncrementalDecoderTplIN3fst13GrammarFstTplIKNS1_8ConstFstINS1_6ArcTplINS1_17TropicalWeightTplIfEEEEjEEEENS_7decoder8StdTokenEEC1ERKNS_31LatticeIncrementalDecoderConfigEPSA_RKNS_21TransitionInformationE
  2959: 0000000000609750   944 FUNC    GLOBAL DEFAULT   12 _ZN5kaldi5nnet321ComputationRenumberer19RenumberSubmatricesEv
  2960: 000000000038ee40  1307 FUNC    WEAK   DEFAULT   12 _ZN5kaldi23LatticeFasterDecoderTplIN3fst8ConstFstINS1_6ArcTplINS1_17TropicalWeightTplIfEEEEjEENS_7decoder16BackpointerTokenEE22PruneForwardLinksFinalEv
  2961: 000000000052b510    39 FUNC    WEAK   DEFAULT   12 _ZNSt6vectorISt4pairIiN5kaldi5nnet35IndexEESaIS4_EED1Ev
  2962: 0000000000625370     5 FUNC    WEAK   DEFAULT   12 _ZN5kaldi12CuMatrixBaseIfE15SetMatMatDivMatERKS1_S3_S3_
  2963: 0000000000269050   187 FUNC    WEAK   DEFAULT   12 _ZN3fst10SccVisitorINS_6ArcTplINS_23CompactLatticeWeightTplINS_16LatticeWeightTplIfEEiEEEEED2Ev
  2964: 0000000000339d90   389 FUNC    WEAK   DEFAULT   12 _ZNSt6vectorIPN3fst8internal21DeterminizeStateTupleINS0_10ReverseArcINS0_6ArcTplINS0_17TropicalWeightTplIfEEEEEENS0_18IntegerFilterStateIaEEEESaISC_EE17_M_realloc_insertIJRKSC_EEEvN9__gnu_cxx17__normal_iteratorIPSC_SE_EEDpOT_
  2965: 0000000000254f70    70 FUNC    WEAK   DEFAULT   12 _ZNK3fst17ComposeFstMatcherINS_17DefaultCacheStoreINS_6ArcTplINS_17TropicalWeightTplIfEEEEEENS_21SequenceComposeFilterINS_7MatcherINS_3FstIS5_EEEESB_EENS_24GenericComposeStateTableIS5_NS_18IntegerFilterStateIaEENS_24DefaultComposeStateTupleIiSF_EENS_21CompactHashStateTableISH_NS_11ComposeHashISH_EEEEEEE4DoneEv
  2966: 0000000000724500   138 OBJECT  WEAK   DEFAULT   14 _ZTSN3fst18CacheStateIteratorINS_10RandGenFstINS_6ArcTplINS_16LatticeWeightTplIfEEEES5_NS_10ArcSamplerIS5_NS_18UniformArcSelectorIS5_EEEEEEEE
  2967: 00000000006282d0     5 FUNC    WEAK   DEFAULT   12 _ZN5kaldi12CuMatrixBaseIdE3MinERKS1_
  2968: 000000000026df50   351 FUNC    WEAK   DEFAULT   12 _ZN3fst18LookAheadMatchTypeINS_16LookAheadMatcherINS_3FstINS_6ArcTplINS_17TropicalWeightTplIfEEEEEEEES8_EENS_9MatchTypeERKT_RKT0_
  2969: 0000000000621280   574 FUNC    WEAK   DEFAULT   12 _ZN5kaldi8CuMatrixIdEC2IfEERKNS_10MatrixBaseIT_EENS_19MatrixTransposeTypeE
  2970: 00000000006ee330   221 FUNC    GLOBAL DEFAULT   12 _ZNK3fst8internal20ConstSymbolTableImpl4CopyEv
  2971: 000000000059b900  1253 FUNC    GLOBAL DEFAULT   12 _ZN5kaldi5nnet317SumGroupComponent4InitERKSt6vectorIiSaIiEE
  2972: 0000000000728740    36 OBJECT  WEAK   DEFAULT   14 _ZTSN5kaldi5nnet319MaxpoolingComponentE
  2973: 0000000000269f90    80 FUNC    WEAK   DEFAULT   12 _ZN3fst13StateIteratorINS_3FstINS_6ArcTplINS_17TropicalWeightTplIfEEEEEEEC2ERKS6_
  2974: 000000000037eeb0   804 FUNC    WEAK   DEFAULT   12 _ZN5kaldi23LatticeFasterDecoderTplIN3fst13GrammarFstTplIKNS1_8ConstFstINS1_6ArcTplINS1_17TropicalWeightTplIfEEEEjEEEENS_7decoder8StdTokenEEC2ERKNS_26LatticeFasterDecoderConfigEPSA_
  2975: 0000000000667680   287 FUNC    WEAK   DEFAULT   12 _ZNK5kaldi10MatrixBaseIfE4CondEv
  2976: 00000000007fe050    24 OBJECT  WEAK   DEFAULT   21 _ZTIN3fst8internal17VectorFstBaseImplINS_11VectorStateINS_10ReverseArcINS_6ArcTplINS_16LatticeWeightTplIfEEEEEESaIS8_EEEEE
  2977: 000000000055fac0     1 FUNC    WEAK   DEFAULT   12 _ZN5kaldi5nnet319DistributeComponentD2Ev
  2978: 00000000006309e0   171 FUNC    WEAK   DEFAULT   12 _ZN5kaldi8CuVectorIdEC2ERKNS_12CuVectorBaseIdEE
  2979: 0000000000238c70   243 FUNC    GLOBAL DEFAULT   12 _ZN10Recognizer11SetSpkModelEP8SpkModel
  2980: 0000000000544140    10 FUNC    GLOBAL DEFAULT   12 _ZNK5kaldi5nnet330TimeHeightConvolutionComponent9OutputDimEv
  2981: 0000000000726640   483 OBJECT  WEAK   DEFAULT   14 _ZTSSt23_Sp_counted_ptr_inplaceIN3fst8internal14ComposeFstImplINS0_17DefaultCacheStoreINS0_6ArcTplINS0_23CompactLatticeWeightTplINS0_16LatticeWeightTplIfEEiEEEEEENS0_22LookAheadComposeFilterINS0_24AltSequenceComposeFilterINS0_16LookAheadMatcherINS0_3FstIS9_EEEESG_EESG_SG_LNS0_9MatchTypeE3EEENS0_24GenericComposeStateTableIS9_NS0_18IntegerFilterStateIaEENS0_24DefaultComposeStateTupleIiSM_EENS0_21CompactHashStateTableISO_NS0_11ComposeHashISO_EEEEEEEESaIvELN9__gnu_cxx12_Lock_policyE2EE
  2982: 0000000000370c80    39 FUNC    WEAK   DEFAULT   12 _ZNSt6vectorIN5kaldi23LatticeFasterDecoderTplIN3fst8ConstFstINS2_6ArcTplINS2_17TropicalWeightTplIfEEEEjEENS0_7decoder8StdTokenEE9TokenListESaISC_EED2Ev
  2983: 000000000059cd10     6 FUNC    WEAK   DEFAULT   12 _ZNK5kaldi5nnet317SumBlockComponent8InputDimEv
  2984: 00000000003028c0   315 FUNC    WEAK   DEFAULT   12 _ZNSt10unique_ptrIN3fst8internal15SymbolTableImplESt14default_deleteIS2_EED1Ev
  2985: 0000000000803780   128 OBJECT  WEAK   DEFAULT   21 _ZTVN3fst17ComposeFstMatcherINS_17DefaultCacheStoreINS_6ArcTplINS_17TropicalWeightTplIfEEEEEENS_20TrivialComposeFilterINS_7MatcherINS_3FstIS5_EEEESB_EENS_24GenericComposeStateTableIS5_NS_18TrivialFilterStateENS_24DefaultComposeStateTupleIiSE_EENS_21CompactHashStateTableISG_NS_11ComposeHashISG_EEEEEEEE
  2986: 00000000003c0530   123 FUNC    WEAK   DEFAULT   12 _ZN3fst13PoolAllocatorINS_10ReverseArcINS_6ArcTplINS_16LatticeWeightTplIfEEEEEEED2Ev
  2987: 000000000053cd50   293 FUNC    WEAK   DEFAULT   12 _ZSt16__do_uninit_copyIN9__gnu_cxx17__normal_iteratorIPKSt6vectorIiSaIiEES2_IS4_SaIS4_EEEEPS4_ET0_T_SC_SB_
  2988: 0000000000585660    18 FUNC    GLOBAL DEFAULT   12 _ZN5kaldi5nnet316DropoutComponent4InitEifb
  2989: 0000000000653ff0    21 FUNC    WEAK   DEFAULT   12 _ZNK5kaldi10MatrixBaseIdE11SizeInBytesEv
  2990: 0000000000727be0    34 OBJECT  WEAK   DEFAULT   14 _ZTSN5kaldi5nnet317ConstantComponentE
