
Symbol table '.dynsym' contains 3985 entries:
   Num:    Value          Size Type    Bind   Vis      Ndx Name
     0: 0000000000000000     0 NOTYPE  LOCAL  DEFAULT  UND 
     1: 0000000000000000     0 FUNC    GLOBAL DEFAULT  UND _ZN5kaldi8CuMatrixIfEC1IfEERKNS_10MatrixBaseIT_EENS_19MatrixTransposeTypeE
     2: 0000000000000000     0 FUNC    GLOBAL DEFAULT  UND _ZN5kaldi10VectorBaseIfE5ScaleEf
     3: 0000000000000000     0 FUNC    GLOBAL DEFAULT  UND _ZSt7getlineIcSt11char_traitsIcESaIcEERSt13basic_istreamIT_T0_ES7_RNSt7__cxx1112basic_stringIS4_S5_T1_EES4_@GLIBCXX_3.4.21 (2)
     4: 0000000000000000     0 FUNC    GLOBAL DEFAULT  UND strdup@GLIBC_2.2.5 (3)
     5: 0000000000000000     0 FUNC    GLOBAL DEFAULT  UND _ZN5kaldi26OnlineNnet2FeaturePipeline13InputFinishedEv
     6: 0000000000000000     0 FUNC    GLOBAL DEFAULT  UND _ZNK3fst11BitmapIndex8Select0sEm
     7: 0000000000000000     0 FUNC    GLOBAL DEFAULT  UND _ZNSt14basic_ifstreamIcSt11char_traitsIcEED1Ev@GLIBCXX_3.4 (4)
     8: 0000000000000000     0 FUNC    GLOBAL DEFAULT  UND _ZSt24__throw_out_of_range_fmtPKcz@GLIBCXX_3.4.20 (5)
     9: 0000000000000000     0 FUNC    GLOBAL DEFAULT  UND _ZSt19__throw_logic_errorPKc@GLIBCXX_3.4 (4)
    10: 0000000000000000     0 FUNC    GLOBAL DEFAULT  UND __cxa_begin_catch@CXXABI_1.3 (6)
    11: 0000000000000000     0 FUNC    GLOBAL DEFAULT  UND _ZN5kaldi12PackedMatrixIdE7DestroyEv
    12: 0000000000000000     0 FUNC    GLOBAL DEFAULT  UND memcpy@GLIBC_2.14 (7)
    13: 0000000000000000     0 FUNC    GLOBAL DEFAULT  UND _ZN5kaldi27OnlineIvectorExtractionInfo4InitERKNS_29OnlineIvectorExtractionConfigE
    14: 0000000000000000     0 FUNC    GLOBAL DEFAULT  UND _ZSt17__throw_bad_allocv@GLIBCXX_3.4 (4)
    15: 0000000000000000     0 FUNC    GLOBAL DEFAULT  UND _ZN3fst21ConvertToLegalCSymbolEPNSt7__cxx1112basic_stringIcSt11char_traitsIcESaIcEEE
    16: 0000000000000000     0 FUNC    GLOBAL DEFAULT  UND stat@GLIBC_2.33 (8)
    17: 0000000000000000     0 FUNC    GLOBAL DEFAULT  UND _ZN5kaldi23WordAlignLatticePartialERKN3fst9VectorFstINS0_6ArcTplINS0_23CompactLatticeWeightTplINS0_16LatticeWeightTplIfEEiEEEENS0_11VectorStateIS7_SaIS7_EEEEERKNS_21TransitionInformationERKNS_16WordBoundaryInfoEiPSB_
    18: 0000000000000000     0 FUNC    GLOBAL DEFAULT  UND _ZN5kaldi15TransitionModel4ReadERSib
    19: 0000000000000000     0 FUNC    GLOBAL DEFAULT  UND _ZdlPvm@CXXABI_1.3.9 (9)
    20: 0000000000000000     0 NOTYPE  WEAK   DEFAULT  UND _ITM_deregisterTMCloneTable
    21: 0000000000000000     0 FUNC    GLOBAL DEFAULT  UND _ZN5kaldi5nnet312NnetComputerC1ERKNS0_18NnetComputeOptionsERKNS0_15NnetComputationERKNS0_4NnetEPS8_
    22: 0000000000000000     0 FUNC    GLOBAL DEFAULT  UND _ZNK5kaldi5nnet34Nnet8InputDimERKNSt7__cxx1112basic_stringIcSt11char_traitsIcESaIcEEE
    23: 0000000000000000     0 FUNC    GLOBAL DEFAULT  UND _ZN3fst10AlignInputERSi
    24: 0000000000000000     0 FUNC    GLOBAL DEFAULT  UND exp@GLIBC_2.29 (10)
    25: 0000000000000000     0 FUNC    GLOBAL DEFAULT  UND _ZNSt14basic_ofstreamIcSt11char_traitsIcEEC1ERKNSt7__cxx1112basic_stringIcS1_SaIcEEESt13_Ios_Openmode@GLIBCXX_3.4.21 (2)
    26: 0000000000000000     0 FUNC    GLOBAL DEFAULT  UND _Znwm@GLIBCXX_3.4 (4)
    27: 0000000000000000     0 FUNC    GLOBAL DEFAULT  UND memmove@GLIBC_2.2.5 (3)
    28: 0000000000000000     0 FUNC    GLOBAL DEFAULT  UND _ZN5kaldi6VectorIfE4ReadERSibb
    29: 0000000000000000     0 FUNC    GLOBAL DEFAULT  UND _ZSt24__throw_invalid_argumentPKc@GLIBCXX_3.4 (4)
    30: 0000000000000000     0 FUNC    GLOBAL DEFAULT  UND __assert_fail@GLIBC_2.2.5 (3)
    31: 0000000000000000     0 FUNC    GLOBAL DEFAULT  UND log@GLIBC_2.29 (10)
    32: 0000000000000000     0 FUNC    WEAK   DEFAULT  UND __cxa_finalize@GLIBC_2.2.5 (3)
    33: 0000000000000000     0 FUNC    GLOBAL DEFAULT  UND _ZNSo5tellpEv@GLIBCXX_3.4 (4)
    34: 0000000000000000     0 FUNC    GLOBAL DEFAULT  UND _ZN5kaldi5nnet312AmNnetSimple4ReadERSib
    35: 0000000000000000     0 FUNC    GLOBAL DEFAULT  UND _ZNSt13basic_filebufIcSt11char_traitsIcEE5closeEv@GLIBCXX_3.4 (4)
    36: 0000000000000000     0 FUNC    GLOBAL DEFAULT  UND _ZNK3fst11BitmapIndex7Select1Em
    37: 0000000000000000     0 FUNC    GLOBAL DEFAULT  UND _ZNSt8__detail15_List_node_base7_M_hookEPS0_@GLIBCXX_3.4.15 (11)
    38: 0000000000000000     0 FUNC    GLOBAL DEFAULT  UND __vsnprintf_chk@GLIBC_2.3.4 (12)
    39: 0000000000000000     0 FUNC    GLOBAL DEFAULT  UND _ZN3fst9FstHeader4ReadERSiRKNSt7__cxx1112basic_stringIcSt11char_traitsIcESaIcEEEb
    40: 0000000000000000     0 FUNC    GLOBAL DEFAULT  UND _ZN3fst19RmEpsilonPropertiesEmb
    41: 0000000000000000     0 FUNC    GLOBAL DEFAULT  UND _ZN5kaldi11ConstArpaLm4ReadERSib
    42: 0000000000000000     0 FUNC    GLOBAL DEFAULT  UND _ZN5kaldi5nnet34Nnet7DestroyEv
    43: 0000000000000000     0 FUNC    GLOBAL DEFAULT  UND pthread_mutex_unlock@GLIBC_2.2.5 (3)
    44: 0000000000000000     0 FUNC    GLOBAL DEFAULT  UND _ZNSt13runtime_errorC2ERKNSt7__cxx1112basic_stringIcSt11char_traitsIcESaIcEEE@GLIBCXX_3.4.21 (2)
    45: 0000000000000000     0 OBJECT  GLOBAL DEFAULT  UND _Z25FLAGS_save_relabel_ipairsB5cxx11
    46: 0000000000000000     0 OBJECT  GLOBAL DEFAULT  UND _ZTVN5kaldi12ParseOptionsE
    47: 0000000000000000     0 FUNC    GLOBAL DEFAULT  UND _ZN5kaldi5nnet329DecodableNnetSimpleLoopedInfoC1ERKNS0_34NnetSimpleLoopedComputationOptionsEPNS0_12AmNnetSimpleE
    48: 0000000000000000     0 FUNC    GLOBAL DEFAULT  UND _ZNK5kaldi13MessageLogger10LogMessageEv
    49: 0000000000000000     0 OBJECT  GLOBAL DEFAULT  UND _ZTVNSt7__cxx1115basic_stringbufIcSt11char_traitsIcESaIcEEE@GLIBCXX_3.4.21 (2)
    50: 0000000000000000     0 FUNC    GLOBAL DEFAULT  UND _ZN5kaldi41SingleUtteranceNnet3IncrementalDecoderTplIN3fst3FstINS1_6ArcTplINS1_17TropicalWeightTplIfEEEEEEE12InitDecodingEi
    51: 0000000000000000     0 FUNC    GLOBAL DEFAULT  UND _ZN5kaldi6MatrixIfE6ResizeEiiNS_16MatrixResizeTypeENS_16MatrixStrideTypeE
    52: 0000000000000000     0 FUNC    GLOBAL DEFAULT  UND pthread_mutex_lock@GLIBC_2.2.5 (3)
    53: 0000000000000000     0 OBJECT  GLOBAL DEFAULT  UND _ZN3fst25olabel_lookahead_fst_typeE
    54: 0000000000000000     0 FUNC    GLOBAL DEFAULT  UND _ZN3fst11BitmapIndex10BuildIndexEPKmmbb
    55: 0000000000000000     0 FUNC    GLOBAL DEFAULT  UND __stack_chk_fail@GLIBC_2.4 (13)
    56: 0000000000000000     0 FUNC    GLOBAL DEFAULT  UND _ZNK3fst8internal14DenseSymbolMap4FindESt17basic_string_viewIcSt11char_traitsIcEE
    57: 0000000000000000     0 FUNC    GLOBAL DEFAULT  UND _ZNSt7__cxx1118basic_stringstreamIcSt11char_traitsIcESaIcEEC1Ev@GLIBCXX_3.4.26 (14)
    58: 0000000000000000     0 FUNC    GLOBAL DEFAULT  UND memset@GLIBC_2.2.5 (3)
    59: 0000000000000000     0 FUNC    GLOBAL DEFAULT  UND _ZNSt7__cxx1115basic_stringbufIcSt11char_traitsIcESaIcEE7_M_syncEPcmm@GLIBCXX_3.4.21 (2)
    60: 0000000000000000     0 FUNC    GLOBAL DEFAULT  UND _ZNSolsEi@GLIBCXX_3.4 (4)
    61: 0000000000000000     0 FUNC    GLOBAL DEFAULT  UND _ZN5kaldi5nnet313CollapseModelERKNS0_19CollapseModelConfigEPNS0_4NnetE
    62: 0000000000000000     0 FUNC    GLOBAL DEFAULT  UND _ZSt16__throw_bad_castv@GLIBCXX_3.4 (4)
    63: 0000000000000000     0 FUNC    GLOBAL DEFAULT  UND _ZN5kaldi16WordAlignLatticeERKN3fst9VectorFstINS0_6ArcTplINS0_23CompactLatticeWeightTplINS0_16LatticeWeightTplIfEEiEEEENS0_11VectorStateIS7_SaIS7_EEEEERKNS_21TransitionInformationERKNS_16WordBoundaryInfoEiPSB_
    64: 0000000000000000     0 FUNC    GLOBAL DEFAULT  UND _ZNSt7__cxx1112basic_stringIcSt11char_traitsIcESaIcEE6appendEPKcm@GLIBCXX_3.4.21 (2)
    65: 0000000000000000     0 FUNC    GLOBAL DEFAULT  UND __cxa_guard_acquire@CXXABI_1.3 (6)
    66: 0000000000000000     0 FUNC    GLOBAL DEFAULT  UND _ZN5kaldi12ParseOptions8RegisterERKNSt7__cxx1112basic_stringIcSt11char_traitsIcESaIcEEEPfS8_
    67: 0000000000000000     0 FUNC    GLOBAL DEFAULT  UND pow@GLIBC_2.29 (10)
    68: 0000000000000000     0 OBJECT  GLOBAL DEFAULT  UND _ZTVN5kaldi5nnet329DecodableNnetLoopedOnlineBaseE
    69: 0000000000000000     0 OBJECT  GLOBAL DEFAULT  UND _ZTTSt14basic_ofstreamIcSt11char_traitsIcEE@GLIBCXX_3.4 (4)
    70: 0000000000000000     0 FUNC    GLOBAL DEFAULT  UND _ZN5kaldi12ParseOptions4ReadEiPKPKc
    71: 0000000000000000     0 FUNC    GLOBAL DEFAULT  UND _ZN5kaldi8CuVectorIfE7DestroyEv
    72: 0000000000000000     0 FUNC    GLOBAL DEFAULT  UND _ZNK3fst11BitmapIndex5Rank1Em
    73: 0000000000000000     0 OBJECT  GLOBAL DEFAULT  UND _ZTVN10__cxxabiv117__class_type_infoE@CXXABI_1.3 (6)
    74: 0000000000000000     0 OBJECT  GLOBAL DEFAULT  UND _ZTVNSt7__cxx1119basic_ostringstreamIcSt11char_traitsIcESaIcEEE@GLIBCXX_3.4.21 (2)
    75: 0000000000000000     0 FUNC    GLOBAL DEFAULT  UND _ZNSt9basic_iosIcSt11char_traitsIcEE4initEPSt15basic_streambufIcS1_E@GLIBCXX_3.4 (4)
    76: 0000000000000000     0 FUNC    GLOBAL DEFAULT  UND _ZdaPv@GLIBCXX_3.4 (4)
    77: 0000000000000000     0 FUNC    GLOBAL DEFAULT  UND __isoc23_strtoll@GLIBC_2.38 (15)
    78: 0000000000000000     0 FUNC    GLOBAL DEFAULT  UND _ZNSo9_M_insertIlEERSoT_@GLIBCXX_3.4.9 (16)
    79: 0000000000000000     0 FUNC    GLOBAL DEFAULT  UND _ZN5kaldi5nnet310Descriptor7DestroyEv
    80: 0000000000000000     0 FUNC    GLOBAL DEFAULT  UND _ZN5kaldi12ParseOptions8RegisterERKNSt7__cxx1112basic_stringIcSt11char_traitsIcESaIcEEEPiS8_
    81: 0000000000000000     0 FUNC    GLOBAL DEFAULT  UND _ZNSt7__cxx1118basic_stringstreamIcSt11char_traitsIcESaIcEED1Ev@GLIBCXX_3.4.21 (2)
    82: 0000000000000000     0 FUNC    GLOBAL DEFAULT  UND _ZN5kaldi28LatticeIncrementalDecoderTplIN3fst3FstINS1_6ArcTplINS1_17TropicalWeightTplIfEEEEEENS_7decoder16BackpointerTokenEE10GetLatticeEib
    83: 0000000000000000     0 FUNC    GLOBAL DEFAULT  UND __cxa_allocate_exception@CXXABI_1.3 (6)
    84: 0000000000000000     0 FUNC    GLOBAL DEFAULT  UND _ZNKSt7__cxx1115basic_stringbufIcSt11char_traitsIcESaIcEE3strEv@GLIBCXX_3.4.21 (2)
    85: 0000000000000000     0 NOTYPE  WEAK   DEFAULT  UND __gmon_start__
    86: 0000000000000000     0 FUNC    GLOBAL DEFAULT  UND strlen@GLIBC_2.2.5 (3)
    87: 0000000000000000     0 FUNC    GLOBAL DEFAULT  UND _ZNSo9_M_insertIbEERSoT_@GLIBCXX_3.4.9 (16)
    88: 0000000000000000     0 FUNC    GLOBAL DEFAULT  UND _ZN5kaldi12ParseOptions14ReadConfigFileERKNSt7__cxx1112basic_stringIcSt11char_traitsIcESaIcEEE
    89: 0000000000000000     0 FUNC    GLOBAL DEFAULT  UND _ZSt20__throw_system_errori@GLIBCXX_3.4.11 (17)
    90: 0000000000000000     0 FUNC    GLOBAL DEFAULT  UND __cxa_guard_abort@CXXABI_1.3 (6)
    91: 0000000000000000     0 FUNC    GLOBAL DEFAULT  UND _ZN5kaldi26OnlineNnet2FeaturePipelineC1ERKNS_30OnlineNnet2FeaturePipelineInfoE
    92: 0000000000000000     0 FUNC    GLOBAL DEFAULT  UND _ZNSt13runtime_errorD2Ev@GLIBCXX_3.4 (4)
    93: 0000000000000000     0 OBJECT  GLOBAL DEFAULT  UND _ZSt4cout@GLIBCXX_3.4 (4)
    94: 0000000000000000     0 FUNC    GLOBAL DEFAULT  UND _ZN3fst10MappedFile3MapEPSibRKNSt7__cxx1112basic_stringIcSt11char_traitsIcESaIcEEEm
    95: 0000000000000000     0 FUNC    GLOBAL DEFAULT  UND _ZN5kaldi6VectorIfE7DestroyEv
    96: 0000000000000000     0 FUNC    GLOBAL DEFAULT  UND _ZSt28__throw_bad_array_new_lengthv@GLIBCXX_3.4.29 (18)
    97: 0000000000000000     0 FUNC    GLOBAL DEFAULT  UND _Znam@GLIBCXX_3.4 (4)
    98: 0000000000000000     0 FUNC    GLOBAL DEFAULT  UND _ZNSo9_M_insertIPKvEERSoT_@GLIBCXX_3.4.9 (16)
    99: 0000000000000000     0 FUNC    GLOBAL DEFAULT  UND _ZNKSt5ctypeIcE13_M_widen_initEv@GLIBCXX_3.4.11 (17)
   100: 0000000000000000     0 FUNC    GLOBAL DEFAULT  UND _ZNSi4readEPcl@GLIBCXX_3.4 (4)
   101: 0000000000000000     0 FUNC    GLOBAL DEFAULT  UND _ZSt18_Rb_tree_decrementPSt18_Rb_tree_node_base@GLIBCXX_3.4 (4)
   102: 0000000000000000     0 FUNC    GLOBAL DEFAULT  UND _ZNSo5writeEPKcl@GLIBCXX_3.4 (4)
   103: 0000000000000000     0 FUNC    GLOBAL DEFAULT  UND sqrt@GLIBC_2.2.5 (19)
   104: 0000000000000000     0 FUNC    GLOBAL DEFAULT  UND _ZN3fst17ReversePropertiesEmb
   105: 0000000000000000     0 FUNC    GLOBAL DEFAULT  UND _ZNSo5flushEv@GLIBCXX_3.4 (4)
   106: 0000000000000000     0 OBJECT  GLOBAL DEFAULT  UND _ZN5kaldi21g_kaldi_verbose_levelE
   107: 0000000000000000     0 FUNC    GLOBAL DEFAULT  UND _ZNSt7__cxx1112basic_stringIcSt11char_traitsIcESaIcEE10_M_replaceEmmPKcm@GLIBCXX_3.4.21 (2)
   108: 0000000000000000     0 FUNC    GLOBAL DEFAULT  UND _ZNSo9_M_insertImEERSoT_@GLIBCXX_3.4.9 (16)
   109: 0000000000000000     0 FUNC    GLOBAL DEFAULT  UND _ZN5kaldi5nnet315IoSpecification4SwapEPS1_
   110: 0000000000000000     0 FUNC    GLOBAL DEFAULT  UND _ZN5kaldi16MinimumBayesRiskC1ERKN3fst9VectorFstINS1_6ArcTplINS1_23CompactLatticeWeightTplINS1_16LatticeWeightTplIfEEiEEEENS1_11VectorStateIS8_SaIS8_EEEEENS_23MinimumBayesRiskOptionsE
   111: 0000000000000000     0 OBJECT  GLOBAL DEFAULT  UND _ZTVSt14basic_ifstreamIcSt11char_traitsIcEE@GLIBCXX_3.4 (4)
   112: 0000000000000000     0 FUNC    GLOBAL DEFAULT  UND _ZNSt12__basic_fileIcED1Ev@GLIBCXX_3.4 (4)
   113: 0000000000000000     0 FUNC    GLOBAL DEFAULT  UND _ZN3fst19ReadFstKaldiGenericENSt7__cxx1112basic_stringIcSt11char_traitsIcESaIcEEEb
   114: 0000000000000000     0 FUNC    GLOBAL DEFAULT  UND _ZNSt7__cxx1112basic_stringIcSt11char_traitsIcESaIcEE9_M_mutateEmmPKcm@GLIBCXX_3.4.21 (2)
   115: 0000000000000000     0 FUNC    GLOBAL DEFAULT  UND _ZN5kaldi34ComposeCompactLatticeDeterministicERKN3fst9VectorFstINS0_6ArcTplINS0_23CompactLatticeWeightTplINS0_16LatticeWeightTplIfEEiEEEENS0_11VectorStateIS7_SaIS7_EEEEEPNS0_24DeterministicOnDemandFstINS2_INS0_17TropicalWeightTplIfEEEEEEPSB_
   116: 0000000000000000     0 FUNC    GLOBAL DEFAULT  UND _ZN3fst10MappedFileD1Ev
   117: 0000000000000000     0 FUNC    GLOBAL DEFAULT  UND _ZN5kaldi28LatticeIncrementalDecoderTplIN3fst3FstINS1_6ArcTplINS1_17TropicalWeightTplIfEEEEEENS_7decoder16BackpointerTokenEE16FinalizeDecodingEv
   118: 0000000000000000     0 FUNC    GLOBAL DEFAULT  UND _ZNSo3putEc@GLIBCXX_3.4 (4)
   119: 0000000000000000     0 OBJECT  GLOBAL DEFAULT  UND FLAGS_v
   120: 0000000000000000     0 FUNC    GLOBAL DEFAULT  UND _ZN5kaldi5nnet325CachingOptimizingCompiler7CompileERKNS0_18ComputationRequestE
   121: 0000000000000000     0 OBJECT  GLOBAL DEFAULT  UND _ZTISt9bad_alloc@GLIBCXX_3.4 (4)
   122: 0000000000000000     0 FUNC    GLOBAL DEFAULT  UND _ZN5kaldi27OnlineIvectorExtractionInfoC1Ev
   123: 0000000000000000     0 FUNC    GLOBAL DEFAULT  UND __cxa_guard_release@CXXABI_1.3 (6)
   124: 0000000000000000     0 FUNC    GLOBAL DEFAULT  UND _ZStlsISt11char_traitsIcEERSt13basic_ostreamIcT_ES5_PKc@GLIBCXX_3.4 (4)
   125: 0000000000000000     0 FUNC    GLOBAL DEFAULT  UND _ZN5kaldi5nnet320SetBatchnormTestModeEbPNS0_4NnetE
   126: 0000000000000000     0 FUNC    GLOBAL DEFAULT  UND _ZN3fst11AlignOutputERSo
   127: 0000000000000000     0 OBJECT  GLOBAL DEFAULT  UND FLAGS_fst_align
   128: 0000000000000000     0 OBJECT  GLOBAL DEFAULT  UND FLAGS_fst_verify_properties
   129: 0000000000000000     0 FUNC    GLOBAL DEFAULT  UND _ZNSt7__cxx1112basic_stringIcSt11char_traitsIcESaIcEE12_M_constructEmc@GLIBCXX_3.4.21 (2)
   130: 0000000000000000     0 FUNC    GLOBAL DEFAULT  UND __gxx_personality_v0@CXXABI_1.3 (6)
   131: 0000000000000000     0 FUNC    GLOBAL DEFAULT  UND _ZSt20__throw_length_errorPKc@GLIBCXX_3.4 (4)
   132: 0000000000000000     0 OBJECT  GLOBAL DEFAULT  UND stderr@GLIBC_2.2.5 (3)
   133: 0000000000000000     0 FUNC    GLOBAL DEFAULT  UND _ZN5kaldi12CuMatrixBaseIfE11CopyFromMatERKNS_10MatrixBaseIfEENS_19MatrixTransposeTypeE
   134: 0000000000000000     0 FUNC    GLOBAL DEFAULT  UND _ZSt20__throw_out_of_rangePKc@GLIBCXX_3.4 (4)
   135: 0000000000000000     0 FUNC    GLOBAL DEFAULT  UND __cxa_throw@CXXABI_1.3 (6)
   136: 0000000000000000     0 FUNC    GLOBAL DEFAULT  UND _ZN5kaldi15ReadKaldiObjectINS_6MatrixIfEEEEvRKNSt7__cxx1112basic_stringIcSt11char_traitsIcESaIcEEEPT_
   137: 0000000000000000     0 FUNC    GLOBAL DEFAULT  UND _ZN5kaldi22OnlineSilenceWeighting15GetDeltaWeightsEiiPSt6vectorISt4pairIifESaIS3_EE
   138: 0000000000000000     0 FUNC    GLOBAL DEFAULT  UND _ZN5kaldi13MessageLoggerC1ENS_18LogMessageEnvelope8SeverityEPKcS4_i
   139: 0000000000000000     0 FUNC    GLOBAL DEFAULT  UND _ZN5kaldi41SingleUtteranceNnet3IncrementalDecoderTplIN3fst3FstINS1_6ArcTplINS1_17TropicalWeightTplIfEEEEEEEC1ERKNS_31LatticeIncrementalDecoderConfigERKNS_15TransitionModelERKNS_5nnet329DecodableNnetSimpleLoopedInfoERKS7_PNS_26OnlineNnet2FeaturePipelineE
   140: 0000000000000000     0 FUNC    GLOBAL DEFAULT  UND _Unwind_Resume@GCC_3.0 (20)
   141: 0000000000000000     0 FUNC    GLOBAL DEFAULT  UND _ZN5kaldi12ParseOptions16RegisterStandardIbEEvRKNSt7__cxx1112basic_stringIcSt11char_traitsIcESaIcEEEPT_S9_
   142: 0000000000000000     0 FUNC    GLOBAL DEFAULT  UND _ZStlsISt11char_traitsIcEERSt13basic_ostreamIcT_ES5_c@GLIBCXX_3.4 (4)
   143: 0000000000000000     0 FUNC    GLOBAL DEFAULT  UND _ZNSt7__cxx1112basic_stringIcSt11char_traitsIcESaIcEE6appendEPKc@GLIBCXX_3.4.21 (2)
   144: 0000000000000000     0 FUNC    GLOBAL DEFAULT  UND exit@GLIBC_2.2.5 (3)
   145: 0000000000000000     0 OBJECT  GLOBAL DEFAULT  UND _ZTVNSt7__cxx1118basic_stringstreamIcSt11char_traitsIcESaIcEEE@GLIBCXX_3.4.21 (2)
   146: 0000000000000000     0 FUNC    GLOBAL DEFAULT  UND _ZN5kaldi10VectorBaseIfE6AddVecIfEEvfRKNS0_IT_EE
   147: 0000000000000000     0 FUNC    GLOBAL DEFAULT  UND _ZN5kaldi8CuMatrixIfE7DestroyEv
   148: 0000000000000000     0 FUNC    GLOBAL DEFAULT  UND _ZNSt7__cxx1112basic_stringIcSt11char_traitsIcESaIcEE9_M_createERmm@GLIBCXX_3.4.21 (2)
   149: 0000000000000000     0 FUNC    GLOBAL DEFAULT  UND _ZN5kaldi29TopSortCompactLatticeIfNeededEPN3fst9VectorFstINS0_6ArcTplINS0_23CompactLatticeWeightTplINS0_16LatticeWeightTplIfEEiEEEENS0_11VectorStateIS7_SaIS7_EEEEE
   150: 0000000000000000     0 OBJECT  GLOBAL DEFAULT  UND _ZTTNSt7__cxx1119basic_ostringstreamIcSt11char_traitsIcESaIcEEE@GLIBCXX_3.4.21 (2)
   151: 0000000000000000     0 FUNC    GLOBAL DEFAULT  UND vsnprintf@GLIBC_2.2.5 (3)
   152: 0000000000000000     0 FUNC    GLOBAL DEFAULT  UND _ZN3fst14FstReadOptionsC1ESt17basic_string_viewIcSt11char_traitsIcEEPKNS_9FstHeaderEPKNS_11SymbolTableESA_
   153: 0000000000000000     0 FUNC    GLOBAL DEFAULT  UND _ZNSt7__cxx1112basic_stringIcSt11char_traitsIcESaIcEE5eraseEmm@GLIBCXX_3.4.21 (2)
   154: 0000000000000000     0 FUNC    GLOBAL DEFAULT  UND _ZN5kaldi5nnet325CachingOptimizingCompilerC1ERKNS0_4NnetERKNS0_19NnetOptimizeOptionsENS0_32CachingOptimizingCompilerOptionsE
   155: 0000000000000000     0 FUNC    GLOBAL DEFAULT  UND _ZNSt8ios_baseD2Ev@GLIBCXX_3.4 (4)
   156: 0000000000000000     0 FUNC    GLOBAL DEFAULT  UND _ZN5kaldi12ParseOptions8RegisterERKNSt7__cxx1112basic_stringIcSt11char_traitsIcESaIcEEEPbS8_
   157: 0000000000000000     0 FUNC    GLOBAL DEFAULT  UND _ZN5kaldi5InputC1ERKNSt7__cxx1112basic_stringIcSt11char_traitsIcESaIcEEEPb
   158: 0000000000000000     0 FUNC    GLOBAL DEFAULT  UND _ZNSo5seekpESt4fposI11__mbstate_tE@GLIBCXX_3.4 (4)
   159: 0000000000000000     0 OBJECT  GLOBAL DEFAULT  UND FLAGS_fst_error_fatal
   160: 0000000000000000     0 FUNC    GLOBAL DEFAULT  UND _ZN5kaldi5nnet318SetDropoutTestModeEbPNS0_4NnetE
   161: 0000000000000000     0 FUNC    GLOBAL DEFAULT  UND _ZNSt7__cxx1112basic_stringIcSt11char_traitsIcESaIcEE9_M_appendEPKcm@GLIBCXX_3.4.21 (2)
   162: 0000000000000000     0 OBJECT  GLOBAL DEFAULT  UND FLAGS_fst_default_cache_gc
   163: 0000000000000000     0 FUNC    GLOBAL DEFAULT  UND _ZNK5kaldi12SparseMatrixIfE7NumRowsEv
   164: 0000000000000000     0 FUNC    GLOBAL DEFAULT  UND _ZNKSt8__detail20_Prime_rehash_policy11_M_next_bktEm@GLIBCXX_3.4.18 (21)
   165: 0000000000000000     0 FUNC    GLOBAL DEFAULT  UND _ZN5kaldi41SingleUtteranceNnet3IncrementalDecoderTplIN3fst3FstINS1_6ArcTplINS1_17TropicalWeightTplIfEEEEEEE15AdvanceDecodingEv
   166: 0000000000000000     0 FUNC    GLOBAL DEFAULT  UND _ZNSt7__cxx1112basic_stringIcSt11char_traitsIcESaIcEED1Ev@GLIBCXX_3.4.21 (2)
   167: 0000000000000000     0 FUNC    GLOBAL DEFAULT  UND isspace@GLIBC_2.2.5 (3)
   168: 0000000000000000     0 FUNC    GLOBAL DEFAULT  UND _ZN5kaldi5nnet325CachingOptimizingCompilerD1Ev
   169: 0000000000000000     0 FUNC    GLOBAL DEFAULT  UND _ZN5kaldi10VectorBaseIfE9AddMatVecEfRKNS_10MatrixBaseIfEENS_19MatrixTransposeTypeERKS1_f
   170: 0000000000000000     0 OBJECT  GLOBAL DEFAULT  UND _ZN3fst13PropertyNamesE
   171: 0000000000000000     0 FUNC    GLOBAL DEFAULT  UND _ZN5kaldi23ReadIntegerVectorSimpleERKNSt7__cxx1112basic_stringIcSt11char_traitsIcESaIcEEEPSt6vectorIiSaIiEE
   172: 0000000000000000     0 FUNC    GLOBAL DEFAULT  UND _ZNSo9_M_insertIdEERSoT_@GLIBCXX_3.4.9 (16)
   173: 0000000000000000     0 FUNC    GLOBAL DEFAULT  UND _ZN5kaldi5rnnlm22ReadSparseWordFeaturesERSiiPNS_12SparseMatrixIfEE
   174: 0000000000000000     0 FUNC    GLOBAL DEFAULT  UND floorf@GLIBC_2.2.5 (19)
   175: 0000000000000000     0 FUNC    GLOBAL DEFAULT  UND __cxa_end_catch@CXXABI_1.3 (6)
   176: 0000000000000000     0 FUNC    GLOBAL DEFAULT  UND _ZN5kaldi26OnlineNnet2FeaturePipeline14AcceptWaveformEfRKNS_10VectorBaseIfEE
   177: 0000000000000000     0 FUNC    GLOBAL DEFAULT  UND _ZNSt14basic_ofstreamIcSt11char_traitsIcEED1Ev@GLIBCXX_3.4 (4)
   178: 0000000000000000     0 FUNC    GLOBAL DEFAULT  UND _ZNSt6localeC1Ev@GLIBCXX_3.4 (4)
   179: 0000000000000000     0 FUNC    GLOBAL DEFAULT  UND _ZN5kaldi5rnnlm26KaldiRnnlmDeterministicFst5ClearEv
   180: 0000000000000000     0 FUNC    GLOBAL DEFAULT  UND _ZN5kaldi5nnet312NnetComputer20GetOutputDestructiveERKNSt7__cxx1112basic_stringIcSt11char_traitsIcESaIcEEEPNS_8CuMatrixIfEE
   181: 0000000000000000     0 FUNC    GLOBAL DEFAULT  UND _ZNSt7__cxx1112basic_stringIcSt11char_traitsIcESaIcEE10_M_disposeEv@GLIBCXX_3.4.21 (2)
   182: 0000000000000000     0 FUNC    GLOBAL DEFAULT  UND __cxa_rethrow@CXXABI_1.3 (6)
   183: 0000000000000000     0 FUNC    GLOBAL DEFAULT  UND _ZN3fst8internal15SymbolTableImpl4ReadERSiRKNS_22SymbolTableReadOptionsE
   184: 0000000000000000     0 FUNC    GLOBAL DEFAULT  UND _ZNSt7__cxx1112basic_stringIcSt11char_traitsIcESaIcEE7reserveEm@GLIBCXX_3.4.21 (2)
   185: 0000000000000000     0 FUNC    GLOBAL DEFAULT  UND _ZNK5kaldi12CuVectorBaseIfE9CopyToVecIfEEvPNS_10VectorBaseIT_EE
   186: 0000000000000000     0 FUNC    GLOBAL DEFAULT  UND setlinebuf@GLIBC_2.2.5 (3)
   187: 0000000000000000     0 FUNC    GLOBAL DEFAULT  UND strcmp@GLIBC_2.2.5 (3)
   188: 0000000000000000     0 OBJECT  GLOBAL DEFAULT  UND _ZTVN10__cxxabiv120__si_class_type_infoE@CXXABI_1.3 (6)
   189: 0000000000000000     0 FUNC    GLOBAL DEFAULT  UND _ZN5kaldi12ParseOptions16RegisterStandardINSt7__cxx1112basic_stringIcSt11char_traitsIcESaIcEEEEEvRKS7_PT_S9_
   190: 0000000000000000     0 FUNC    GLOBAL DEFAULT  UND _ZNSt13basic_filebufIcSt11char_traitsIcEEC1Ev@GLIBCXX_3.4 (4)
   191: 0000000000000000     0 FUNC    GLOBAL DEFAULT  UND _ZN5kaldi5InputD1Ev
   192: 0000000000000000     0 OBJECT  GLOBAL DEFAULT  UND FLAGS_fst_default_cache_gc_limit
   193: 0000000000000000     0 FUNC    GLOBAL DEFAULT  UND _ZSt21ios_base_library_initv@GLIBCXX_3.4.32 (22)
   194: 0000000000000000     0 FUNC    GLOBAL DEFAULT  UND __cxa_atexit@GLIBC_2.2.5 (3)
   195: 0000000000000000     0 OBJECT  GLOBAL DEFAULT  UND __libc_single_threaded@GLIBC_2.32 (23)
   196: 0000000000000000     0 FUNC    GLOBAL DEFAULT  UND _ZNSo5seekpElSt12_Ios_Seekdir@GLIBCXX_3.4 (4)
   197: 0000000000000000     0 FUNC    GLOBAL DEFAULT  UND _ZN5kaldi28LatticeIncrementalDecoderTplIN3fst3FstINS1_6ArcTplINS1_17TropicalWeightTplIfEEEEEENS_7decoder16BackpointerTokenEED2Ev
   198: 0000000000000000     0 FUNC    GLOBAL DEFAULT  UND _ZN5kaldi5nnet315NnetComputationD1Ev
   199: 0000000000000000     0 FUNC    GLOBAL DEFAULT  UND __cxa_free_exception@CXXABI_1.3 (6)
   200: 0000000000000000     0 FUNC    GLOBAL DEFAULT  UND _ZN5kaldi41SingleUtteranceNnet3IncrementalDecoderTplIN3fst3FstINS1_6ArcTplINS1_17TropicalWeightTplIfEEEEEEE16EndpointDetectedERKNS_20OnlineEndpointConfigE
   201: 0000000000000000     0 FUNC    GLOBAL DEFAULT  UND _ZN3fst11SymbolTable8ReadTextERKNSt7__cxx1112basic_stringIcSt11char_traitsIcESaIcEEERKNS_22SymbolTableTextOptionsE
   202: 0000000000000000     0 FUNC    GLOBAL DEFAULT  UND _ZN3fst22ShortestPathPropertiesEmb
   203: 0000000000000000     0 FUNC    GLOBAL DEFAULT  UND _ZNSt7__cxx1119basic_ostringstreamIcSt11char_traitsIcESaIcEED1Ev@GLIBCXX_3.4.21 (2)
   204: 0000000000000000     0 FUNC    GLOBAL DEFAULT  UND _ZN5kaldi22OnlineSilenceWeighting19GetNonsilenceFramesEiiPSt6vectorIiSaIiEE
   205: 0000000000000000     0 OBJECT  GLOBAL DEFAULT  UND _ZTVSt15basic_streambufIcSt11char_traitsIcEE@GLIBCXX_3.4 (4)
   206: 0000000000000000     0 FUNC    GLOBAL DEFAULT  UND _ZSt18_Rb_tree_incrementPKSt18_Rb_tree_node_base@GLIBCXX_3.4 (4)
   207: 0000000000000000     0 FUNC    GLOBAL DEFAULT  UND _ZNSt13basic_filebufIcSt11char_traitsIcEED1Ev@GLIBCXX_3.4 (4)
   208: 0000000000000000     0 FUNC    GLOBAL DEFAULT  UND _ZN5kaldi22OnlineSilenceWeighting23ComputeCurrentTracebackIN3fst3FstINS2_6ArcTplINS2_17TropicalWeightTplIfEEEEEEEEvRKNS_34LatticeIncrementalOnlineDecoderTplIT_EEb
   209: 0000000000000000     0 FUNC    GLOBAL DEFAULT  UND _ZNSt7__cxx1112basic_stringIcSt11char_traitsIcESaIcEE8_M_eraseEmm@GLIBCXX_3.4.21 (2)
   210: 0000000000000000     0 FUNC    GLOBAL DEFAULT  UND __isoc23_strtol@GLIBC_2.38 (15)
   211: 0000000000000000     0 FUNC    GLOBAL DEFAULT  UND _ZNSt7__cxx1112basic_stringIcSt11char_traitsIcESaIcEEC1EOS4_@GLIBCXX_3.4.21 (2)
   212: 0000000000000000     0 FUNC    GLOBAL DEFAULT  UND _ZN3fst21DeterminizePropertiesEmbb
   213: 0000000000000000     0 FUNC    GLOBAL DEFAULT  UND _ZN5kaldi5rnnlm21RnnlmComputeStateInfoC1ERKNS0_35RnnlmComputeStateComputationOptionsERKNS_5nnet34NnetERKNS_8CuMatrixIfEE
   214: 0000000000000000     0 FUNC    GLOBAL DEFAULT  UND _ZN3fst22SymbolTableTextOptionsC1Eb
   215: 0000000000000000     0 FUNC    GLOBAL DEFAULT  UND _ZN5kaldi5rnnlm26KaldiRnnlmDeterministicFstC1EiRKNS0_21RnnlmComputeStateInfoE
   216: 0000000000000000     0 FUNC    GLOBAL DEFAULT  UND _ZN5kaldi16SlidingWindowCmnERKNS_23SlidingWindowCmnOptionsERKNS_10MatrixBaseIfEEPS4_
   217: 0000000000000000     0 OBJECT  GLOBAL DEFAULT  UND _ZTTNSt7__cxx1118basic_stringstreamIcSt11char_traitsIcESaIcEEE@GLIBCXX_3.4.21 (2)
   218: 0000000000000000     0 OBJECT  GLOBAL DEFAULT  UND _ZTVSt14basic_ofstreamIcSt11char_traitsIcEE@GLIBCXX_3.4 (4)
   219: 0000000000000000     0 FUNC    GLOBAL DEFAULT  UND _ZNK5kaldi41SingleUtteranceNnet3IncrementalDecoderTplIN3fst3FstINS1_6ArcTplINS1_17TropicalWeightTplIfEEEEEEE11GetBestPathEbPNS1_9VectorFstINS3_INS1_16LatticeWeightTplIfEEEENS1_11VectorStateISC_SaISC_EEEEE
   220: 0000000000000000     0 FUNC    WEAK   DEFAULT  UND __cxa_pure_virtual@CXXABI_1.3 (6)
   221: 0000000000000000     0 FUNC    GLOBAL DEFAULT  UND _ZN5kaldi6VectorIdE7DestroyEv
   222: 0000000000000000     0 FUNC    GLOBAL DEFAULT  UND _ZN5kaldi10MatrixBaseIfE10AddSmatMatEfRKNS_12SparseMatrixIfEENS_19MatrixTransposeTypeERKS1_f
   223: 0000000000000000     0 FUNC    GLOBAL DEFAULT  UND _ZN5kaldi12ParseOptionsC1ERKNSt7__cxx1112basic_stringIcSt11char_traitsIcESaIcEEEPNS_10OptionsItfE
   224: 0000000000000000     0 FUNC    GLOBAL DEFAULT  UND _ZNSt7__cxx1119basic_ostringstreamIcSt11char_traitsIcESaIcEEC1Ev@GLIBCXX_3.4.26 (14)
   225: 0000000000000000     0 FUNC    GLOBAL DEFAULT  UND _ZNSt8__detail15_List_node_base9_M_unhookEv@GLIBCXX_3.4.15 (11)
   226: 0000000000000000     0 FUNC    GLOBAL DEFAULT  UND _ZN3fst11SplitStringEPcPKcPSt6vectorIS0_SaIS0_EEb
   227: 0000000000000000     0 OBJECT  GLOBAL DEFAULT  UND _ZTTSt14basic_ifstreamIcSt11char_traitsIcEE@GLIBCXX_3.4 (4)
   228: 0000000000000000     0 FUNC    GLOBAL DEFAULT  UND _ZN5kaldi13SetLogHandlerEPFvRKNS_18LogMessageEnvelopeEPKcE
   229: 0000000000000000     0 FUNC    GLOBAL DEFAULT  UND _ZNSt13basic_filebufIcSt11char_traitsIcEE4openEPKcSt13_Ios_Openmode@GLIBCXX_3.4 (4)
   230: 0000000000000000     0 FUNC    GLOBAL DEFAULT  UND _ZN5kaldi16WordBoundaryInfoC1ERKNS_23WordBoundaryInfoNewOptsENSt7__cxx1112basic_stringIcSt11char_traitsIcESaIcEEE
   231: 0000000000000000     0 OBJECT  GLOBAL DEFAULT  UND _ZSt3cin@GLIBCXX_3.4 (4)
   232: 0000000000000000     0 FUNC    GLOBAL DEFAULT  UND _ZSt18_Rb_tree_incrementPSt18_Rb_tree_node_base@GLIBCXX_3.4 (4)
   233: 0000000000000000     0 OBJECT  GLOBAL DEFAULT  UND _ZTVSt9basic_iosIcSt11char_traitsIcEE@GLIBCXX_3.4 (4)
   234: 0000000000000000     0 OBJECT  GLOBAL DEFAULT  UND _ZTISt13runtime_error@GLIBCXX_3.4 (4)
   235: 0000000000000000     0 FUNC    GLOBAL DEFAULT  UND _ZN5kaldi5Input6StreamEv
   236: 0000000000000000     0 FUNC    GLOBAL DEFAULT  UND _ZSt16__ostream_insertIcSt11char_traitsIcEERSt13basic_ostreamIT_T0_ES6_PKS3_l@GLIBCXX_3.4.9 (16)
   237: 0000000000000000     0 FUNC    GLOBAL DEFAULT  UND _ZN5kaldi5nnet34Nnet4ReadERSib
   238: 0000000000000000     0 FUNC    GLOBAL DEFAULT  UND _ZNSt8ios_baseC2Ev@GLIBCXX_3.4 (4)
   239: 0000000000000000     0 FUNC    GLOBAL DEFAULT  UND _ZNSt6localeD1Ev@GLIBCXX_3.4 (4)
   240: 0000000000000000     0 FUNC    GLOBAL DEFAULT  UND _ZNKSt8__detail20_Prime_rehash_policy14_M_need_rehashEmmm@GLIBCXX_3.4.18 (21)
   241: 0000000000000000     0 FUNC    GLOBAL DEFAULT  UND _ZN3fst13CompatSymbolsEPKNS_11SymbolTableES2_b
   242: 0000000000000000     0 FUNC    GLOBAL DEFAULT  UND _ZNKSt7__cxx1112basic_stringIcSt11char_traitsIcESaIcEE6substrEmm@GLIBCXX_3.4.21 (2)
   243: 0000000000000000     0 FUNC    GLOBAL DEFAULT  UND _ZN5kaldi8CuMatrixIfE6ResizeEiiNS_16MatrixResizeTypeENS_16MatrixStrideTypeE
   244: 0000000000000000     0 FUNC    GLOBAL DEFAULT  UND __errno_location@GLIBC_2.2.5 (3)
   245: 0000000000000000     0 NOTYPE  WEAK   DEFAULT  UND _ITM_registerTMCloneTable
   246: 0000000000000000     0 FUNC    GLOBAL DEFAULT  UND _ZN5kaldi6MatrixIfE7DestroyEv
   247: 0000000000000000     0 OBJECT  GLOBAL DEFAULT  UND _ZSt4cerr@GLIBCXX_3.4 (4)
   248: 0000000000000000     0 FUNC    GLOBAL DEFAULT  UND _ZNKSt12__basic_fileIcE7is_openEv@GLIBCXX_3.4 (4)
   249: 0000000000000000     0 FUNC    GLOBAL DEFAULT  UND _ZN5kaldi10MatrixBaseIfE14CopyRowFromVecERKNS_10VectorBaseIfEEi
   250: 0000000000000000     0 OBJECT  GLOBAL DEFAULT  UND _ZTVSt13basic_filebufIcSt11char_traitsIcEE@GLIBCXX_3.4 (4)
   251: 0000000000000000     0 FUNC    GLOBAL DEFAULT  UND _ZN5kaldi27ConstArpaLmDeterministicFstC1ERKNS_11ConstArpaLmE
   252: 0000000000000000     0 FUNC    GLOBAL DEFAULT  UND _ZSt29_Rb_tree_insert_and_rebalancebPSt18_Rb_tree_node_baseS0_RS_@GLIBCXX_3.4 (4)
   253: 0000000000000000     0 OBJECT  GLOBAL DEFAULT  UND _Z25FLAGS_fst_field_separatorB5cxx11
   254: 0000000000000000     0 FUNC    GLOBAL DEFAULT  UND _ZN5kaldi6MatrixIdE7DestroyEv
   255: 0000000000000000     0 FUNC    GLOBAL DEFAULT  UND _ZN3fst19ReadAndPrepareLmFstENSt7__cxx1112basic_stringIcSt11char_traitsIcESaIcEEE
   256: 0000000000000000     0 FUNC    GLOBAL DEFAULT  UND memcmp@GLIBC_2.2.5 (3)
   257: 0000000000000000     0 FUNC    GLOBAL DEFAULT  UND _ZN3fst10MappedFile8AllocateEmm
   258: 0000000000000000     0 FUNC    GLOBAL DEFAULT  UND _ZN5kaldi19KaldiAssertFailure_EPKcS1_iS1_
   259: 0000000000000000     0 FUNC    GLOBAL DEFAULT  UND _ZN5kaldi5nnet312NnetComputer3RunEv
   260: 0000000000000000     0 FUNC    GLOBAL DEFAULT  UND _ZNSt9basic_iosIcSt11char_traitsIcEE5clearESt12_Ios_Iostate@GLIBCXX_3.4 (4)
   261: 0000000000000000     0 FUNC    GLOBAL DEFAULT  UND _ZN3fst16InvertPropertiesEm
   262: 0000000000000000     0 FUNC    GLOBAL DEFAULT  UND _ZN5kaldi27ComposeCompactLatticePrunedERKNS_27ComposeLatticePrunedOptionsERKN3fst9VectorFstINS3_6ArcTplINS3_23CompactLatticeWeightTplINS3_16LatticeWeightTplIfEEiEEEENS3_11VectorStateISA_SaISA_EEEEEPNS3_24DeterministicOnDemandFstINS5_INS3_17TropicalWeightTplIfEEEEEEPSE_
   263: 0000000000000000     0 FUNC    GLOBAL DEFAULT  UND _ZSt9terminatev@GLIBCXX_3.4 (4)
   264: 0000000000000000     0 FUNC    GLOBAL DEFAULT  UND _ZNSt7__cxx1112basic_stringIcSt11char_traitsIcESaIcEE9_M_assignERKS4_@GLIBCXX_3.4.21 (2)
   265: 0000000000000000     0 FUNC    GLOBAL DEFAULT  UND _ZN5kaldi5nnet315IoSpecificationC1ERKNSt7__cxx1112basic_stringIcSt11char_traitsIcESaIcEEEii
   266: 0000000000000000     0 FUNC    GLOBAL DEFAULT  UND _ZNK3fst9FstHeader5WriteERSoRKNSt7__cxx1112basic_stringIcSt11char_traitsIcESaIcEEE
   267: 0000000000000000     0 OBJECT  GLOBAL DEFAULT  UND _ZTVN5kaldi15TransitionModelE
   268: 0000000000000000     0 OBJECT  GLOBAL DEFAULT  UND _ZTVN3fst8internal15SymbolTableImplE
   269: 0000000000000000     0 FUNC    GLOBAL DEFAULT  UND _ZN5kaldi5nnet312NnetComputerD1Ev
   270: 0000000000000000     0 FUNC    GLOBAL DEFAULT  UND _ZN5kaldi6VectorIfE6ResizeEiNS_16MatrixResizeTypeE
   271: 0000000000000000     0 FUNC    GLOBAL DEFAULT  UND _ZN5kaldi5nnet312NnetComputer11AcceptInputERKNSt7__cxx1112basic_stringIcSt11char_traitsIcESaIcEEEPNS_8CuMatrixIfEE
   272: 0000000000000000     0 FUNC    GLOBAL DEFAULT  UND _ZNSt7__cxx1112basic_stringIcSt11char_traitsIcESaIcEE9push_backEc@GLIBCXX_3.4.21 (2)
   273: 0000000000000000     0 FUNC    GLOBAL DEFAULT  UND _ZN5kaldi22OnlineSilenceWeightingC1ERKNS_15TransitionModelERKNS_28OnlineSilenceWeightingConfigEi
   274: 0000000000000000     0 OBJECT  GLOBAL DEFAULT  UND _Z25FLAGS_save_relabel_opairsB5cxx11
   275: 0000000000000000     0 FUNC    GLOBAL DEFAULT  UND _ZN5kaldi26OnlineNnet2FeaturePipeline18UpdateFrameWeightsERKSt6vectorISt4pairIifESaIS3_EE
   276: 0000000000000000     0 FUNC    GLOBAL DEFAULT  UND _ZN5kaldi15ReadKaldiObjectINS_6MatrixIdEEEEvRKNSt7__cxx1112basic_stringIcSt11char_traitsIcESaIcEEEPT_
   277: 0000000000000000     0 FUNC    GLOBAL DEFAULT  UND strtod@GLIBC_2.2.5 (3)
   278: 0000000000000000     0 FUNC    GLOBAL DEFAULT  UND _ZN3fst17ComposePropertiesEmm
   279: 0000000000000000     0 FUNC    GLOBAL DEFAULT  UND _ZN5kaldi12ParseOptions16RegisterStandardIiEEvRKNSt7__cxx1112basic_stringIcSt11char_traitsIcESaIcEEEPT_S9_
   280: 0000000000000000     0 FUNC    GLOBAL DEFAULT  UND _ZN5kaldi24OnlineGenericBaseFeatureINS_12MfccComputerEEC1ERKNS_11MfccOptionsE
   281: 0000000000000000     0 FUNC    GLOBAL DEFAULT  UND _ZNK5kaldi10VectorBaseIfE4NormEf
   282: 00000000001e4c10   588 FUNC    WEAK   DEFAULT   12 _ZNK3fst17ComposeFstMatcherINS_17DefaultCacheStoreINS_6ArcTplINS_17TropicalWeightTplIfEEEEEENS_17NullComposeFilterINS_7MatcherINS_3FstIS5_EEEESB_EENS_24GenericComposeStateTableIS5_NS_18TrivialFilterStateENS_24DefaultComposeStateTupleIiSE_EENS_21CompactHashStateTableISG_NS_11ComposeHashISG_EEEEEEE4CopyEb
   283: 0000000000245b38    24 OBJECT  WEAK   DEFAULT   21 _ZTISt19_Sp_counted_deleterIPN3fst18LabelReachableDataIiEESt14default_deleteIS2_ESaIvELN9__gnu_cxx12_Lock_policyE2EE
   284: 0000000000246678    24 OBJECT  WEAK   DEFAULT   21 _ZTIN3fst17ComposeFstMatcherINS_17DefaultCacheStoreINS_6ArcTplINS_17TropicalWeightTplIfEEEEEENS_20TrivialComposeFilterINS_7MatcherINS_3FstIS5_EEEESB_EENS_24GenericComposeStateTableIS5_NS_18TrivialFilterStateENS_24DefaultComposeStateTupleIiSE_EENS_21CompactHashStateTableISG_NS_11ComposeHashISG_EEEEEEEE
   285: 0000000000149650   490 FUNC    WEAK   DEFAULT   12 _ZN3fst23PushLabelsComposeFilterINS_24PushWeightsComposeFilterINS_22LookAheadComposeFilterINS_21SequenceComposeFilterINS_16LookAheadMatcherINS_3FstINS_6ArcTplINS_17TropicalWeightTplIfEEEEEEEESB_EESB_SB_LNS_9MatchTypeE3EEESB_SB_LSD_3EEESB_SB_LSD_3EE8SetStateEiiRKNS_15PairFilterStateINSH_INS_18IntegerFilterStateIaEENS_17WeightFilterStateIS8_EEEENSI_IiEEEE
   286: 0000000000244b88    56 OBJECT  WEAK   DEFAULT   21 _ZTVSt23_Sp_counted_ptr_inplaceIN3fst8internal13ArcMapFstImplINS0_6ArcTplINS0_17TropicalWeightTplIfEEEES6_NS0_28RemoveSomeInputSymbolsMapperIS6_iEEEESaIvELN9__gnu_cxx12_Lock_policyE2EE
   287: 000000000020b900   131 OBJECT  WEAK   DEFAULT   14 _ZTSN3fst18MutableArcIteratorINS_9VectorFstINS_10ReverseArcINS_6ArcTplINS_17TropicalWeightTplIfEEEEEENS_11VectorStateIS7_SaIS7_EEEEEEE
   288: 00000000001a9180    98 FUNC    WEAK   DEFAULT   12 _ZNK3fst10MatcherFstINS_8ConstFstINS_6ArcTplINS_17TropicalWeightTplIfEEEEjEENS_21LabelLookAheadMatcherINS_13SortedMatcherIS6_EELj1760ENS_18FastLogAccumulatorIS5_EENS_14LabelReachableIS5_SB_NS_18LabelReachableDataIiEEEEEEXadL_ZNS_25olabel_lookahead_fst_typeEEENS_23LabelLookAheadRelabelerIS5_SE_EENS_9AddOnPairISE_SE_EEE15InitArcIteratorEiPNS_15ArcIteratorDataIS5_EE
   289: 00000000001e7dd0   418 FUNC    WEAK   DEFAULT   12 _ZN3fst16ImplToMutableFstINS_8internal13VectorFstImplINS_11VectorStateINS_10ReverseArcINS_6ArcTplINS_17TropicalWeightTplIfEEEEEESaIS9_EEEEENS_10MutableFstIS9_EEE16SetOutputSymbolsEPKNS_11SymbolTableE
   290: 0000000000204040   157 OBJECT  WEAK   DEFAULT   14 _ZTSN3fst9ImplToFstINS_8internal18ComposeFstImplBaseINS_6ArcTplINS_16LatticeWeightTplIfEEEENS_17DefaultCacheStoreIS6_EENS_10ComposeFstIS6_S8_EEEENS_3FstIS6_EEEE
   291: 0000000000140ae0   375 FUNC    WEAK   DEFAULT   12 _ZN3fst8internal13CacheBaseImplINS_10CacheStateINS_6ArcTplINS_17TropicalWeightTplIfEEEENS_13PoolAllocatorIS6_EEEENS_17DefaultCacheStoreIS6_EEED1Ev
   292: 00000000001ab4c0   634 FUNC    WEAK   DEFAULT   12 _ZN5kaldi12ParseOptionsD1Ev
   293: 0000000000204a00   127 OBJECT  WEAK   DEFAULT   14 _ZTSN3fst9ImplToFstINS_8internal22DeterminizeFstImplBaseINS_10ReverseArcINS_6ArcTplINS_16LatticeWeightTplIfEEEEEEEENS_3FstIS8_EEEE
   294: 0000000000198490   234 FUNC    WEAK   DEFAULT   12 _ZN3fst17ComposeFstMatcherINS_17DefaultCacheStoreINS_6ArcTplINS_16LatticeWeightTplIfEEEEEENS_18MatchComposeFilterINS_7MatcherINS_3FstIS5_EEEESB_EENS_24GenericComposeStateTableIS5_NS_18IntegerFilterStateIaEENS_24DefaultComposeStateTupleIiSF_EENS_21CompactHashStateTableISH_NS_11ComposeHashISH_EEEEEEE4FindEi
   295: 00000000001a2950  2482 FUNC    GLOBAL DEFAULT   12 _ZN5ModelD2Ev
   296: 00000000001ab050  1132 FUNC    WEAK   DEFAULT   12 _ZN5kaldi12ParseOptionsC2EPKc
   297: 000000000010e9d0   234 FUNC    WEAK   DEFAULT   12 _ZN3fst8internal7FstImplINS_6ArcTplINS_17TropicalWeightTplIfEEEEED0Ev
   298: 00000000002442c8   128 OBJECT  WEAK   DEFAULT   21 _ZTVN3fst13SortedMatcherINS_3FstINS_6ArcTplINS_17TropicalWeightTplIfEEEEEEEE
   299: 00000000002437d0   312 OBJECT  WEAK   DEFAULT   21 _ZTVN3fst9ImplToFstINS_8internal13VectorFstImplINS_11VectorStateINS_10ReverseArcINS_6ArcTplINS_16LatticeWeightTplIfEEEEEESaIS9_EEEEENS_10MutableFstIS9_EEEE
   300: 00000000001e2b20  1849 FUNC    WEAK   DEFAULT   12 _ZN3fst8internal14ComposeFstImplINS_17DefaultCacheStoreINS_6ArcTplINS_17TropicalWeightTplIfEEEEEENS_18MatchComposeFilterINS_7MatcherINS_3FstIS6_EEEESC_EENS_24GenericComposeStateTableIS6_NS_18IntegerFilterStateIaEENS_24DefaultComposeStateTupleIiSG_EENS_21CompactHashStateTableISI_NS_11ComposeHashISI_EEEEEEEC1ISC_SC_EERKSB_SR_RKNS_21ComposeFstImplOptionsIT_T0_SD_SN_S7_EE
   301: 0000000000240e08    24 OBJECT  WEAK   DEFAULT   21 _ZTIN3fst8internal13ArcMapFstImplINS_6ArcTplINS_17TropicalWeightTplIfEEEES5_NS_28RemoveSomeInputSymbolsMapperIS5_iEEEE
   302: 000000000010a200    89 FUNC    WEAK   DEFAULT   12 _ZN3fst8internal15MemoryArenaImplILm40EED1Ev
   303: 00000000001001b0    21 FUNC    WEAK   DEFAULT   12 _ZNSt15_Sp_counted_ptrIPN3fst8internal18ComposeFstImplBaseINS0_6ArcTplINS0_16LatticeWeightTplIfEEEENS0_17DefaultCacheStoreIS6_EENS0_10ComposeFstIS6_S8_EEEELN9__gnu_cxx12_Lock_policyE2EE10_M_disposeEv
   304: 00000000000fec30     1 FUNC    WEAK   DEFAULT   12 _ZN3fst15StateOrderQueueIiE6UpdateEi
   305: 000000000013dcc0   224 FUNC    WEAK   DEFAULT   12 _ZN3fst8internal15MemoryArenaImplILm40EE8AllocateEm
   306: 000000000010de80    37 FUNC    WEAK   DEFAULT   12 _ZN3fst10ComposeFstINS_6ArcTplINS_16LatticeWeightTplIfEEEENS_17DefaultCacheStoreIS4_EEED1Ev
   307: 00000000001dfc10   336 FUNC    WEAK   DEFAULT   12 _ZN3fst8internal18DeterminizeFsaImplINS_10ReverseArcINS_6ArcTplINS_17TropicalWeightTplIfEEEEEENS_20DefaultCommonDivisorIS5_EENS_24DefaultDeterminizeFilterIS7_EENS_28DefaultDeterminizeStateTableIS7_NS_18IntegerFilterStateIaEEEEED0Ev
   308: 0000000000201560   303 OBJECT  WEAK   DEFAULT   14 _ZTSN3fst17ComposeFstMatcherINS_17DefaultCacheStoreINS_6ArcTplINS_17TropicalWeightTplIfEEEEEENS_21SequenceComposeFilterINS_7MatcherINS_3FstIS5_EEEESB_EENS_24GenericComposeStateTableIS5_NS_18IntegerFilterStateIaEENS_24DefaultComposeStateTupleIiSF_EENS_21CompactHashStateTableISH_NS_11ComposeHashISH_EEEEEEEE
   309: 0000000000243048   152 OBJECT  WEAK   DEFAULT   21 _ZTVN3fst9ImplToFstINS_8internal13ArcMapFstImplINS_6ArcTplINS_17TropicalWeightTplIfEEEENS3_INS_16LatticeWeightTplIfEEEENS_18StdToLatticeMapperIfEEEENS_3FstIS9_EEEE
   310: 00000000001a7df0    21 FUNC    WEAK   DEFAULT   12 _ZNSt15_Sp_counted_ptrIPN3fst8internal12ConstFstImplINS0_6ArcTplINS0_17TropicalWeightTplIfEEEEjEELN9__gnu_cxx12_Lock_policyE2EE10_M_disposeEv
   311: 00000000001d1070    21 FUNC    WEAK   DEFAULT   12 _ZNK3fst17ImplToExpandedFstINS_8internal13VectorFstImplINS_11VectorStateINS_10ReverseArcINS_6ArcTplINS_17TropicalWeightTplIfEEEEEESaIS9_EEEEENS_10MutableFstIS9_EEE9NumStatesEv
   312: 00000000001b1010   552 FUNC    WEAK   DEFAULT   12 _ZNK3fst13SortedMatcherINS_8ConstFstINS_6ArcTplINS_17TropicalWeightTplIfEEEEjEEE4CopyEb
   313: 0000000000205ba0   309 OBJECT  WEAK   DEFAULT   14 _ZTSN3fst8internal14ComposeFstImplINS_17DefaultCacheStoreINS_6ArcTplINS_17TropicalWeightTplIfEEEEEENS_21SequenceComposeFilterINS_7MatcherINS_3FstIS6_EEEESC_EENS_24GenericComposeStateTableIS6_NS_18IntegerFilterStateIaEENS_24DefaultComposeStateTupleIiSG_EENS_21CompactHashStateTableISI_NS_11ComposeHashISI_EEEEEEEE
   314: 00000000001f9000   234 FUNC    WEAK   DEFAULT   12 _ZN3fst17ComposeFstMatcherINS_17DefaultCacheStoreINS_6ArcTplINS_17TropicalWeightTplIfEEEEEENS_20NoMatchComposeFilterINS_7MatcherINS_3FstIS5_EEEESB_EENS_24GenericComposeStateTableIS5_NS_18TrivialFilterStateENS_24DefaultComposeStateTupleIiSE_EENS_21CompactHashStateTableISG_NS_11ComposeHashISG_EEEEEEE4FindEi
   315: 000000000020af80   113 OBJECT  WEAK   DEFAULT   14 _ZTSSt23_Sp_counted_ptr_inplaceIN3fst9AddOnPairINS0_18LabelReachableDataIiEES3_EESaIvELN9__gnu_cxx12_Lock_policyE2EE
   316: 0000000000100360    42 FUNC    WEAK   DEFAULT   12 _ZNK3fst18MutableArcIteratorINS_9VectorFstINS_6ArcTplINS_16LatticeWeightTplIfEEEENS_11VectorStateIS5_SaIS5_EEEEEE4DoneEv
   317: 00000000001b4fd0   644 FUNC    WEAK   DEFAULT   12 _ZN3fst14LabelReachableINS_6ArcTplINS_17TropicalWeightTplIfEEEENS_18FastLogAccumulatorIS4_EENS_18LabelReachableDataIiEEED2Ev
   318: 00000000001d7dd0    67 FUNC    WEAK   DEFAULT   12 _ZN3fst10MemoryPoolINS_13PoolAllocatorINS_10ReverseArcINS_6ArcTplINS_17TropicalWeightTplIfEEEEEEE2TNILi4EEEED0Ev
   319: 00000000001772d0  2117 FUNC    WEAK   DEFAULT   12 _ZN3fst7ConnectINS_6ArcTplINS_23CompactLatticeWeightTplINS_16LatticeWeightTplIfEEiEEEEEEvPNS_10MutableFstIT_EE
   320: 0000000000113b80   270 FUNC    WEAK   DEFAULT   12 _ZN3fst17TropicalWeightTplIfE4TypeB5cxx11Ev
   321: 00000000001a7e50    21 FUNC    WEAK   DEFAULT   12 _ZNSt15_Sp_counted_ptrIPN3fst8internal9AddOnImplINS0_8ConstFstINS0_6ArcTplINS0_17TropicalWeightTplIfEEEEjEENS0_9AddOnPairINS0_18LabelReachableDataIiEESB_EEEELN9__gnu_cxx12_Lock_policyE2EE10_M_disposeEv
   322: 00000000001845f0  1226 FUNC    WEAK   DEFAULT   12 _ZNK3fst18CacheStateIteratorINS_10ComposeFstINS_6ArcTplINS_16LatticeWeightTplIfEEEENS_17DefaultCacheStoreIS5_EEEEE4DoneEv
   323: 00000000001de340    39 FUNC    WEAK   DEFAULT   12 _ZNSt6vectorIN3fst24DefaultComposeStateTupleIiNS0_18IntegerFilterStateIaEEEESaIS4_EED2Ev
   324: 00000000002461f8   160 OBJECT  WEAK   DEFAULT   21 _ZTVN3fst9ImplToFstINS_8internal12NGramFstImplINS_6ArcTplINS_17TropicalWeightTplIfEEEEEENS_11ExpandedFstIS6_EEEE
   325: 000000000014f0d0   299 FUNC    WEAK   DEFAULT   12 _ZNK3fst9ImplToFstINS_8internal18ComposeFstImplBaseINS_6ArcTplINS_16LatticeWeightTplIfEEEENS_17DefaultCacheStoreIS6_EENS_10ComposeFstIS6_S8_EEEENS_3FstIS6_EEE10PropertiesEmb
   326: 0000000000129480   537 FUNC    WEAK   DEFAULT   12 _ZNSt6vectorIN3fst23CompactLatticeWeightTplINS0_16LatticeWeightTplIfEEiEESaIS4_EE17_M_realloc_insertIJRKS4_EEEvN9__gnu_cxx17__normal_iteratorIPS4_S6_EEDpOT_
   327: 00000000001988d0   657 FUNC    WEAK   DEFAULT   12 _ZN3fst17ComposeFstMatcherINS_17DefaultCacheStoreINS_6ArcTplINS_16LatticeWeightTplIfEEEEEENS_20TrivialComposeFilterINS_7MatcherINS_3FstIS5_EEEESB_EENS_24GenericComposeStateTableIS5_NS_18TrivialFilterStateENS_24DefaultComposeStateTupleIiSE_EENS_21CompactHashStateTableISG_NS_11ComposeHashISG_EEEEEEE8FindNextISB_SB_EEbPT_PT0_
   328: 00000000001015b0     1 FUNC    WEAK   DEFAULT   12 _ZN3fst18MutableArcIteratorINS_9VectorFstINS_10ReverseArcINS_6ArcTplINS_23CompactLatticeWeightTplINS_16LatticeWeightTplIfEEiEEEEEENS_11VectorStateIS9_SaIS9_EEEEEE8SetFlagsEhh
   329: 0000000000241748    24 OBJECT  WEAK   DEFAULT   21 _ZTIN3fst10MemoryPoolINS_13PoolAllocatorISt10_List_nodeIiEE2TNILi1EEEEE
   330: 0000000000111540   948 FUNC    WEAK   DEFAULT   12 _ZN3fst16ImplToMutableFstINS_8internal13VectorFstImplINS_11VectorStateINS_6ArcTplINS_23CompactLatticeWeightTplINS_16LatticeWeightTplIfEEiEEEESaIS9_EEEEENS_10MutableFstIS9_EEE12DeleteStatesEv
   331: 000000000017fc00   269 FUNC    WEAK   DEFAULT   12 _ZN3fst8internal14ComposeFstImplINS_17DefaultCacheStoreINS_6ArcTplINS_16LatticeWeightTplIfEEEEEENS_20NoMatchComposeFilterINS_7MatcherINS_3FstIS6_EEEESC_EENS_24GenericComposeStateTableIS6_NS_18TrivialFilterStateENS_24DefaultComposeStateTupleIiSF_EENS_21CompactHashStateTableISH_NS_11ComposeHashISH_EEEEEEE12ComputeStartEv
   332: 00000000001c9e00    21 FUNC    GLOBAL DEFAULT   12 vosk_recognizer_set_endpointer_mode
   333: 00000000002411b8    24 OBJECT  WEAK   DEFAULT   21 _ZTIN3fst22MutableArcIteratorBaseINS_6ArcTplINS_16LatticeWeightTplIfEEEEEE
   334: 00000000001ae9a0    83 FUNC    WEAK   DEFAULT   12 _ZN3fst8internal9AddOnImplINS_8ConstFstINS_6ArcTplINS_17TropicalWeightTplIfEEEEjEENS_9AddOnPairINS_18LabelReachableDataIiEESA_EEED0Ev
   335: 0000000000240da8    24 OBJECT  WEAK   DEFAULT   21 _ZTIN3fst17ImplToExpandedFstINS_8internal13VectorFstImplINS_11VectorStateINS_6ArcTplINS_16LatticeWeightTplIfEEEESaIS7_EEEEENS_10MutableFstIS7_EEEE
   336: 00000000001256c0   722 FUNC    WEAK   DEFAULT   12 _ZN3fst11make_uniqueINS_13SortedMatcherINS_3FstINS_6ArcTplINS_16LatticeWeightTplIfEEEEEEEEJPKS7_RNS_9MatchTypeEEEESt10unique_ptrIT_St14default_deleteISE_EEDpOT0_
   337: 000000000010fe50   362 FUNC    WEAK   DEFAULT   12 _ZN3fst8internal13VectorFstImplINS_11VectorStateINS_10ReverseArcINS_6ArcTplINS_16LatticeWeightTplIfEEEEEESaIS8_EEEED0Ev
   338: 00000000001e1cc0  1833 FUNC    WEAK   DEFAULT   12 _ZN3fst8internal14ComposeFstImplINS_17DefaultCacheStoreINS_6ArcTplINS_17TropicalWeightTplIfEEEEEENS_17NullComposeFilterINS_7MatcherINS_3FstIS6_EEEESC_EENS_24GenericComposeStateTableIS6_NS_18TrivialFilterStateENS_24DefaultComposeStateTupleIiSF_EENS_21CompactHashStateTableISH_NS_11ComposeHashISH_EEEEEEEC2ISC_SC_EERKSB_SQ_RKNS_21ComposeFstImplOptionsIT_T0_SD_SM_S7_EE
   339: 00000000001d3fe0   117 FUNC    WEAK   DEFAULT   12 _ZN3fst10MemoryPoolINS_13PoolAllocatorINS_10ReverseArcINS_6ArcTplINS_17TropicalWeightTplIfEEEEEEE2TNILi64EEEED2Ev
   340: 00000000000fe580    11 FUNC    WEAK   DEFAULT   12 _ZNK3fst9ImplToFstINS_8internal22DeterminizeFstImplBaseINS_10ReverseArcINS_6ArcTplINS_16LatticeWeightTplIfEEEEEEEENS_3FstIS8_EEE13OutputSymbolsEv
   341: 000000000010aec0   117 FUNC    WEAK   DEFAULT   12 _ZN3fst10MemoryPoolINS_13PoolAllocatorINS_6ArcTplINS_17TropicalWeightTplIfEEEEE2TNILi64EEEED2Ev
   342: 000000000020926f     1 OBJECT  <OS specific>: 10 DEFAULT   14 _ZZN3fst8DfsVisitINS_3FstINS_6ArcTplINS_16LatticeWeightTplIfEEEEEENS_15TopOrderVisitorIS5_EENS_12AnyArcFilterIS5_EEEEvRKT_PT0_T1_bE9kDfsWhite
   343: 00000000001b6fa0   281 FUNC    WEAK   DEFAULT   12 _ZNSt6vectorIN3fst11IntervalSetIiNS0_19VectorIntervalStoreIiEEEESaIS4_EE13_M_insert_auxIS4_EEvN9__gnu_cxx17__normal_iteratorIPS4_S6_EEOT_
   344: 0000000000202c80    60 OBJECT  WEAK   DEFAULT   14 _ZTSN3fst10MutableFstINS_6ArcTplINS_17TropicalWeightTplIfEEEEEE
   345: 00000000001620b0   493 FUNC    WEAK   DEFAULT   12 _ZNSt6vectorIPN3fst11VectorStateINS0_10ReverseArcINS0_6ArcTplINS0_16LatticeWeightTplIfEEEEEESaIS7_EEESaISA_EE17_M_default_appendEm
   346: 0000000000204880   159 OBJECT  WEAK   DEFAULT   14 _ZTSN3fst8internal13CacheBaseImplINS_10CacheStateINS_10ReverseArcINS_6ArcTplINS_16LatticeWeightTplIfEEEEEENS_13PoolAllocatorIS8_EEEENS_17DefaultCacheStoreIS8_EEEE
   347: 0000000000206540   184 OBJECT  WEAK   DEFAULT   14 _ZTSN3fst9ImplToFstINS_8internal13VectorFstImplINS_11VectorStateINS_10ReverseArcINS_6ArcTplINS_23CompactLatticeWeightTplINS_16LatticeWeightTplIfEEiEEEEEESaISB_EEEEENS_10MutableFstISB_EEEE
   348: 0000000000197440   418 FUNC    WEAK   DEFAULT   12 _ZNK3fst14DeterminizeFstINS_10ReverseArcINS_6ArcTplINS_16LatticeWeightTplIfEEEEEEE17InitStateIteratorEPNS_17StateIteratorDataIS6_EE
   349: 00000000001b1240   123 FUNC    WEAK   DEFAULT   12 _ZN3fst13SortedMatcherINS_8ConstFstINS_6ArcTplINS_17TropicalWeightTplIfEEEEjEEED0Ev
   350: 000000000024b058     8 OBJECT  <OS specific>: 10 DEFAULT   25 _ZGVZN3fst10ReverseArcINS_6ArcTplINS_16LatticeWeightTplIfEEEEE4TypeB5cxx11EvE4type
   351: 0000000000100020     1 FUNC    WEAK   DEFAULT   12 _ZN3fst18MutableArcIteratorINS_9VectorFstINS_10ReverseArcINS_6ArcTplINS_23CompactLatticeWeightTplINS_16LatticeWeightTplIfEEiEEEEEENS_11VectorStateIS9_SaIS9_EEEEEED2Ev
   352: 0000000000164eb0   500 FUNC    WEAK   DEFAULT   12 _ZN3fst10SccVisitorINS_10ReverseArcINS_6ArcTplINS_16LatticeWeightTplIfEEEEEEE9InitStateEii
   353: 000000000017f500   296 FUNC    WEAK   DEFAULT   12 _ZN3fst8internal14ComposeFstImplINS_17DefaultCacheStoreINS_6ArcTplINS_17TropicalWeightTplIfEEEEEENS_21SequenceComposeFilterINS_7MatcherINS_3FstIS6_EEEESC_EENS_24GenericComposeStateTableIS6_NS_18IntegerFilterStateIaEENS_24DefaultComposeStateTupleIiSG_EENS_21CompactHashStateTableISI_NS_11ComposeHashISI_EEEEEEE12ComputeStartEv
   354: 000000000010b7c0   117 FUNC    WEAK   DEFAULT   12 _ZN3fst8internal14MemoryPoolImplILm72EED1Ev
   355: 000000000014e360     5 FUNC    WEAK   DEFAULT   12 _ZNK3fst9VectorFstINS_6ArcTplINS_17TropicalWeightTplIfEEEENS_11VectorStateIS4_SaIS4_EEEE5WriteERSoRKNS_15FstWriteOptionsE
   356: 00000000000fe670    11 FUNC    WEAK   DEFAULT   12 _ZNK3fst16ImplToMutableFstINS_8internal13VectorFstImplINS_11VectorStateINS_10ReverseArcINS_6ArcTplINS_16LatticeWeightTplIfEEEEEESaIS9_EEEEENS_10MutableFstIS9_EEE13OutputSymbolsEv
   357: 000000000011c600    43 FUNC    WEAK   DEFAULT   12 _ZNSt6vectorIhSaIhEE9push_backERKh
   358: 0000000000245918    24 OBJECT  WEAK   DEFAULT   21 _ZTIN3fst9ImplToFstINS_8internal12ConstFstImplINS_6ArcTplINS_17TropicalWeightTplIfEEEEjEENS_11ExpandedFstIS6_EEEE
   359: 0000000000115a10    39 FUNC    WEAK   DEFAULT   12 _ZNSt6vectorIN3fst9QueueTypeESaIS1_EED1Ev
   360: 00000000001aa550   253 FUNC    WEAK   DEFAULT   12 _ZNSt19_Sp_counted_deleterIPN3fst18LabelReachableDataIiEESt14default_deleteIS2_ESaIvELN9__gnu_cxx12_Lock_policyE2EE10_M_disposeEv
   361: 0000000000100130     1 FUNC    WEAK   DEFAULT   12 _ZN3fst18MutableArcIteratorINS_9VectorFstINS_6ArcTplINS_23CompactLatticeWeightTplINS_16LatticeWeightTplIfEEiEEEENS_11VectorStateIS7_SaIS7_EEEEEED2Ev
   362: 0000000000107000   203 FUNC    WEAK   DEFAULT   12 _ZNK3fst9ImplToFstINS_8internal13ArcMapFstImplINS_6ArcTplINS_17TropicalWeightTplIfEEEES6_NS_28RemoveSomeInputSymbolsMapperIS6_iEEEENS_3FstIS6_EEE5StartEv
   363: 00000000001d4ce0    37 FUNC    WEAK   DEFAULT   12 _ZN3fst14DeterminizeFstINS_10ReverseArcINS_6ArcTplINS_17TropicalWeightTplIfEEEEEEED2Ev
   364: 00000000001005f0   283 FUNC    WEAK   DEFAULT   12 _ZNK3fst17ComposeFstMatcherINS_17DefaultCacheStoreINS_6ArcTplINS_16LatticeWeightTplIfEEEEEENS_17NullComposeFilterINS_7MatcherINS_3FstIS5_EEEESB_EENS_24GenericComposeStateTableIS5_NS_18TrivialFilterStateENS_24DefaultComposeStateTupleIiSE_EENS_21CompactHashStateTableISG_NS_11ComposeHashISG_EEEEEEE4TypeEb
   365: 000000000020b9a0   112 OBJECT  WEAK   DEFAULT   14 _ZTSN3fst10MemoryPoolINS_8internal8DfsStateINS_3FstINS_10ReverseArcINS_6ArcTplINS_17TropicalWeightTplIfEEEEEEEEEEEE
   366: 0000000000246bd8    24 OBJECT  WEAK   DEFAULT   21 _ZTIN3fst10MutableFstINS_10ReverseArcINS_6ArcTplINS_17TropicalWeightTplIfEEEEEEEE
   367: 00000000000fdd60   174 FUNC    WEAK   DEFAULT   12 _ZNK3fst13SortedMatcherINS_3FstINS_6ArcTplINS_16LatticeWeightTplIfEEEEEEE4TypeEb
   368: 00000000001a80a0    30 FUNC    WEAK   DEFAULT   12 _ZN3fst21LabelLookAheadMatcherINS_13SortedMatcherINS_8ConstFstINS_6ArcTplINS_17TropicalWeightTplIfEEEEjEEEELj1760ENS_18FastLogAccumulatorIS6_EENS_14LabelReachableIS6_SA_NS_18LabelReachableDataIiEEEEE8SetStateEi
   369: 0000000000201f00   102 OBJECT  WEAK   DEFAULT   14 _ZTSN3fst13StateIteratorINS_14DeterminizeFstINS_10ReverseArcINS_6ArcTplINS_16LatticeWeightTplIfEEEEEEEEEE
   370: 00000000001dbff0   250 FUNC    WEAK   DEFAULT   12 _ZN3fst8internal7FstImplINS_10ReverseArcINS_6ArcTplINS_17TropicalWeightTplIfEEEEEEE15SetInputSymbolsEPKNS_11SymbolTableE
   371: 00000000001021f0   146 FUNC    WEAK   DEFAULT   12 _ZNK3fst8internal14ComposeFstImplINS_17DefaultCacheStoreINS_6ArcTplINS_16LatticeWeightTplIfEEEEEENS_18MatchComposeFilterINS_7MatcherINS_3FstIS6_EEEESC_EENS_24GenericComposeStateTableIS6_NS_18IntegerFilterStateIaEENS_24DefaultComposeStateTupleIiSG_EENS_21CompactHashStateTableISI_NS_11ComposeHashISI_EEEEEEE10PropertiesEm
   372: 00000000001a8680    10 FUNC    WEAK   DEFAULT   12 _ZNSt23_Sp_counted_ptr_inplaceIN3fst29MutableFastLogAccumulatorDataESaIvELN9__gnu_cxx12_Lock_policyE2EE10_M_destroyEv
   373: 000000000011bab0    67 FUNC    WEAK   DEFAULT   12 _ZN3fst10MemoryPoolINS_8internal8DfsStateINS_10MutableFstINS_6ArcTplINS_23CompactLatticeWeightTplINS_16LatticeWeightTplIfEEiEEEEEEEEED0Ev
   374: 0000000000173460   471 FUNC    WEAK   DEFAULT   12 _ZN3fst10MutableFstINS_10ReverseArcINS_6ArcTplINS_16LatticeWeightTplIfEEEEEEE6AddArcEiOS6_
   375: 00000000001ae550    80 FUNC    WEAK   DEFAULT   12 _ZN3fst8NGramFstINS_6ArcTplINS_17TropicalWeightTplIfEEEEED2Ev
   376: 00000000001d14b0    16 FUNC    WEAK   DEFAULT   12 _ZNSt23_Sp_counted_ptr_inplaceIN3fst8internal13VectorFstImplINS0_11VectorStateINS0_10ReverseArcINS0_6ArcTplINS0_17TropicalWeightTplIfEEEEEESaIS9_EEEEESaIvELN9__gnu_cxx12_Lock_policyE2EE10_M_disposeEv
   377: 00000000002466f0    16 OBJECT  WEAK   DEFAULT   21 _ZTIN3fst17StateIteratorBaseINS_10ReverseArcINS_6ArcTplINS_17TropicalWeightTplIfEEEEEEEE
   378: 000000000010a260    89 FUNC    WEAK   DEFAULT   12 _ZN3fst8internal15MemoryArenaImplILm80EED1Ev
   379: 0000000000109270    75 FUNC    WEAK   DEFAULT   12 _ZNSt23_Sp_counted_ptr_inplaceIN3fst20MemoryPoolCollectionESaIvELN9__gnu_cxx12_Lock_policyE2EE14_M_get_deleterERKSt9type_info
   380: 000000000013e730  1578 FUNC    WEAK   DEFAULT   12 _ZN3fst8internal14ComposeFstImplINS_17DefaultCacheStoreINS_6ArcTplINS_16LatticeWeightTplIfEEEEEENS_22LookAheadComposeFilterINS_21SequenceComposeFilterINS_16LookAheadMatcherINS_3FstIS6_EEEESD_EESD_SD_LNS_9MatchTypeE3EEENS_24GenericComposeStateTableIS6_NS_18IntegerFilterStateIaEENS_24DefaultComposeStateTupleIiSJ_EENS_21CompactHashStateTableISL_NS_11ComposeHashISL_EEEEEEEC1ISD_SD_EERKSC_SU_RKNS_21ComposeFstImplOptionsIT_T0_SG_SQ_S7_EE
   381: 0000000000107810   168 FUNC    WEAK   DEFAULT   12 _ZNK3fst8internal14ComposeFstImplINS_17DefaultCacheStoreINS_6ArcTplINS_16LatticeWeightTplIfEEEEEENS_18MatchComposeFilterINS_7MatcherINS_3FstIS6_EEEESC_EENS_24GenericComposeStateTableIS6_NS_18IntegerFilterStateIaEENS_24DefaultComposeStateTupleIiSG_EENS_21CompactHashStateTableISI_NS_11ComposeHashISI_EEEEEEE10PropertiesEv
   382: 0000000000104760    10 FUNC    WEAK   DEFAULT   12 _ZNSt23_Sp_counted_ptr_inplaceIN3fst8internal13VectorFstImplINS0_11VectorStateINS0_6ArcTplINS0_23CompactLatticeWeightTplINS0_16LatticeWeightTplIfEEiEEEESaIS9_EEEEESaIvELN9__gnu_cxx12_Lock_policyE2EE10_M_destroyEv
   383: 000000000013c850   190 FUNC    WEAK   DEFAULT   12 _ZN3fst8internal14ComposeFstImplINS_17DefaultCacheStoreINS_6ArcTplINS_16LatticeWeightTplIfEEEEEENS_22LookAheadComposeFilterINS_21SequenceComposeFilterINS_16LookAheadMatcherINS_3FstIS6_EEEESD_EESD_SD_LNS_9MatchTypeE3EEENS_24GenericComposeStateTableIS6_NS_18IntegerFilterStateIaEENS_24DefaultComposeStateTupleIiSJ_EENS_21CompactHashStateTableISL_NS_11ComposeHashISL_EEEEEEED0Ev
   384: 000000000015f360  2639 FUNC    WEAK   DEFAULT   12 _ZN3fst9VectorFstINS_6ArcTplINS_23CompactLatticeWeightTplINS_16LatticeWeightTplIfEEiEEEENS_11VectorStateIS6_SaIS6_EEEE8WriteFstISA_EEbRKT_RSoRKNS_15FstWriteOptionsE
   385: 0000000000100070     1 FUNC    WEAK   DEFAULT   12 _ZN3fst18MutableArcIteratorINS_9VectorFstINS_10ReverseArcINS_6ArcTplINS_16LatticeWeightTplIfEEEEEENS_11VectorStateIS7_SaIS7_EEEEEED1Ev
   386: 0000000000120f30    85 FUNC    WEAK   DEFAULT   12 _ZN3fst9FifoQueueIiE7EnqueueEi
   387: 00000000000fe930   124 FUNC    WEAK   DEFAULT   12 _ZN3fst8SccQueueIiNS_9QueueBaseIiEEE5ClearEv
   388: 00000000001ceb80   130 FUNC    GLOBAL DEFAULT   12 _ZN9Processor9NormalizeERKNSt7__cxx1112basic_stringIcSt11char_traitsIcESaIcEEE
   389: 00000000001b0f30    67 FUNC    WEAK   DEFAULT   12 _ZN3fst10MemoryPoolINS_11ArcIteratorINS_8ConstFstINS_6ArcTplINS_17TropicalWeightTplIfEEEEjEEEEED0Ev
   390: 000000000019b8e0   418 FUNC    GLOBAL DEFAULT   12 _ZN22LanguageModelEstimator8EstimateEPN3fst9VectorFstINS0_6ArcTplINS0_17TropicalWeightTplIfEEEENS0_11VectorStateIS5_SaIS5_EEEEE
   391: 00000000000fd830     5 FUNC    WEAK   DEFAULT   12 _ZNKSt5ctypeIcE8do_widenEc
   392: 0000000000246690    24 OBJECT  WEAK   DEFAULT   21 _ZTIN3fst17ComposeFstMatcherINS_17DefaultCacheStoreINS_6ArcTplINS_17TropicalWeightTplIfEEEEEENS_20NoMatchComposeFilterINS_7MatcherINS_3FstIS5_EEEESB_EENS_24GenericComposeStateTableIS5_NS_18TrivialFilterStateENS_24DefaultComposeStateTupleIiSE_EENS_21CompactHashStateTableISG_NS_11ComposeHashISG_EEEEEEEE
   393: 0000000000241be0    24 OBJECT  WEAK   DEFAULT   21 _ZTIN3fst10MemoryPoolINS_13PoolAllocatorINS_6ArcTplINS_17TropicalWeightTplIfEEEEE2TNILi16EEEEE
   394: 00000000001a8200    16 FUNC    WEAK   DEFAULT   12 _ZNK3fst13SortedMatcherINS_8ConstFstINS_6ArcTplINS_17TropicalWeightTplIfEEEEjEEE10PropertiesEm
   395: 000000000011c630    99 FUNC    WEAK   DEFAULT   12 _ZNSt11_Deque_baseIPN3fst8internal8DfsStateINS0_10MutableFstINS0_6ArcTplINS0_23CompactLatticeWeightTplINS0_16LatticeWeightTplIfEEiEEEEEEEESaISC_EED2Ev
   396: 000000000020bba0   120 OBJECT  WEAK   DEFAULT   14 _ZTSN3fst8internal17VectorFstBaseImplINS_11VectorStateINS_10ReverseArcINS_6ArcTplINS_17TropicalWeightTplIfEEEEEESaIS8_EEEEE
   397: 0000000000117720   600 FUNC    WEAK   DEFAULT   12 _ZN3fst10SccVisitorINS_6ArcTplINS_23CompactLatticeWeightTplINS_16LatticeWeightTplIfEEiEEEEE11FinishVisitEv
   398: 00000000000fdcf0     1 FUNC    WEAK   DEFAULT   12 _ZNSt23_Sp_counted_ptr_inplaceIN3fst8internal14ComposeFstImplINS0_17DefaultCacheStoreINS0_6ArcTplINS0_16LatticeWeightTplIfEEEEEENS0_18MatchComposeFilterINS0_7MatcherINS0_3FstIS7_EEEESD_EENS0_24GenericComposeStateTableIS7_NS0_18IntegerFilterStateIaEENS0_24DefaultComposeStateTupleIiSH_EENS0_21CompactHashStateTableISJ_NS0_11ComposeHashISJ_EEEEEEEESaIvELN9__gnu_cxx12_Lock_policyE2EED2Ev
   399: 00000000001ede30   296 FUNC    WEAK   DEFAULT   12 _ZN3fst8internal14ComposeFstImplINS_17DefaultCacheStoreINS_6ArcTplINS_17TropicalWeightTplIfEEEEEENS_18MatchComposeFilterINS_7MatcherINS_3FstIS6_EEEESC_EENS_24GenericComposeStateTableIS6_NS_18IntegerFilterStateIaEENS_24DefaultComposeStateTupleIiSG_EENS_21CompactHashStateTableISI_NS_11ComposeHashISI_EEEEEEE12ComputeStartEv
   400: 000000000010e0c0   214 FUNC    WEAK   DEFAULT   12 _ZNK3fst9VectorFstINS_6ArcTplINS_23CompactLatticeWeightTplINS_16LatticeWeightTplIfEEiEEEENS_11VectorStateIS6_SaIS6_EEEE4CopyEb
   401: 00000000001d1740   103 FUNC    WEAK   DEFAULT   12 _ZN3fst17ComposeFstMatcherINS_17DefaultCacheStoreINS_6ArcTplINS_17TropicalWeightTplIfEEEEEENS_17NullComposeFilterINS_7MatcherINS_3FstIS5_EEEESB_EENS_24GenericComposeStateTableIS5_NS_18TrivialFilterStateENS_24DefaultComposeStateTupleIiSE_EENS_21CompactHashStateTableISG_NS_11ComposeHashISG_EEEEEEE8SetStateEi
   402: 00000000001d1430   102 FUNC    WEAK   DEFAULT   12 _ZNK3fst9VectorFstINS_10ReverseArcINS_6ArcTplINS_17TropicalWeightTplIfEEEEEENS_11VectorStateIS6_SaIS6_EEEE15InitArcIteratorEiPNS_15ArcIteratorDataIS6_EE
   403: 0000000000100930   113 FUNC    WEAK   DEFAULT   12 _ZN3fst17ComposeFstMatcherINS_17DefaultCacheStoreINS_6ArcTplINS_16LatticeWeightTplIfEEEEEENS_21SequenceComposeFilterINS_7MatcherINS_3FstIS5_EEEESB_EENS_24GenericComposeStateTableIS5_NS_18IntegerFilterStateIaEENS_24DefaultComposeStateTupleIiSF_EENS_21CompactHashStateTableISH_NS_11ComposeHashISH_EEEEEEE8SetStateEi
   404: 00000000001d2790    10 FUNC    WEAK   DEFAULT   12 _ZNSt23_Sp_counted_ptr_inplaceIN3fst8internal14ComposeFstImplINS0_17DefaultCacheStoreINS0_6ArcTplINS0_17TropicalWeightTplIfEEEEEENS0_18MatchComposeFilterINS0_7MatcherINS0_3FstIS7_EEEESD_EENS0_24GenericComposeStateTableIS7_NS0_18IntegerFilterStateIaEENS0_24DefaultComposeStateTupleIiSH_EENS0_21CompactHashStateTableISJ_NS0_11ComposeHashISJ_EEEEEEEESaIvELN9__gnu_cxx12_Lock_policyE2EE10_M_destroyEv
   405: 00000000001922d0   563 FUNC    WEAK   DEFAULT   12 _ZNSt6vectorIN3fst6ArcTplINS0_16LatticeWeightTplIfEEEENS0_13PoolAllocatorIS4_EEE17_M_realloc_insertIJRKiSA_RKS3_RiEEEvN9__gnu_cxx17__normal_iteratorIPS4_S7_EEDpOT_
   406: 00000000002410e8    24 OBJECT  WEAK   DEFAULT   21 _ZTIN3fst17ImplToExpandedFstINS_8internal13VectorFstImplINS_11VectorStateINS_10ReverseArcINS_6ArcTplINS_16LatticeWeightTplIfEEEEEESaIS9_EEEEENS_10MutableFstIS9_EEEE
   407: 0000000000124de0   845 FUNC    WEAK   DEFAULT   12 _ZNSt6vectorIS_IN3fst19LatticeDeterminizerINS0_16LatticeWeightTplIfEEiE7TempArcESaIS5_EESaIS7_EE17_M_realloc_insertIJS7_EEEvN9__gnu_cxx17__normal_iteratorIPS7_S9_EEDpOT_
   408: 00000000001a4a90  2708 FUNC    GLOBAL DEFAULT   12 _ZN5ModelC1EPKc
   409: 0000000000119c00   135 FUNC    WEAK   DEFAULT   12 _ZNSt10_HashtableIPKN3fst23LatticeStringRepositoryIiE5EntryES5_SaIS5_ENSt8__detail9_IdentityENS2_10EntryEqualENS2_8EntryKeyENS7_18_Mod_range_hashingENS7_20_Default_ranged_hashENS7_20_Prime_rehash_policyENS7_17_Hashtable_traitsILb1ELb1ELb1EEEED2Ev
   410: 00000000001bb240   487 FUNC    WEAK   DEFAULT   12 _ZSt11__make_heapIN9__gnu_cxx17__normal_iteratorIPN3fst6ArcTplINS2_17TropicalWeightTplIfEEEESt6vectorIS6_SaIS6_EEEENS0_5__ops15_Iter_comp_iterINS2_13OLabelCompareIS6_EEEEEvT_SH_RT0_
   411: 00000000001a7dd0     1 FUNC    WEAK   DEFAULT   12 _ZNSt23_Sp_counted_ptr_inplaceIN3fst18LabelReachableDataIiEESaIvELN9__gnu_cxx12_Lock_policyE2EED2Ev
   412: 000000000017f630   296 FUNC    WEAK   DEFAULT   12 _ZN3fst8internal14ComposeFstImplINS_17DefaultCacheStoreINS_6ArcTplINS_16LatticeWeightTplIfEEEEEENS_22LookAheadComposeFilterINS_21SequenceComposeFilterINS_16LookAheadMatcherINS_3FstIS6_EEEESD_EESD_SD_LNS_9MatchTypeE3EEENS_24GenericComposeStateTableIS6_NS_18IntegerFilterStateIaEENS_24DefaultComposeStateTupleIiSJ_EENS_21CompactHashStateTableISL_NS_11ComposeHashISL_EEEEEEE12ComputeStartEv
   413: 0000000000205980   196 OBJECT  WEAK   DEFAULT   14 _ZTSSt23_Sp_counted_ptr_inplaceIN3fst8internal13VectorFstImplINS0_11VectorStateINS0_6ArcTplINS0_23CompactLatticeWeightTplINS0_16LatticeWeightTplIfEEiEEEESaIS9_EEEEESaIvELN9__gnu_cxx12_Lock_policyE2EE
   414: 00000000001a7f70    38 FUNC    WEAK   DEFAULT   12 _ZNK3fst9ImplToFstINS_8internal9AddOnImplINS_8ConstFstINS_6ArcTplINS_17TropicalWeightTplIfEEEEjEENS_9AddOnPairINS_18LabelReachableDataIiEESB_EEEENS_11ExpandedFstIS7_EEE5FinalEi
   415: 00000000001683d0     5 FUNC    WEAK   DEFAULT   12 _ZNK3fst9VectorFstINS_10ReverseArcINS_6ArcTplINS_16LatticeWeightTplIfEEEEEENS_11VectorStateIS6_SaIS6_EEEE5WriteERSoRKNS_15FstWriteOptionsE
   416: 0000000000100b60   113 FUNC    WEAK   DEFAULT   12 _ZN3fst17ComposeFstMatcherINS_17DefaultCacheStoreINS_6ArcTplINS_16LatticeWeightTplIfEEEEEENS_24AltSequenceComposeFilterINS_7MatcherINS_3FstIS5_EEEESB_EENS_24GenericComposeStateTableIS5_NS_18IntegerFilterStateIaEENS_24DefaultComposeStateTupleIiSF_EENS_21CompactHashStateTableISH_NS_11ComposeHashISH_EEEEEEE8SetStateEi
   417: 000000000010b440   117 FUNC    WEAK   DEFAULT   12 _ZN3fst10MemoryPoolINS_13PoolAllocatorINS_6ArcTplINS_16LatticeWeightTplIfEEEEE2TNILi4EEEED2Ev
   418: 0000000000142a20  1889 FUNC    WEAK   DEFAULT   12 _ZN3fst8internal14ComposeFstImplINS_17DefaultCacheStoreINS_6ArcTplINS_17TropicalWeightTplIfEEEEEENS_23PushLabelsComposeFilterINS_24PushWeightsComposeFilterINS_22LookAheadComposeFilterINS_24AltSequenceComposeFilterINS_16LookAheadMatcherINS_3FstIS6_EEEESF_EESF_SF_LNS_9MatchTypeE3EEESF_SF_LSH_3EEESF_SF_LSH_3EEENS_24GenericComposeStateTableIS6_NS_15PairFilterStateINSM_INS_18IntegerFilterStateIaEENS_17WeightFilterStateIS5_EEEENSN_IiEEEENS_24DefaultComposeStateTupleIiST_EENS_21CompactHashStateTableISV_NS_11ComposeHashISV_EEEEEEEC1ISF_SF_EERKSE_S14_RKNS_21ComposeFstImplOptionsIT_T0_SK_S10_S7_EE
   419: 00000000001ded50  1634 FUNC    WEAK   DEFAULT   12 _ZN3fst13PoolAllocatorINS_10ReverseArcINS_6ArcTplINS_17TropicalWeightTplIfEEEEEEE10deallocateEPS6_m
   420: 0000000000241c40    24 OBJECT  WEAK   DEFAULT   21 _ZTIN3fst10MemoryPoolINS_13PoolAllocatorINS_10ReverseArcINS_6ArcTplINS_16LatticeWeightTplIfEEEEEEE2TNILi2EEEEE
   421: 00000000001b0c40   636 FUNC    WEAK   DEFAULT   12 _ZNK3fst8NGramFstINS_6ArcTplINS_17TropicalWeightTplIfEEEEE5WriteERSoRKNS_15FstWriteOptionsE
   422: 0000000000109ed0   173 FUNC    WEAK   DEFAULT   12 _ZN3fst17ComposeFstMatcherINS_17DefaultCacheStoreINS_6ArcTplINS_16LatticeWeightTplIfEEEEEENS_22LookAheadComposeFilterINS_21SequenceComposeFilterINS_16LookAheadMatcherINS_3FstIS5_EEEESC_EESC_SC_LNS_9MatchTypeE3EEENS_24GenericComposeStateTableIS5_NS_18IntegerFilterStateIaEENS_24DefaultComposeStateTupleIiSI_EENS_21CompactHashStateTableISK_NS_11ComposeHashISK_EEEEEEED2Ev
   423: 00000000002414e8    24 OBJECT  WEAK   DEFAULT   21 _ZTIN3fst9ImplToFstINS_8internal13VectorFstImplINS_11VectorStateINS_10ReverseArcINS_6ArcTplINS_23CompactLatticeWeightTplINS_16LatticeWeightTplIfEEiEEEEEESaISB_EEEEENS_10MutableFstISB_EEEE
   424: 00000000001d25b0   146 FUNC    WEAK   DEFAULT   12 _ZNK3fst8internal14ComposeFstImplINS_17DefaultCacheStoreINS_6ArcTplINS_17TropicalWeightTplIfEEEEEENS_24AltSequenceComposeFilterINS_7MatcherINS_3FstIS6_EEEESC_EENS_24GenericComposeStateTableIS6_NS_18IntegerFilterStateIaEENS_24DefaultComposeStateTupleIiSG_EENS_21CompactHashStateTableISI_NS_11ComposeHashISI_EEEEEEE10PropertiesEm
   425: 000000000013ff30   381 FUNC    WEAK   DEFAULT   12 _ZN3fst20MemoryPoolCollection4PoolINS_13PoolAllocatorINS_6ArcTplINS_17TropicalWeightTplIfEEEEE2TNILi64EEEEEPNS_10MemoryPoolIT_EEv
   426: 00000000001049c0   290 FUNC    WEAK   DEFAULT   12 _ZNK3fst10ComposeFstINS_6ArcTplINS_16LatticeWeightTplIfEEEENS_17DefaultCacheStoreIS4_EEE17InitStateIteratorEPNS_17StateIteratorDataIS4_EE
   427: 00000000001a9bc0   359 FUNC    WEAK   DEFAULT   12 _ZNK3fst8NGramFstINS_6ArcTplINS_17TropicalWeightTplIfEEEEE11InitMatcherENS_9MatchTypeE
   428: 00000000000fdf40    11 FUNC    WEAK   DEFAULT   12 _ZNK3fst16ImplToMutableFstINS_8internal13VectorFstImplINS_11VectorStateINS_10ReverseArcINS_6ArcTplINS_23CompactLatticeWeightTplINS_16LatticeWeightTplIfEEiEEEEEESaISB_EEEEENS_10MutableFstISB_EEE13OutputSymbolsEv
   429: 000000000015f130   234 FUNC    WEAK   DEFAULT   12 _ZN3fst6ArcTplINS_23CompactLatticeWeightTplINS_16LatticeWeightTplIfEEiEEE4TypeB5cxx11Ev
   430: 00000000002456b0    40 OBJECT  WEAK   DEFAULT   21 _ZTVN3fst10MemoryPoolINS_13PoolAllocatorINS_10ReverseArcINS_6ArcTplINS_16LatticeWeightTplIfEEEEEEE2TNILi1EEEEE
   431: 0000000000244da8    56 OBJECT  WEAK   DEFAULT   21 _ZTVSt23_Sp_counted_ptr_inplaceIN3fst8internal13VectorFstImplINS0_11VectorStateINS0_10ReverseArcINS0_6ArcTplINS0_23CompactLatticeWeightTplINS0_16LatticeWeightTplIfEEiEEEEEESaISB_EEEEESaIvELN9__gnu_cxx12_Lock_policyE2EE
   432: 0000000000247c08    40 OBJECT  WEAK   DEFAULT   21 _ZTVN3fst10MemoryPoolINS_13PoolAllocatorINS_10ReverseArcINS_6ArcTplINS_17TropicalWeightTplIfEEEEEEE2TNILi64EEEEE
   433: 00000000001b7460   238 FUNC    WEAK   DEFAULT   12 _ZNSt8__detail9_Map_baseIiSt4pairIKiiESaIS3_ENS_10_Select1stESt8equal_toIiESt4hashIiENS_18_Mod_range_hashingENS_20_Default_ranged_hashENS_20_Prime_rehash_policyENS_17_Hashtable_traitsILb0ELb0ELb1EEELb1EEixERS2_
   434: 0000000000246fc8    48 OBJECT  WEAK   DEFAULT   21 _ZTVN3fst8internal13VectorFstImplINS_11VectorStateINS_10ReverseArcINS_6ArcTplINS_17TropicalWeightTplIfEEEEEESaIS8_EEEEE
   435: 00000000001d3af0   168 FUNC    WEAK   DEFAULT   12 _ZNK3fst8internal14ComposeFstImplINS_17DefaultCacheStoreINS_6ArcTplINS_17TropicalWeightTplIfEEEEEENS_24AltSequenceComposeFilterINS_7MatcherINS_3FstIS6_EEEESC_EENS_24GenericComposeStateTableIS6_NS_18IntegerFilterStateIaEENS_24DefaultComposeStateTupleIiSG_EENS_21CompactHashStateTableISI_NS_11ComposeHashISI_EEEEEEE10PropertiesEv
   436: 000000000010ddc0    37 FUNC    WEAK   DEFAULT   12 _ZN3fst9VectorFstINS_6ArcTplINS_17TropicalWeightTplIfEEEENS_11VectorStateIS4_SaIS4_EEEED1Ev
   437: 000000000016b360   135 FUNC    WEAK   DEFAULT   12 _ZN3fst16ImplToMutableFstINS_8internal13VectorFstImplINS_11VectorStateINS_10ReverseArcINS_6ArcTplINS_23CompactLatticeWeightTplINS_16LatticeWeightTplIfEEiEEEEEESaISB_EEEEENS_10MutableFstISB_EEE13SetPropertiesEmm
   438: 0000000000244a58   128 OBJECT  WEAK   DEFAULT   21 _ZTVN3fst13SortedMatcherINS_3FstINS_6ArcTplINS_16LatticeWeightTplIfEEEEEEEE
   439: 000000000011a6d0    67 FUNC    WEAK   DEFAULT   12 _ZN3fst10MemoryPoolINS_13PoolAllocatorINS_6ArcTplINS_16LatticeWeightTplIfEEEEE2TNILi64EEEED0Ev
   440: 00000000001960a0   563 FUNC    WEAK   DEFAULT   12 _ZNSt6vectorIN3fst10ReverseArcINS0_6ArcTplINS0_16LatticeWeightTplIfEEEEEENS0_13PoolAllocatorIS6_EEE17_M_realloc_insertIJRiSB_S4_iEEEvN9__gnu_cxx17__normal_iteratorIPS6_S9_EEDpOT_
   441: 00000000001179b0   133 FUNC    WEAK   DEFAULT   12 _ZN3fst13StateIteratorINS_3FstINS_6ArcTplINS_23CompactLatticeWeightTplINS_16LatticeWeightTplIfEEiEEEEEEEC1ERKS8_
   442: 00000000000fdcb0     1 FUNC    WEAK   DEFAULT   12 _ZNSt23_Sp_counted_ptr_inplaceIN3fst8internal14ComposeFstImplINS0_17DefaultCacheStoreINS0_6ArcTplINS0_17TropicalWeightTplIfEEEEEENS0_23PushLabelsComposeFilterINS0_24PushWeightsComposeFilterINS0_22LookAheadComposeFilterINS0_24AltSequenceComposeFilterINS0_16LookAheadMatcherINS0_3FstIS7_EEEESG_EESG_SG_LNS0_9MatchTypeE3EEESG_SG_LSI_3EEESG_SG_LSI_3EEENS0_24GenericComposeStateTableIS7_NS0_15PairFilterStateINSN_INS0_18IntegerFilterStateIaEENS0_17WeightFilterStateIS6_EEEENSO_IiEEEENS0_24DefaultComposeStateTupleIiSU_EENS0_21CompactHashStateTableISW_NS0_11ComposeHashISW_EEEEEEEESaIvELN9__gnu_cxx12_Lock_policyE2EED2Ev
   443: 0000000000246af8    40 OBJECT  WEAK   DEFAULT   21 _ZTVN3fst10MemoryPoolINS_8internal8DfsStateINS_3FstINS_10ReverseArcINS_6ArcTplINS_17TropicalWeightTplIfEEEEEEEEEEEE
   444: 00000000001a7f00    11 FUNC    WEAK   DEFAULT   12 _ZNK3fst9ImplToFstINS_8internal12NGramFstImplINS_6ArcTplINS_17TropicalWeightTplIfEEEEEENS_11ExpandedFstIS6_EEE13OutputSymbolsEv
   445: 00000000002466c0    24 OBJECT  WEAK   DEFAULT   21 _ZTIN3fst17ComposeFstMatcherINS_17DefaultCacheStoreINS_6ArcTplINS_17TropicalWeightTplIfEEEEEENS_24AltSequenceComposeFilterINS_7MatcherINS_3FstIS5_EEEESB_EENS_24GenericComposeStateTableIS5_NS_18IntegerFilterStateIaEENS_24DefaultComposeStateTupleIiSF_EENS_21CompactHashStateTableISH_NS_11ComposeHashISH_EEEEEEEE
   446: 0000000000133070   125 FUNC    WEAK   DEFAULT   12 _ZN3fst17ComposeFstMatcherINS_17DefaultCacheStoreINS_6ArcTplINS_16LatticeWeightTplIfEEEEEENS_18MatchComposeFilterINS_7MatcherINS_3FstIS5_EEEESB_EENS_24GenericComposeStateTableIS5_NS_18IntegerFilterStateIaEENS_24DefaultComposeStateTupleIiSF_EENS_21CompactHashStateTableISH_NS_11ComposeHashISH_EEEEEEED2Ev
   447: 00000000001add00  1126 FUNC    WEAK   DEFAULT   12 _ZN5kaldi19ProcessPitchOptions8RegisterEPNS_10OptionsItfE
   448: 0000000000241148    24 OBJECT  WEAK   DEFAULT   21 _ZTIN3fst8internal9CacheImplINS_10ReverseArcINS_6ArcTplINS_16LatticeWeightTplIfEEEEEEEE
   449: 00000000001c9f60     1 FUNC    GLOBAL DEFAULT   12 vosk_batch_model_wait
   450: 00000000001aa960   113 FUNC    WEAK   DEFAULT   12 _ZN3fst11FstRegisterINS_6ArcTplINS_17TropicalWeightTplIfEEEEED0Ev
   451: 00000000002412e8    24 OBJECT  WEAK   DEFAULT   21 _ZTIN3fst8internal14ComposeFstImplINS_17DefaultCacheStoreINS_6ArcTplINS_16LatticeWeightTplIfEEEEEENS_17NullComposeFilterINS_7MatcherINS_3FstIS6_EEEESC_EENS_24GenericComposeStateTableIS6_NS_18TrivialFilterStateENS_24DefaultComposeStateTupleIiSF_EENS_21CompactHashStateTableISH_NS_11ComposeHashISH_EEEEEEEE
   452: 00000000002479a0    56 OBJECT  WEAK   DEFAULT   21 _ZTVSt23_Sp_counted_ptr_inplaceIN3fst8internal13VectorFstImplINS0_11VectorStateINS0_10ReverseArcINS0_6ArcTplINS0_17TropicalWeightTplIfEEEEEESaIS9_EEEEESaIvELN9__gnu_cxx12_Lock_policyE2EE
   453: 00000000000fd990    10 FUNC    WEAK   DEFAULT   12 _ZNK3fst9AutoQueueIiE4HeadEv
   454: 000000000011a5e0    71 FUNC    WEAK   DEFAULT   12 _ZNSt7__cxx1110_List_baseISt10unique_ptrIA_cSt14default_deleteIS2_EESaIS5_EE8_M_clearEv
   455: 00000000000feec0    24 FUNC    WEAK   DEFAULT   12 _ZNK3fst9ImplToFstINS_8internal13VectorFstImplINS_11VectorStateINS_6ArcTplINS_16LatticeWeightTplIfEEEESaIS7_EEEEENS_10MutableFstIS7_EEE16NumInputEpsilonsEi
   456: 0000000000201e20    84 OBJECT  WEAK   DEFAULT   14 _ZTSN3fst17StateIteratorBaseINS_10ReverseArcINS_6ArcTplINS_16LatticeWeightTplIfEEEEEEEE
   457: 0000000000246d80    24 OBJECT  WEAK   DEFAULT   21 _ZTIN3fst8internal14ComposeFstImplINS_17DefaultCacheStoreINS_6ArcTplINS_17TropicalWeightTplIfEEEEEENS_20NoMatchComposeFilterINS_7MatcherINS_3FstIS6_EEEESC_EENS_24GenericComposeStateTableIS6_NS_18TrivialFilterStateENS_24DefaultComposeStateTupleIiSF_EENS_21CompactHashStateTableISH_NS_11ComposeHashISH_EEEEEEEE
   458: 00000000000ffa10   116 FUNC    WEAK   DEFAULT   12 _ZNK3fst9VectorFstINS_6ArcTplINS_23CompactLatticeWeightTplINS_16LatticeWeightTplIfEEiEEEENS_11VectorStateIS6_SaIS6_EEEE15InitArcIteratorEiPNS_15ArcIteratorDataIS6_EE
   459: 00000000001268f0  1300 FUNC    WEAK   DEFAULT   12 _ZN3fst19LatticeDeterminizerINS_16LatticeWeightTplIfEEiE16ConvertToMinimalEPSt6vectorINS3_7ElementESaIS5_EE
   460: 0000000000247be0    40 OBJECT  WEAK   DEFAULT   21 _ZTVN3fst10MemoryPoolINS_13PoolAllocatorINS_10ReverseArcINS_6ArcTplINS_17TropicalWeightTplIfEEEEEEE2TNILi32EEEEE
   461: 000000000017ccc0   141 FUNC    WEAK   DEFAULT   12 _ZN3fst9VectorFstINS_6ArcTplINS_17TropicalWeightTplIfEEEENS_11VectorStateIS4_SaIS4_EEEEaSERKNS_3FstIS4_EE
   462: 00000000001de4d0   515 FUNC    WEAK   DEFAULT   12 _ZNSt10_HashtableIiiN3fst13PoolAllocatorIiEENSt8__detail9_IdentityENS0_18CompactHashBiTableIiPNS0_8internal21DeterminizeStateTupleINS0_10ReverseArcINS0_6ArcTplINS0_17TropicalWeightTplIfEEEEEENS0_18IntegerFilterStateIaEEEENS0_28DefaultDeterminizeStateTableISD_SF_E13StateTupleKeyENSJ_15StateTupleEqualELNS0_6HSTypeE0EE9HashEqualENSN_8HashFuncENS3_18_Mod_range_hashingENS3_20_Default_ranged_hashENS3_20_Prime_rehash_policyENS3_17_Hashtable_traitsILb1ELb1ELb1EEEED1Ev
   463: 000000000010e8e0   231 FUNC    WEAK   DEFAULT   12 _ZN3fst8internal7FstImplINS_6ArcTplINS_16LatticeWeightTplIfEEEEED1Ev
   464: 000000000016e530   391 FUNC    WEAK   DEFAULT   12 _ZN3fst16ImplToMutableFstINS_8internal13VectorFstImplINS_11VectorStateINS_10ReverseArcINS_6ArcTplINS_23CompactLatticeWeightTplINS_16LatticeWeightTplIfEEiEEEEEESaISB_EEEEENS_10MutableFstISB_EEE15SetInputSymbolsEPKNS_11SymbolTableE
   465: 0000000000241790    24 OBJECT  WEAK   DEFAULT   21 _ZTIN3fst8internal14MemoryPoolImplILm8EEE
   466: 00000000000ff660   618 FUNC    WEAK   DEFAULT   12 _ZN3fst8internal14ComposeFstImplINS_17DefaultCacheStoreINS_6ArcTplINS_16LatticeWeightTplIfEEEEEENS_21SequenceComposeFilterINS_7MatcherINS_3FstIS6_EEEESC_EENS_24GenericComposeStateTableIS6_NS_18IntegerFilterStateIaEENS_24DefaultComposeStateTupleIiSG_EENS_21CompactHashStateTableISI_NS_11ComposeHashISI_EEEEEEE12ComputeFinalEi
   467: 000000000012cd30  4489 FUNC    WEAK   DEFAULT   12 _ZN3fst19LatticeDeterminizerINS_16LatticeWeightTplIfEEiE14EpsilonClosureEPSt6vectorINS3_7ElementESaIS5_EE
   468: 00000000001a8110     7 FUNC    WEAK   DEFAULT   12 _ZNK3fst21LabelLookAheadMatcherINS_13SortedMatcherINS_8ConstFstINS_6ArcTplINS_17TropicalWeightTplIfEEEEjEEEELj1760ENS_18FastLogAccumulatorIS6_EENS_14LabelReachableIS6_SA_NS_18LabelReachableDataIiEEEEE6GetFstEv
   469: 00000000001e18b0   201 FUNC    WEAK   DEFAULT   12 _ZNSt23_Sp_counted_ptr_inplaceIN3fst8internal14ComposeFstImplINS0_17DefaultCacheStoreINS0_6ArcTplINS0_17TropicalWeightTplIfEEEEEENS0_24AltSequenceComposeFilterINS0_7MatcherINS0_3FstIS7_EEEESD_EENS0_24GenericComposeStateTableIS7_NS0_18IntegerFilterStateIaEENS0_24DefaultComposeStateTupleIiSH_EENS0_21CompactHashStateTableISJ_NS0_11ComposeHashISJ_EEEEEEEESaIvELN9__gnu_cxx12_Lock_policyE2EE10_M_disposeEv
   470: 0000000000240d38    24 OBJECT  WEAK   DEFAULT   21 _ZTIN3fst8internal13VectorFstImplINS_11VectorStateINS_6ArcTplINS_16LatticeWeightTplIfEEEESaIS6_EEEEE
   471: 00000000001ecc90  2196 FUNC    WEAK   DEFAULT   12 _ZN3fst9VectorFstINS_10ReverseArcINS_6ArcTplINS_17TropicalWeightTplIfEEEEEENS_11VectorStateIS6_SaIS6_EEEE8WriteFstISA_EEbRKT_RSoRKNS_15FstWriteOptionsE
   472: 00000000001a8550    10 FUNC    WEAK   DEFAULT   12 _ZNSt15_Sp_counted_ptrIPN3fst8internal9AddOnImplINS0_8ConstFstINS0_6ArcTplINS0_17TropicalWeightTplIfEEEEjEENS0_9AddOnPairINS0_18LabelReachableDataIiEESB_EEEELN9__gnu_cxx12_Lock_policyE2EED0Ev
   473: 00000000000fdd00     1 FUNC    WEAK   DEFAULT   12 _ZNSt23_Sp_counted_ptr_inplaceIN3fst8internal14ComposeFstImplINS0_17DefaultCacheStoreINS0_6ArcTplINS0_16LatticeWeightTplIfEEEEEENS0_24AltSequenceComposeFilterINS0_7MatcherINS0_3FstIS7_EEEESD_EENS0_24GenericComposeStateTableIS7_NS0_18IntegerFilterStateIaEENS0_24DefaultComposeStateTupleIiSH_EENS0_21CompactHashStateTableISJ_NS0_11ComposeHashISJ_EEEEEEEESaIvELN9__gnu_cxx12_Lock_policyE2EED2Ev
   474: 000000000010b0c0   117 FUNC    WEAK   DEFAULT   12 _ZN3fst10MemoryPoolINS_8internal8DfsStateINS_3FstINS_6ArcTplINS_23CompactLatticeWeightTplINS_16LatticeWeightTplIfEEiEEEEEEEEED1Ev
   475: 0000000000115c50   191 FUNC    WEAK   DEFAULT   12 _ZN3fst11ArcIteratorINS_3FstINS_6ArcTplINS_23CompactLatticeWeightTplINS_16LatticeWeightTplIfEEiEEEEEEEC1ERKS8_i
   476: 000000000020ccc0   183 OBJECT  WEAK   DEFAULT   14 _ZTSSt23_Sp_counted_ptr_inplaceIN3fst8internal13VectorFstImplINS0_11VectorStateINS0_10ReverseArcINS0_6ArcTplINS0_17TropicalWeightTplIfEEEEEESaIS9_EEEEESaIvELN9__gnu_cxx12_Lock_policyE2EE
   477: 0000000000133830   431 FUNC    WEAK   DEFAULT   12 _ZNK3fst8internal14ComposeFstImplINS_17DefaultCacheStoreINS_6ArcTplINS_16LatticeWeightTplIfEEEEEENS_17NullComposeFilterINS_7MatcherINS_3FstIS6_EEEESC_EENS_24GenericComposeStateTableIS6_NS_18TrivialFilterStateENS_24DefaultComposeStateTupleIiSF_EENS_21CompactHashStateTableISH_NS_11ComposeHashISH_EEEEEEE11InitMatcherERKNS_10ComposeFstIS6_S7_EENS_9MatchTypeE
   478: 000000000017ebe0   216 FUNC    WEAK   DEFAULT   12 _ZN3fst8internal15MemoryArenaImplILm32EE8AllocateEm
   479: 00000000001004d0    10 FUNC    WEAK   DEFAULT   12 _ZN3fst18CacheStateIteratorINS_10ComposeFstINS_6ArcTplINS_17TropicalWeightTplIfEEEENS_17DefaultCacheStoreIS5_EEEEE5ResetEv
   480: 00000000001a8040    11 FUNC    WEAK   DEFAULT   12 _ZNK3fst9ImplToFstINS_8internal9AddOnImplINS_8ConstFstINS_6ArcTplINS_17TropicalWeightTplIfEEEEjEENS_9AddOnPairINS_18LabelReachableDataIiEESB_EEEENS_11ExpandedFstIS7_EEE13OutputSymbolsEv
   481: 000000000019c190    39 FUNC    WEAK   DEFAULT   12 _ZNSt6vectorIN3fst6ArcTplINS0_17TropicalWeightTplIfEEEESaIS4_EED2Ev
   482: 0000000000242fe8    48 OBJECT  WEAK   DEFAULT   21 _ZTVN3fst8internal9CacheImplINS_6ArcTplINS_16LatticeWeightTplIfEEEEEE
   483: 000000000013c750   103 FUNC    WEAK   DEFAULT   12 _ZN3fst8internal13ArcMapFstImplINS_6ArcTplINS_17TropicalWeightTplIfEEEENS2_INS_16LatticeWeightTplIfEEEENS_18StdToLatticeMapperIfEEED0Ev
   484: 00000000001024d0   170 FUNC    WEAK   DEFAULT   12 _ZNK3fst8internal14ComposeFstImplINS_17DefaultCacheStoreINS_6ArcTplINS_16LatticeWeightTplIfEEEEEENS_22LookAheadComposeFilterINS_21SequenceComposeFilterINS_16LookAheadMatcherINS_3FstIS6_EEEESD_EESD_SD_LNS_9MatchTypeE3EEENS_24GenericComposeStateTableIS6_NS_18IntegerFilterStateIaEENS_24DefaultComposeStateTupleIiSJ_EENS_21CompactHashStateTableISL_NS_11ComposeHashISL_EEEEEEE10PropertiesEm
   485: 00000000001b8fe0   227 FUNC    WEAK   DEFAULT   12 _ZN3fst8internal13VectorFstImplINS_11VectorStateINS_6ArcTplINS_17TropicalWeightTplIfEEEESaIS6_EEEE8SetFinalEiS5_
   486: 00000000000ff180    11 FUNC    WEAK   DEFAULT   12 _ZNK3fst9ImplToFstINS_8internal13VectorFstImplINS_11VectorStateINS_6ArcTplINS_17TropicalWeightTplIfEEEESaIS7_EEEEENS_10MutableFstIS7_EEE4TypeB5cxx11Ev
   487: 0000000000163f10   410 FUNC    WEAK   DEFAULT   12 _ZN3fst16ImplToMutableFstINS_8internal13VectorFstImplINS_11VectorStateINS_6ArcTplINS_16LatticeWeightTplIfEEEESaIS7_EEEEENS_10MutableFstIS7_EEE9AddStatesEm
   488: 00000000000fe660    11 FUNC    WEAK   DEFAULT   12 _ZNK3fst16ImplToMutableFstINS_8internal13VectorFstImplINS_11VectorStateINS_10ReverseArcINS_6ArcTplINS_16LatticeWeightTplIfEEEEEESaIS9_EEEEENS_10MutableFstIS9_EEE12InputSymbolsEv
   489: 0000000000246d50    24 OBJECT  WEAK   DEFAULT   21 _ZTIN3fst8internal14ComposeFstImplINS_17DefaultCacheStoreINS_6ArcTplINS_17TropicalWeightTplIfEEEEEENS_24AltSequenceComposeFilterINS_7MatcherINS_3FstIS6_EEEESC_EENS_24GenericComposeStateTableIS6_NS_18IntegerFilterStateIaEENS_24DefaultComposeStateTupleIiSG_EENS_21CompactHashStateTableISI_NS_11ComposeHashISI_EEEEEEEE
   490: 0000000000101b30    10 FUNC    WEAK   DEFAULT   12 _ZNSt23_Sp_counted_ptr_inplaceIN3fst8internal14ComposeFstImplINS0_17DefaultCacheStoreINS0_6ArcTplINS0_16LatticeWeightTplIfEEEEEENS0_20TrivialComposeFilterINS0_7MatcherINS0_3FstIS7_EEEESD_EENS0_24GenericComposeStateTableIS7_NS0_18TrivialFilterStateENS0_24DefaultComposeStateTupleIiSG_EENS0_21CompactHashStateTableISI_NS0_11ComposeHashISI_EEEEEEEESaIvELN9__gnu_cxx12_Lock_policyE2EED0Ev
   491: 0000000000241630    16 OBJECT  WEAK   DEFAULT   21 _ZTIN3fst15ArcIteratorBaseINS_10ReverseArcINS_6ArcTplINS_23CompactLatticeWeightTplINS_16LatticeWeightTplIfEEiEEEEEEEE
   492: 00000000001c9fc0     3 FUNC    GLOBAL DEFAULT   12 vosk_batch_recognizer_front_result
   493: 000000000010e610   231 FUNC    WEAK   DEFAULT   12 _ZN3fst8internal7FstImplINS_6ArcTplINS_17TropicalWeightTplIfEEEEED2Ev
   494: 00000000001953a0   873 FUNC    WEAK   DEFAULT   12 _ZN3fst8internal22DeterminizeFstImplBaseINS_10ReverseArcINS_6ArcTplINS_16LatticeWeightTplIfEEEEEEEC2ERKS8_
   495: 00000000001867c0   192 FUNC    WEAK   DEFAULT   12 _ZNK3fst9ImplToFstINS_8internal13ArcMapFstImplINS_6ArcTplINS_17TropicalWeightTplIfEEEES6_NS_28RemoveSomeInputSymbolsMapperIS6_iEEEENS_3FstIS6_EEE7NumArcsEi
   496: 00000000001ef5e0   231 FUNC    WEAK   DEFAULT   12 _ZNK3fst9ImplToFstINS_8internal22DeterminizeFstImplBaseINS_10ReverseArcINS_6ArcTplINS_17TropicalWeightTplIfEEEEEEEENS_3FstIS8_EEE5StartEv
   497: 0000000000241258    24 OBJECT  WEAK   DEFAULT   21 _ZTIN3fst10MemoryPoolINS_8internal8DfsStateINS_3FstINS_6ArcTplINS_16LatticeWeightTplIfEEEEEEEEEE
   498: 00000000001a7ee0    10 FUNC    WEAK   DEFAULT   12 _ZNK3fst9ImplToFstINS_8internal12NGramFstImplINS_6ArcTplINS_17TropicalWeightTplIfEEEEEENS_11ExpandedFstIS6_EEE17NumOutputEpsilonsEi
   499: 00000000001d3730    75 FUNC    WEAK   DEFAULT   12 _ZNSt23_Sp_counted_ptr_inplaceIN3fst13StringPrinterINS0_6ArcTplINS0_17TropicalWeightTplIfEEEEEESaIvELN9__gnu_cxx12_Lock_policyE2EE14_M_get_deleterERKSt9type_info
   500: 00000000001a83e0    23 FUNC    WEAK   DEFAULT   12 _ZN3fst15NGramFstMatcherINS_6ArcTplINS_17TropicalWeightTplIfEEEEE4NextEv
   501: 00000000001dde30   422 FUNC    WEAK   DEFAULT   12 _ZNK3fst8internal14ComposeFstImplINS_17DefaultCacheStoreINS_6ArcTplINS_17TropicalWeightTplIfEEEEEENS_18MatchComposeFilterINS_7MatcherINS_3FstIS6_EEEESC_EENS_24GenericComposeStateTableIS6_NS_18IntegerFilterStateIaEENS_24DefaultComposeStateTupleIiSG_EENS_21CompactHashStateTableISI_NS_11ComposeHashISI_EEEEEEE11InitMatcherERKNS_10ComposeFstIS6_S7_EENS_9MatchTypeE
   502: 000000000020ba20   153 OBJECT  WEAK   DEFAULT   14 _ZTSSt15_Sp_counted_ptrIPN3fst8internal22DeterminizeFstImplBaseINS0_10ReverseArcINS0_6ArcTplINS0_17TropicalWeightTplIfEEEEEEEELN9__gnu_cxx12_Lock_policyE2EE
   503: 0000000000245340    40 OBJECT  WEAK   DEFAULT   21 _ZTVN3fst10MemoryPoolINS_13PoolAllocatorINS_6ArcTplINS_16LatticeWeightTplIfEEEEE2TNILi4EEEEE
   504: 00000000000fda10     3 FUNC    WEAK   DEFAULT   12 _ZNK3fst3FstINS_6ArcTplINS_17TropicalWeightTplIfEEEEE11InitMatcherENS_9MatchTypeE
   505: 0000000000193850   156 FUNC    WEAK   DEFAULT   12 _ZN3fst8internal18ComposeFstImplBaseINS_6ArcTplINS_16LatticeWeightTplIfEEEENS_17DefaultCacheStoreIS5_EENS_10ComposeFstIS5_S7_EEEC1ERKSA_
   506: 00000000001de370   345 FUNC    WEAK   DEFAULT   12 _ZN3fst20MemoryPoolCollection4PoolINS_13PoolAllocatorINS_10CacheStateINS_10ReverseArcINS_6ArcTplINS_17TropicalWeightTplIfEEEEEENS2_IS9_EEEEE2TNILi1EEEEEPNS_10MemoryPoolIT_EEv
   507: 00000000001080e0   195 FUNC    WEAK   DEFAULT   12 _ZNK3fst8internal14ComposeFstImplINS_17DefaultCacheStoreINS_6ArcTplINS_16LatticeWeightTplIfEEEEEENS_22LookAheadComposeFilterINS_21SequenceComposeFilterINS_16LookAheadMatcherINS_3FstIS6_EEEESD_EESD_SD_LNS_9MatchTypeE3EEENS_24GenericComposeStateTableIS6_NS_18IntegerFilterStateIaEENS_24DefaultComposeStateTupleIiSJ_EENS_21CompactHashStateTableISL_NS_11ComposeHashISL_EEEEEEE10PropertiesEv
   508: 0000000000145fd0  1352 FUNC    WEAK   DEFAULT   12 _ZN3fst16VectorCacheStoreINS_10CacheStateINS_10ReverseArcINS_6ArcTplINS_16LatticeWeightTplIfEEEEEENS_13PoolAllocatorIS7_EEEEEC2ERKNS_12CacheOptionsE
   509: 00000000001d5a70   701 FUNC    WEAK   DEFAULT   12 _ZN3fst8internal20ConvertSymbolToLabelIiEEbPKcPKNS_11SymbolTableET_bPS7_
   510: 00000000001481a0  1034 FUNC    WEAK   DEFAULT   12 _ZNK3fst3FstINS_10ReverseArcINS_6ArcTplINS_16LatticeWeightTplIfEEEEEEE9WriteFileERKNSt7__cxx1112basic_stringIcSt11char_traitsIcESaIcEEE
   511: 0000000000114170   302 FUNC    WEAK   DEFAULT   12 _ZN3fst17GraphLatticeScaleEd
   512: 00000000001dfac0   323 FUNC    WEAK   DEFAULT   12 _ZN3fst8internal18DeterminizeFsaImplINS_10ReverseArcINS_6ArcTplINS_17TropicalWeightTplIfEEEEEENS_20DefaultCommonDivisorIS5_EENS_24DefaultDeterminizeFilterIS7_EENS_28DefaultDeterminizeStateTableIS7_NS_18IntegerFilterStateIaEEEEED2Ev
   513: 00000000001af180   466 FUNC    WEAK   DEFAULT   12 _ZN3fst9VectorFstINS_6ArcTplINS_17TropicalWeightTplIfEEEENS_11VectorStateIS4_SaIS4_EEEEC2Ev
   514: 000000000014ac40   432 FUNC    WEAK   DEFAULT   12 _ZN3fst11CountStatesINS_10ReverseArcINS_6ArcTplINS_16LatticeWeightTplIfEEEEEEEENT_7StateIdERKNS_3FstIS7_EE
   515: 0000000000113a60    91 FUNC    WEAK   DEFAULT   12 _ZNSt6vectorIN3fst9VectorFstINS0_6ArcTplINS0_16LatticeWeightTplIfEEEENS0_11VectorStateIS5_SaIS5_EEEEESaIS9_EED1Ev
   516: 00000000001d4060   117 FUNC    WEAK   DEFAULT   12 _ZN3fst10MemoryPoolINS_13PoolAllocatorINS_10ReverseArcINS_6ArcTplINS_17TropicalWeightTplIfEEEEEEE2TNILi4EEEED2Ev
   517: 00000000001092c0    75 FUNC    WEAK   DEFAULT   12 _ZNSt23_Sp_counted_ptr_inplaceIN3fst8internal13ArcMapFstImplINS0_6ArcTplINS0_17TropicalWeightTplIfEEEENS3_INS0_16LatticeWeightTplIfEEEENS0_18StdToLatticeMapperIfEEEESaIvELN9__gnu_cxx12_Lock_policyE2EE14_M_get_deleterERKSt9type_info
   518: 0000000000109090    75 FUNC    WEAK   DEFAULT   12 _ZNSt23_Sp_counted_ptr_inplaceIN3fst8internal18DeterminizeFsaImplINS0_10ReverseArcINS0_6ArcTplINS0_16LatticeWeightTplIfEEEEEENS0_20DefaultCommonDivisorIS6_EENS0_24DefaultDeterminizeFilterIS8_EENS0_28DefaultDeterminizeStateTableIS8_NS0_18IntegerFilterStateIaEEEEEESaIvELN9__gnu_cxx12_Lock_policyE2EE14_M_get_deleterERKSt9type_info
   519: 00000000002440d8    88 OBJECT  WEAK   DEFAULT   21 _ZTVN3fst8internal14ComposeFstImplINS_17DefaultCacheStoreINS_6ArcTplINS_16LatticeWeightTplIfEEEEEENS_18MatchComposeFilterINS_7MatcherINS_3FstIS6_EEEESC_EENS_24GenericComposeStateTableIS6_NS_18IntegerFilterStateIaEENS_24DefaultComposeStateTupleIiSG_EENS_21CompactHashStateTableISI_NS_11ComposeHashISI_EEEEEEEE
   520: 0000000000245bc8    48 OBJECT  WEAK   DEFAULT   21 _ZTVN3fst29MutableFastLogAccumulatorDataE
   521: 00000000001e1540   173 FUNC    WEAK   DEFAULT   12 _ZN3fst8internal14ComposeFstImplINS_17DefaultCacheStoreINS_6ArcTplINS_17TropicalWeightTplIfEEEEEENS_20NoMatchComposeFilterINS_7MatcherINS_3FstIS6_EEEESC_EENS_24GenericComposeStateTableIS6_NS_18TrivialFilterStateENS_24DefaultComposeStateTupleIiSF_EENS_21CompactHashStateTableISH_NS_11ComposeHashISH_EEEEEEED0Ev
   522: 00000000001ae720    70 FUNC    WEAK   DEFAULT   12 _ZN3fst8internal9AddOnImplINS_8ConstFstINS_6ArcTplINS_17TropicalWeightTplIfEEEEjEENS_9AddOnPairINS_18LabelReachableDataIiEESA_EEED2Ev
   523: 00000000001ad670  1666 FUNC    WEAK   DEFAULT   12 _ZN5kaldi22PitchExtractionOptions8RegisterEPNS_10OptionsItfE
   524: 000000000010f5b0   367 FUNC    WEAK   DEFAULT   12 _ZN3fst8internal13VectorFstImplINS_11VectorStateINS_10ReverseArcINS_6ArcTplINS_16LatticeWeightTplIfEEEEEESaIS8_EEEED2Ev
   525: 0000000000244e58    40 OBJECT  WEAK   DEFAULT   21 _ZTVN3fst10MemoryPoolINS_13PoolAllocatorINS_10CacheStateINS_6ArcTplINS_17TropicalWeightTplIfEEEENS1_IS6_EEEEE2TNILi1EEEEE
   526: 000000000011b1e0    67 FUNC    WEAK   DEFAULT   12 _ZN3fst10MemoryPoolINS_13PoolAllocatorINS_6ArcTplINS_17TropicalWeightTplIfEEEEE2TNILi16EEEED0Ev
   527: 00000000001d7d30    67 FUNC    WEAK   DEFAULT   12 _ZN3fst10MemoryPoolINS_13PoolAllocatorINS_10ReverseArcINS_6ArcTplINS_17TropicalWeightTplIfEEEEEEE2TNILi16EEEED0Ev
   528: 00000000001b0f80   130 FUNC    WEAK   DEFAULT   12 _ZN3fst13SortedMatcherINS_8ConstFstINS_6ArcTplINS_17TropicalWeightTplIfEEEEjEEED2Ev
   529: 0000000000101a60    10 FUNC    WEAK   DEFAULT   12 _ZNSt23_Sp_counted_ptr_inplaceIN3fst8internal13VectorFstImplINS0_11VectorStateINS0_6ArcTplINS0_17TropicalWeightTplIfEEEESaIS7_EEEEESaIvELN9__gnu_cxx12_Lock_policyE2EED0Ev
   530: 0000000000246df8    24 OBJECT  WEAK   DEFAULT   21 _ZTISt23_Sp_counted_ptr_inplaceIN3fst8internal14ComposeFstImplINS0_17DefaultCacheStoreINS0_6ArcTplINS0_17TropicalWeightTplIfEEEEEENS0_24AltSequenceComposeFilterINS0_7MatcherINS0_3FstIS7_EEEESD_EENS0_24GenericComposeStateTableIS7_NS0_18IntegerFilterStateIaEENS0_24DefaultComposeStateTupleIiSH_EENS0_21CompactHashStateTableISJ_NS0_11ComposeHashISJ_EEEEEEEESaIvELN9__gnu_cxx12_Lock_policyE2EE
   531: 0000000000209000   107 OBJECT  WEAK   DEFAULT   14 _ZTSN3fst10MemoryPoolINS_13PoolAllocatorINS_10ReverseArcINS_6ArcTplINS_16LatticeWeightTplIfEEEEEEE2TNILi4EEEEE
   532: 0000000000245f48    48 OBJECT  WEAK   DEFAULT   21 _ZTVN3fst8internal9AddOnImplINS_8ConstFstINS_6ArcTplINS_17TropicalWeightTplIfEEEEjEENS_9AddOnPairINS_18LabelReachableDataIiEESA_EEEE
   533: 0000000000241438    24 OBJECT  WEAK   DEFAULT   21 _ZTIN3fst8internal14ComposeFstImplINS_17DefaultCacheStoreINS_6ArcTplINS_17TropicalWeightTplIfEEEEEENS_23PushLabelsComposeFilterINS_24PushWeightsComposeFilterINS_22LookAheadComposeFilterINS_21SequenceComposeFilterINS_16LookAheadMatcherINS_3FstIS6_EEEESF_EESF_SF_LNS_9MatchTypeE3EEESF_SF_LSH_3EEESF_SF_LSH_3EEENS_24GenericComposeStateTableIS6_NS_15PairFilterStateINSM_INS_18IntegerFilterStateIaEENS_17WeightFilterStateIS5_EEEENSN_IiEEEENS_24DefaultComposeStateTupleIiST_EENS_21CompactHashStateTableISV_NS_11ComposeHashISV_EEEEEEEE
   534: 000000000010c900   134 FUNC    WEAK   DEFAULT   12 _ZN10LogMessageD2Ev
   535: 0000000000208240    40 OBJECT  WEAK   DEFAULT   14 _ZTSN3fst8internal15MemoryArenaImplILm72EEE
   536: 0000000000109310    75 FUNC    WEAK   DEFAULT   12 _ZNSt23_Sp_counted_ptr_inplaceIN3fst8internal13ArcMapFstImplINS0_6ArcTplINS0_17TropicalWeightTplIfEEEES6_NS0_28RemoveSomeInputSymbolsMapperIS6_iEEEESaIvELN9__gnu_cxx12_Lock_policyE2EE14_M_get_deleterERKSt9type_info
   537: 00000000001e7380  1740 FUNC    WEAK   DEFAULT   12 _ZN3fst8internal13VectorFstImplINS_11VectorStateINS_10ReverseArcINS_6ArcTplINS_17TropicalWeightTplIfEEEEEESaIS8_EEEEC1ERKNS_3FstIS8_EE
   538: 0000000000245b80    24 OBJECT  WEAK   DEFAULT   21 _ZTISt23_Sp_counted_ptr_inplaceIN3fst9AddOnPairINS0_18LabelReachableDataIiEES3_EESaIvELN9__gnu_cxx12_Lock_policyE2EE
   539: 0000000000243510    80 OBJECT  WEAK   DEFAULT   21 _ZTVN3fst9LifoQueueIiEE
   540: 000000000011b590    67 FUNC    WEAK   DEFAULT   12 _ZN3fst10MemoryPoolINS_13PoolAllocatorIPNSt8__detail15_Hash_node_baseEE2TNILi4EEEED0Ev
   541: 0000000000131ba0   237 FUNC    WEAK   DEFAULT   12 _ZN3fst22LookAheadComposeFilterINS_21SequenceComposeFilterINS_16LookAheadMatcherINS_3FstINS_6ArcTplINS_17TropicalWeightTplIfEEEEEEEES9_EES9_S9_LNS_9MatchTypeE3EED2Ev
   542: 00000000001d0cb0     1 FUNC    WEAK   DEFAULT   12 _ZNSt23_Sp_counted_ptr_inplaceIN3fst8internal13VectorFstImplINS0_11VectorStateINS0_10ReverseArcINS0_6ArcTplINS0_17TropicalWeightTplIfEEEEEESaIS9_EEEEESaIvELN9__gnu_cxx12_Lock_policyE2EED1Ev
   543: 0000000000240cc8    24 OBJECT  WEAK   DEFAULT   21 _ZTIN3fst17ImplToExpandedFstINS_8internal13VectorFstImplINS_11VectorStateINS_6ArcTplINS_23CompactLatticeWeightTplINS_16LatticeWeightTplIfEEiEEEESaIS9_EEEEENS_10MutableFstIS9_EEEE
   544: 000000000011aeb0    67 FUNC    WEAK   DEFAULT   12 _ZN3fst8internal14MemoryPoolImplILm24EED0Ev
   545: 00000000001d1590     8 FUNC    WEAK   DEFAULT   12 _ZN3fst18MutableArcIteratorINS_9VectorFstINS_10ReverseArcINS_6ArcTplINS_17TropicalWeightTplIfEEEEEENS_11VectorStateIS7_SaIS7_EEEEEE4NextEv
   546: 000000000010cbb0   263 FUNC    WEAK   DEFAULT   12 _ZNK3fst3FstINS_10ReverseArcINS_6ArcTplINS_16LatticeWeightTplIfEEEEEEE5WriteERKNSt7__cxx1112basic_stringIcSt11char_traitsIcESaIcEEE
   547: 0000000000240f68    24 OBJECT  WEAK   DEFAULT   21 _ZTIN3fst9ImplToFstINS_8internal18ComposeFstImplBaseINS_6ArcTplINS_16LatticeWeightTplIfEEEENS_17DefaultCacheStoreIS6_EENS_10ComposeFstIS6_S8_EEEENS_3FstIS6_EEEE
   548: 00000000001d0cf0   148 FUNC    WEAK   DEFAULT   12 _ZN3fst8internal14ComposeFstImplINS_17DefaultCacheStoreINS_6ArcTplINS_17TropicalWeightTplIfEEEEEENS_20TrivialComposeFilterINS_7MatcherINS_3FstIS6_EEEESC_EENS_24GenericComposeStateTableIS6_NS_18TrivialFilterStateENS_24DefaultComposeStateTupleIiSF_EENS_21CompactHashStateTableISH_NS_11ComposeHashISH_EEEEEEE12ComputeFinalEi
   549: 0000000000132b90   228 FUNC    WEAK   DEFAULT   12 _ZN3fst7MatcherINS_3FstINS_6ArcTplINS_16LatticeWeightTplIfEEEEEEEC1ERKS6_NS_9MatchTypeE
   550: 000000000013e040  1769 FUNC    WEAK   DEFAULT   12 _ZNSt8__detail16_Hashtable_allocIN3fst13PoolAllocatorINS_10_Hash_nodeIiLb1EEEEEE19_M_allocate_bucketsEm
   551: 00000000002012a0   368 OBJECT  WEAK   DEFAULT   14 _ZTSN3fst17ComposeFstMatcherINS_17DefaultCacheStoreINS_6ArcTplINS_16LatticeWeightTplIfEEEEEENS_22LookAheadComposeFilterINS_24AltSequenceComposeFilterINS_16LookAheadMatcherINS_3FstIS5_EEEESC_EESC_SC_LNS_9MatchTypeE3EEENS_24GenericComposeStateTableIS5_NS_18IntegerFilterStateIaEENS_24DefaultComposeStateTupleIiSI_EENS_21CompactHashStateTableISK_NS_11ComposeHashISK_EEEEEEEE
   552: 0000000000101ac0    10 FUNC    WEAK   DEFAULT   12 _ZNSt23_Sp_counted_ptr_inplaceIN3fst8internal13VectorFstImplINS0_11VectorStateINS0_10ReverseArcINS0_6ArcTplINS0_16LatticeWeightTplIfEEEEEESaIS9_EEEEESaIvELN9__gnu_cxx12_Lock_policyE2EED0Ev
   553: 0000000000102580    90 FUNC    WEAK   DEFAULT   12 _ZNK3fst8internal18DeterminizeFsaImplINS_10ReverseArcINS_6ArcTplINS_16LatticeWeightTplIfEEEEEENS_20DefaultCommonDivisorIS5_EENS_24DefaultDeterminizeFilterIS7_EENS_28DefaultDeterminizeStateTableIS7_NS_18IntegerFilterStateIaEEEEE10PropertiesEm
   554: 000000000010dfa0    37 FUNC    WEAK   DEFAULT   12 _ZN3fst14DeterminizeFstINS_10ReverseArcINS_6ArcTplINS_16LatticeWeightTplIfEEEEEEED1Ev
   555: 0000000000101b90    10 FUNC    WEAK   DEFAULT   12 _ZNSt23_Sp_counted_ptr_inplaceIN3fst8internal18DeterminizeFsaImplINS0_10ReverseArcINS0_6ArcTplINS0_16LatticeWeightTplIfEEEEEENS0_20DefaultCommonDivisorIS6_EENS0_24DefaultDeterminizeFilterIS8_EENS0_28DefaultDeterminizeStateTableIS8_NS0_18IntegerFilterStateIaEEEEEESaIvELN9__gnu_cxx12_Lock_policyE2EED0Ev
   556: 0000000000145fd0  1352 FUNC    WEAK   DEFAULT   12 _ZN3fst16VectorCacheStoreINS_10CacheStateINS_10ReverseArcINS_6ArcTplINS_16LatticeWeightTplIfEEEEEENS_13PoolAllocatorIS7_EEEEEC1ERKNS_12CacheOptionsE
   557: 00000000001d1620   283 FUNC    WEAK   DEFAULT   12 _ZNK3fst17ComposeFstMatcherINS_17DefaultCacheStoreINS_6ArcTplINS_17TropicalWeightTplIfEEEEEENS_17NullComposeFilterINS_7MatcherINS_3FstIS5_EEEESB_EENS_24GenericComposeStateTableIS5_NS_18TrivialFilterStateENS_24DefaultComposeStateTupleIiSE_EENS_21CompactHashStateTableISG_NS_11ComposeHashISG_EEEEEEE4TypeEb
   558: 0000000000104720    10 FUNC    WEAK   DEFAULT   12 _ZNSt23_Sp_counted_ptr_inplaceIN3fst8internal14ComposeFstImplINS0_17DefaultCacheStoreINS0_6ArcTplINS0_16LatticeWeightTplIfEEEEEENS0_22LookAheadComposeFilterINS0_24AltSequenceComposeFilterINS0_16LookAheadMatcherINS0_3FstIS7_EEEESE_EESE_SE_LNS0_9MatchTypeE3EEENS0_24GenericComposeStateTableIS7_NS0_18IntegerFilterStateIaEENS0_24DefaultComposeStateTupleIiSK_EENS0_21CompactHashStateTableISM_NS0_11ComposeHashISM_EEEEEEEESaIvELN9__gnu_cxx12_Lock_policyE2EE10_M_destroyEv
   559: 000000000013ed60  1578 FUNC    WEAK   DEFAULT   12 _ZN3fst8internal14ComposeFstImplINS_17DefaultCacheStoreINS_6ArcTplINS_16LatticeWeightTplIfEEEEEENS_22LookAheadComposeFilterINS_24AltSequenceComposeFilterINS_16LookAheadMatcherINS_3FstIS6_EEEESD_EESD_SD_LNS_9MatchTypeE3EEENS_24GenericComposeStateTableIS6_NS_18IntegerFilterStateIaEENS_24DefaultComposeStateTupleIiSJ_EENS_21CompactHashStateTableISL_NS_11ComposeHashISL_EEEEEEEC2ISD_SD_EERKSC_SU_RKNS_21ComposeFstImplOptionsIT_T0_SG_SQ_S7_EE
   560: 000000000010aa40   117 FUNC    WEAK   DEFAULT   12 _ZN3fst10MemoryPoolINS_13PoolAllocatorINS_10ReverseArcINS_6ArcTplINS_16LatticeWeightTplIfEEEEEEE2TNILi1EEEED1Ev
   561: 0000000000134310   301 FUNC    WEAK   DEFAULT   12 _ZNSt10unique_ptrIN3fst23PushLabelsComposeFilterINS0_24PushWeightsComposeFilterINS0_22LookAheadComposeFilterINS0_24AltSequenceComposeFilterINS0_16LookAheadMatcherINS0_3FstINS0_6ArcTplINS0_17TropicalWeightTplIfEEEEEEEESC_EESC_SC_LNS0_9MatchTypeE3EEESC_SC_LSE_3EEESC_SC_LSE_3EEESt14default_deleteISH_EED2Ev
   562: 00000000000fedb0    21 FUNC    WEAK   DEFAULT   12 _ZNK3fst10ComposeFstINS_6ArcTplINS_17TropicalWeightTplIfEEEENS_17DefaultCacheStoreIS4_EEE11InitMatcherENS_9MatchTypeE
   563: 000000000010c3c0   117 FUNC    WEAK   DEFAULT   12 _ZN3fst10MemoryPoolINS_8internal8DfsStateINS_10MutableFstINS_6ArcTplINS_23CompactLatticeWeightTplINS_16LatticeWeightTplIfEEiEEEEEEEEED2Ev
   564: 00000000000ff1b0    62 FUNC    WEAK   DEFAULT   12 _ZNK3fst9VectorFstINS_6ArcTplINS_17TropicalWeightTplIfEEEENS_11VectorStateIS4_SaIS4_EEEE17InitStateIteratorEPNS_17StateIteratorDataIS4_EE
   565: 0000000000120f90   249 FUNC    WEAK   DEFAULT   12 _ZN3fst8internal21ShortestDistanceStateINS_6ArcTplINS_23CompactLatticeWeightTplINS_16LatticeWeightTplIfEEiEEEENS_9AutoQueueIiEENS_12AnyArcFilterIS7_EENS_17WeightApproxEqualEED1Ev
   566: 00000000001052b0   104 FUNC    WEAK   DEFAULT   12 _ZNK3fst8internal18DeterminizeFsaImplINS_10ReverseArcINS_6ArcTplINS_16LatticeWeightTplIfEEEEEENS_20DefaultCommonDivisorIS5_EENS_24DefaultDeterminizeFilterIS7_EENS_28DefaultDeterminizeStateTableIS7_NS_18IntegerFilterStateIaEEEEE10PropertiesEv
   567: 0000000000240828    64 OBJECT  WEAK   DEFAULT   21 _ZTVN3fst13StateIteratorINS_9ArcMapFstINS_6ArcTplINS_17TropicalWeightTplIfEEEES5_NS_28RemoveSomeInputSymbolsMapperIS5_iEEEEEE
   568: 00000000000fdbf0     6 FUNC    WEAK   DEFAULT   12 _ZNK3fst8internal15MemoryArenaImplILm136EE4SizeEv
   569: 0000000000133d10   228 FUNC    WEAK   DEFAULT   12 _ZN3fst7MatcherINS_3FstINS_6ArcTplINS_17TropicalWeightTplIfEEEEEEEC1ERKS6_NS_9MatchTypeE
   570: 000000000016e850   338 FUNC    WEAK   DEFAULT   12 _ZN3fst16ImplToMutableFstINS_8internal13VectorFstImplINS_11VectorStateINS_10ReverseArcINS_6ArcTplINS_23CompactLatticeWeightTplINS_16LatticeWeightTplIfEEiEEEEEESaISB_EEEEENS_10MutableFstISB_EEE13ReserveStatesEm
   571: 0000000000134440   301 FUNC    WEAK   DEFAULT   12 _ZNSt10unique_ptrIN3fst23PushLabelsComposeFilterINS0_24PushWeightsComposeFilterINS0_22LookAheadComposeFilterINS0_21SequenceComposeFilterINS0_16LookAheadMatcherINS0_3FstINS0_6ArcTplINS0_17TropicalWeightTplIfEEEEEEEESC_EESC_SC_LNS0_9MatchTypeE3EEESC_SC_LSE_3EEESC_SC_LSE_3EEESt14default_deleteISH_EED2Ev
   572: 000000000018ac10  2061 FUNC    WEAK   DEFAULT   12 _ZN3fst8internal14ComposeFstImplINS_17DefaultCacheStoreINS_6ArcTplINS_16LatticeWeightTplIfEEEEEENS_22LookAheadComposeFilterINS_21SequenceComposeFilterINS_16LookAheadMatcherINS_3FstIS6_EEEESD_EESD_SD_LNS_9MatchTypeE3EEENS_24GenericComposeStateTableIS6_NS_18IntegerFilterStateIaEENS_24DefaultComposeStateTupleIiSJ_EENS_21CompactHashStateTableISL_NS_11ComposeHashISL_EEEEEEE8MatchArcISD_EEviPT_RKS6_b
   573: 0000000000203de0   129 OBJECT  WEAK   DEFAULT   14 _ZTSN3fst8internal18ComposeFstImplBaseINS_6ArcTplINS_17TropicalWeightTplIfEEEENS_17DefaultCacheStoreIS5_EENS_10ComposeFstIS5_S7_EEEE
   574: 0000000000247708    56 OBJECT  WEAK   DEFAULT   21 _ZTVSt15_Sp_counted_ptrIPN3fst9VectorFstINS0_6ArcTplINS0_17TropicalWeightTplIfEEEENS0_11VectorStateIS5_SaIS5_EEEEELN9__gnu_cxx12_Lock_policyE2EE
   575: 00000000002023a0   112 OBJECT  WEAK   DEFAULT   14 _ZTSN3fst18MutableArcIteratorINS_9VectorFstINS_6ArcTplINS_16LatticeWeightTplIfEEEENS_11VectorStateIS5_SaIS5_EEEEEEE
   576: 000000000011ae80    42 FUNC    WEAK   DEFAULT   12 _ZN3fst8internal15MemoryArenaImplILm32EED0Ev
   577: 000000000013c210   177 FUNC    WEAK   DEFAULT   12 _ZN3fst8internal14ComposeFstImplINS_17DefaultCacheStoreINS_6ArcTplINS_16LatticeWeightTplIfEEEEEENS_22LookAheadComposeFilterINS_21SequenceComposeFilterINS_16LookAheadMatcherINS_3FstIS6_EEEESD_EESD_SD_LNS_9MatchTypeE3EEENS_24GenericComposeStateTableIS6_NS_18IntegerFilterStateIaEENS_24DefaultComposeStateTupleIiSJ_EENS_21CompactHashStateTableISL_NS_11ComposeHashISL_EEEEEEED2Ev
   578: 00000000002414b8    24 OBJECT  WEAK   DEFAULT   21 _ZTIN3fst11ExpandedFstINS_10ReverseArcINS_6ArcTplINS_23CompactLatticeWeightTplINS_16LatticeWeightTplIfEEiEEEEEEEE
   579: 000000000013d170   201 FUNC    WEAK   DEFAULT   12 _ZNSt23_Sp_counted_ptr_inplaceIN3fst8internal14ComposeFstImplINS0_17DefaultCacheStoreINS0_6ArcTplINS0_16LatticeWeightTplIfEEEEEENS0_17NullComposeFilterINS0_7MatcherINS0_3FstIS7_EEEESD_EENS0_24GenericComposeStateTableIS7_NS0_18TrivialFilterStateENS0_24DefaultComposeStateTupleIiSG_EENS0_21CompactHashStateTableISI_NS0_11ComposeHashISI_EEEEEEEESaIvELN9__gnu_cxx12_Lock_policyE2EE10_M_disposeEv
   580: 0000000000109d50   197 FUNC    WEAK   DEFAULT   12 _ZNK3fst9ImplToFstINS_8internal13VectorFstImplINS_11VectorStateINS_10ReverseArcINS_6ArcTplINS_23CompactLatticeWeightTplINS_16LatticeWeightTplIfEEiEEEEEESaISB_EEEEENS_10MutableFstISB_EEE5FinalEi
   581: 0000000000130b80   250 FUNC    WEAK   DEFAULT   12 _ZN3fst8internal7FstImplINS_10ReverseArcINS_6ArcTplINS_16LatticeWeightTplIfEEEEEEE15SetInputSymbolsEPKNS_11SymbolTableE
   582: 0000000000247bb8    40 OBJECT  WEAK   DEFAULT   21 _ZTVN3fst10MemoryPoolINS_13PoolAllocatorINS_10ReverseArcINS_6ArcTplINS_17TropicalWeightTplIfEEEEEEE2TNILi16EEEEE
   583: 000000000011b420    67 FUNC    WEAK   DEFAULT   12 _ZN3fst10MemoryPoolINS_13PoolAllocatorINS_6ArcTplINS_17TropicalWeightTplIfEEEEE2TNILi4EEEED0Ev
   584: 00000000000ff260    24 FUNC    WEAK   DEFAULT   12 _ZNK3fst11MatcherBaseINS_6ArcTplINS_17TropicalWeightTplIfEEEEE5FinalEi
   585: 0000000000243740    48 OBJECT  WEAK   DEFAULT   21 _ZTVN3fst8internal7FstImplINS_10ReverseArcINS_6ArcTplINS_16LatticeWeightTplIfEEEEEEEE
   586: 0000000000240ff8    24 OBJECT  WEAK   DEFAULT   21 _ZTIN3fst9FifoQueueIiEE
   587: 00000000001aab20   117 FUNC    WEAK   DEFAULT   12 _ZN3fst10MemoryPoolINS_11ArcIteratorINS_8ConstFstINS_6ArcTplINS_17TropicalWeightTplIfEEEEjEEEEED2Ev
   588: 00000000001002e0    25 FUNC    WEAK   DEFAULT   12 _ZNK3fst18MutableArcIteratorINS_9VectorFstINS_6ArcTplINS_23CompactLatticeWeightTplINS_16LatticeWeightTplIfEEiEEEENS_11VectorStateIS7_SaIS7_EEEEEE5ValueEv
   589: 000000000012b870   326 FUNC    WEAK   DEFAULT   12 _ZSt16__do_uninit_copyIPKN3fst6ArcTplINS0_23CompactLatticeWeightTplINS0_16LatticeWeightTplIfEEiEEEEPS6_ET0_T_SB_SA_
   590: 000000000011b9c0    67 FUNC    WEAK   DEFAULT   12 _ZN3fst10MemoryPoolINS_8internal8DfsStateINS_3FstINS_10ReverseArcINS_6ArcTplINS_23CompactLatticeWeightTplINS_16LatticeWeightTplIfEEiEEEEEEEEEEED0Ev
   591: 00000000002441e0    56 OBJECT  WEAK   DEFAULT   21 _ZTVSt23_Sp_counted_ptr_inplaceIN3fst8internal13VectorFstImplINS0_11VectorStateINS0_6ArcTplINS0_17TropicalWeightTplIfEEEESaIS7_EEEEESaIvELN9__gnu_cxx12_Lock_policyE2EE
   592: 000000000015fdc0   552 FUNC    WEAK   DEFAULT   12 _ZN3fst8internal7FstImplINS_10ReverseArcINS_6ArcTplINS_23CompactLatticeWeightTplINS_16LatticeWeightTplIfEEiEEEEEEE14WriteFstHeaderERKNS_3FstIS9_EERSoRKNS_15FstWriteOptionsEiRKNSt7__cxx1112basic_stringIcSt11char_traitsIcESaIcEEEmPNS_9FstHeaderE
   593: 000000000011ad10    67 FUNC    WEAK   DEFAULT   12 _ZN3fst10MemoryPoolINS_11ArcIteratorINS_3FstINS_6ArcTplINS_17TropicalWeightTplIfEEEEEEEEED0Ev
   594: 0000000000118d60  3730 FUNC    WEAK   DEFAULT   12 _ZN3fst8internal18SingleShortestPathINS_6ArcTplINS_16LatticeWeightTplIfEEEENS_9AutoQueueIiEENS_12AnyArcFilterIS5_EEEEbRKNS_3FstIT_EEPSt6vectorINSB_6WeightESaISG_EERKNS_19ShortestPathOptionsISB_T0_T1_EEPNSB_7StateIdEPSF_ISt4pairISQ_mESaIST_EE
   595: 00000000000fe730    11 FUNC    WEAK   DEFAULT   12 _ZNK3fst18ShortestFirstQueueIiNS_8internal18StateWeightCompareIiNS_11NaturalLessINS_16LatticeWeightTplIfEEEEEELb0EE5EmptyEv
   596: 00000000001b5ef0   290 FUNC    WEAK   DEFAULT   12 _ZNK3fst13SortedMatcherINS_8ConstFstINS_6ArcTplINS_17TropicalWeightTplIfEEEEjEEE4TypeEb
   597: 00000000002442a0    40 OBJECT  WEAK   DEFAULT   21 _ZTVN3fst10MemoryPoolINS_11ArcIteratorINS_3FstINS_6ArcTplINS_17TropicalWeightTplIfEEEEEEEEEE
   598: 0000000000244a30    40 OBJECT  WEAK   DEFAULT   21 _ZTVN3fst10MemoryPoolINS_11ArcIteratorINS_3FstINS_6ArcTplINS_16LatticeWeightTplIfEEEEEEEEEE
   599: 000000000011e4d0   504 FUNC    WEAK   DEFAULT   12 _ZNSt6vectorIN3fst19LatticeDeterminizerINS0_16LatticeWeightTplIfEEiE7ElementESaIS5_EE17_M_realloc_insertIJRKS5_EEEvN9__gnu_cxx17__normal_iteratorIPS5_S7_EEDpOT_
   600: 0000000000244f98    40 OBJECT  WEAK   DEFAULT   21 _ZTVN3fst10MemoryPoolINS_13PoolAllocatorIPNSt8__detail15_Hash_node_baseEE2TNILi2EEEEE
   601: 0000000000205ce0   528 OBJECT  WEAK   DEFAULT   14 _ZTSN3fst8internal14ComposeFstImplINS_17DefaultCacheStoreINS_6ArcTplINS_17TropicalWeightTplIfEEEEEENS_23PushLabelsComposeFilterINS_24PushWeightsComposeFilterINS_22LookAheadComposeFilterINS_24AltSequenceComposeFilterINS_16LookAheadMatcherINS_3FstIS6_EEEESF_EESF_SF_LNS_9MatchTypeE3EEESF_SF_LSH_3EEESF_SF_LSH_3EEENS_24GenericComposeStateTableIS6_NS_15PairFilterStateINSM_INS_18IntegerFilterStateIaEENS_17WeightFilterStateIS5_EEEENSN_IiEEEENS_24DefaultComposeStateTupleIiST_EENS_21CompactHashStateTableISV_NS_11ComposeHashISV_EEEEEEEE
   602: 00000000001167b0   375 FUNC    WEAK   DEFAULT   12 _ZNSt8_Rb_treeINSt7__cxx1112basic_stringIcSt11char_traitsIcESaIcEEESt4pairIKS5_N4json4JSONEESt10_Select1stISA_ESt4lessIS5_ESaISA_EE24_M_get_insert_unique_posERS7_
   603: 00000000001e88d0   322 FUNC    WEAK   DEFAULT   12 _ZN3fst16ImplToMutableFstINS_8internal13VectorFstImplINS_11VectorStateINS_10ReverseArcINS_6ArcTplINS_17TropicalWeightTplIfEEEEEESaIS9_EEEEENS_10MutableFstIS9_EEE10DeleteArcsEim
   604: 000000000023ff58    24 OBJECT  WEAK   DEFAULT   21 _ZTIN3fst17ComposeFstMatcherINS_17DefaultCacheStoreINS_6ArcTplINS_16LatticeWeightTplIfEEEEEENS_17NullComposeFilterINS_7MatcherINS_3FstIS5_EEEESB_EENS_24GenericComposeStateTableIS5_NS_18TrivialFilterStateENS_24DefaultComposeStateTupleIiSE_EENS_21CompactHashStateTableISG_NS_11ComposeHashISG_EEEEEEEE
   605: 00000000001a8440     8 FUNC    WEAK   DEFAULT   12 _ZN3fst11ArcIteratorINS_8NGramFstINS_6ArcTplINS_17TropicalWeightTplIfEEEEEEE4NextEv
   606: 000000000017fe20   765 FUNC    WEAK   DEFAULT   12 _ZN3fst16VectorCacheStoreINS_10CacheStateINS_6ArcTplINS_17TropicalWeightTplIfEEEENS_13PoolAllocatorIS5_EEEEE15GetMutableStateEi
   607: 0000000000241420    24 OBJECT  WEAK   DEFAULT   21 _ZTIN3fst8internal14ComposeFstImplINS_17DefaultCacheStoreINS_6ArcTplINS_17TropicalWeightTplIfEEEEEENS_23PushLabelsComposeFilterINS_24PushWeightsComposeFilterINS_22LookAheadComposeFilterINS_24AltSequenceComposeFilterINS_16LookAheadMatcherINS_3FstIS6_EEEESF_EESF_SF_LNS_9MatchTypeE3EEESF_SF_LSH_3EEESF_SF_LSH_3EEENS_24GenericComposeStateTableIS6_NS_15PairFilterStateINSM_INS_18IntegerFilterStateIaEENS_17WeightFilterStateIS5_EEEENSN_IiEEEENS_24DefaultComposeStateTupleIiST_EENS_21CompactHashStateTableISV_NS_11ComposeHashISV_EEEEEEEE
   608: 0000000000247588   152 OBJECT  WEAK   DEFAULT   21 _ZTVN3fst9ImplToFstINS_8internal22DeterminizeFstImplBaseINS_10ReverseArcINS_6ArcTplINS_17TropicalWeightTplIfEEEEEEEENS_3FstIS8_EEEE
   609: 0000000000132c80    64 FUNC    WEAK   DEFAULT   12 _ZNSt10unique_ptrIN3fst7MatcherINS0_3FstINS0_6ArcTplINS0_16LatticeWeightTplIfEEEEEEEESt14default_deleteIS8_EED2Ev
   610: 00000000001ba250  4067 FUNC    WEAK   DEFAULT   12 _ZN3fst14LabelReachableINS_6ArcTplINS_17TropicalWeightTplIfEEEENS_18FastLogAccumulatorIS4_EENS_18LabelReachableDataIiEEE12TransformFstEv
   611: 0000000000145bc0   521 FUNC    WEAK   DEFAULT   12 _ZN3fst8internal18DeterminizeFsaImplINS_10ReverseArcINS_6ArcTplINS_16LatticeWeightTplIfEEEEEENS_20DefaultCommonDivisorIS5_EENS_24DefaultDeterminizeFilterIS7_EENS_28DefaultDeterminizeStateTableIS7_NS_18IntegerFilterStateIaEEEEED1Ev
   612: 00000000001342d0    64 FUNC    WEAK   DEFAULT   12 _ZNSt10unique_ptrIN3fst16LookAheadMatcherINS0_3FstINS0_6ArcTplINS0_17TropicalWeightTplIfEEEEEEEESt14default_deleteIS8_EED1Ev
   613: 00000000000fd960    10 FUNC    WEAK   DEFAULT   12 _ZN3fst9AutoQueueIiE5ClearEv
   614: 000000000010ae40   117 FUNC    WEAK   DEFAULT   12 _ZN3fst8internal14MemoryPoolImplILm64EED1Ev
   615: 0000000000243a40   312 OBJECT  WEAK   DEFAULT   21 _ZTVN3fst16ImplToMutableFstINS_8internal13VectorFstImplINS_11VectorStateINS_10ReverseArcINS_6ArcTplINS_16LatticeWeightTplIfEEEEEESaIS9_EEEEENS_10MutableFstIS9_EEEE
   616: 00000000000fe3e0   356 FUNC    WEAK   DEFAULT   12 _ZN3fst8internal14ComposeFstImplINS_17DefaultCacheStoreINS_6ArcTplINS_16LatticeWeightTplIfEEEEEENS_17NullComposeFilterINS_7MatcherINS_3FstIS6_EEEESC_EENS_24GenericComposeStateTableIS6_NS_18TrivialFilterStateENS_24DefaultComposeStateTupleIiSF_EENS_21CompactHashStateTableISH_NS_11ComposeHashISH_EEEEEEE12ComputeFinalEi
   617: 00000000001d0e30   148 FUNC    WEAK   DEFAULT   12 _ZN3fst8internal14ComposeFstImplINS_17DefaultCacheStoreINS_6ArcTplINS_17TropicalWeightTplIfEEEEEENS_17NullComposeFilterINS_7MatcherINS_3FstIS6_EEEESC_EENS_24GenericComposeStateTableIS6_NS_18TrivialFilterStateENS_24DefaultComposeStateTupleIiSF_EENS_21CompactHashStateTableISH_NS_11ComposeHashISH_EEEEEEE12ComputeFinalEi
   618: 000000000011a960    42 FUNC    WEAK   DEFAULT   12 _ZN3fst8internal15MemoryArenaImplILm328EED0Ev
   619: 000000000016eb20   404 FUNC    WEAK   DEFAULT   12 _ZN3fst16ImplToMutableFstINS_8internal13VectorFstImplINS_11VectorStateINS_10ReverseArcINS_6ArcTplINS_23CompactLatticeWeightTplINS_16LatticeWeightTplIfEEiEEEEEESaISB_EEEEENS_10MutableFstISB_EEE8AddStateEv
   620: 0000000000241640    24 OBJECT  WEAK   DEFAULT   21 _ZTISt23_Sp_counted_ptr_inplaceIN3fst8internal14ComposeFstImplINS0_17DefaultCacheStoreINS0_6ArcTplINS0_16LatticeWeightTplIfEEEEEENS0_21SequenceComposeFilterINS0_7MatcherINS0_3FstIS7_EEEESD_EENS0_24GenericComposeStateTableIS7_NS0_18IntegerFilterStateIaEENS0_24DefaultComposeStateTupleIiSH_EENS0_21CompactHashStateTableISJ_NS0_11ComposeHashISJ_EEEEEEEESaIvELN9__gnu_cxx12_Lock_policyE2EE
   621: 0000000000204760   160 OBJECT  WEAK   DEFAULT   14 _ZTSN3fst16ImplToMutableFstINS_8internal13VectorFstImplINS_11VectorStateINS_10ReverseArcINS_6ArcTplINS_16LatticeWeightTplIfEEEEEESaIS9_EEEEENS_10MutableFstIS9_EEEE
   622: 0000000000244e80    40 OBJECT  WEAK   DEFAULT   21 _ZTVN3fst10MemoryPoolINS_13PoolAllocatorISt10_List_nodeIiEE2TNILi1EEEEE
   623: 0000000000134570   237 FUNC    WEAK   DEFAULT   12 _ZN3fst15MultiEpsMatcherINS_16LookAheadMatcherINS_3FstINS_6ArcTplINS_17TropicalWeightTplIfEEEEEEEEEC1ERKS7_NS_9MatchTypeEjPS8_b
   624: 0000000000173ae0  2302 FUNC    WEAK   DEFAULT   12 _ZN3fst8internal13VectorFstImplINS_11VectorStateINS_6ArcTplINS_23CompactLatticeWeightTplINS_16LatticeWeightTplIfEEiEEEESaIS8_EEEEC1ERKNS_3FstIS8_EE
   625: 000000000020c160    99 OBJECT  WEAK   DEFAULT   14 _ZTSN3fst8internal22DeterminizeFstImplBaseINS_10ReverseArcINS_6ArcTplINS_17TropicalWeightTplIfEEEEEEEE
   626: 000000000014d6d0   373 FUNC    WEAK   DEFAULT   12 _ZNK3fst9ImplToFstINS_8internal13ArcMapFstImplINS_6ArcTplINS_17TropicalWeightTplIfEEEES6_NS_28RemoveSomeInputSymbolsMapperIS6_iEEEENS_3FstIS6_EEE10PropertiesEmb
   627: 0000000000100590     9 FUNC    WEAK   DEFAULT   12 _ZN3fst18MutableArcIteratorINS_9VectorFstINS_10ReverseArcINS_6ArcTplINS_16LatticeWeightTplIfEEEEEENS_11VectorStateIS7_SaIS7_EEEEEE4SeekEm
   628: 00000000001d0ca0     1 FUNC    WEAK   DEFAULT   12 _ZNSt23_Sp_counted_ptr_inplaceIN3fst8internal18DeterminizeFsaImplINS0_10ReverseArcINS0_6ArcTplINS0_17TropicalWeightTplIfEEEEEENS0_20DefaultCommonDivisorIS6_EENS0_24DefaultDeterminizeFilterIS8_EENS0_28DefaultDeterminizeStateTableIS8_NS0_18IntegerFilterStateIaEEEEEESaIvELN9__gnu_cxx12_Lock_policyE2EED1Ev
   629: 000000000010fce0   362 FUNC    WEAK   DEFAULT   12 _ZN3fst8internal17VectorFstBaseImplINS_11VectorStateINS_10ReverseArcINS_6ArcTplINS_16LatticeWeightTplIfEEEEEESaIS8_EEEED0Ev
   630: 00000000000efde0   761 FUNC    GLOBAL DEFAULT   12 _ZN10RecognizerC1EP5Modelf
   631: 000000000013f390  1821 FUNC    WEAK   DEFAULT   12 _ZN3fst8internal14ComposeFstImplINS_17DefaultCacheStoreINS_6ArcTplINS_16LatticeWeightTplIfEEEEEENS_21SequenceComposeFilterINS_7MatcherINS_3FstIS6_EEEESC_EENS_24GenericComposeStateTableIS6_NS_18IntegerFilterStateIaEENS_24DefaultComposeStateTupleIiSG_EENS_21CompactHashStateTableISI_NS_11ComposeHashISI_EEEEEEEC1ISC_SC_EERKSB_SR_RKNS_21ComposeFstImplOptionsIT_T0_SD_SN_S7_EE
   632: 00000000001ab760  1281 FUNC    WEAK   DEFAULT   12 _ZN5kaldi31LatticeIncrementalDecoderConfig8RegisterEPNS_10OptionsItfE
   633: 000000000010b3c0   117 FUNC    WEAK   DEFAULT   12 _ZN3fst10MemoryPoolINS_13PoolAllocatorINS_6ArcTplINS_16LatticeWeightTplIfEEEEE2TNILi64EEEED2Ev
   634: 0000000000100410    54 FUNC    WEAK   DEFAULT   12 _ZNK3fst13StateIteratorINS_9ArcMapFstINS_6ArcTplINS_17TropicalWeightTplIfEEEES5_NS_28RemoveSomeInputSymbolsMapperIS5_iEEEEE4DoneEv
   635: 00000000001c3130     5 FUNC    WEAK   DEFAULT   12 _ZNK3fst10MatcherFstINS_8ConstFstINS_6ArcTplINS_17TropicalWeightTplIfEEEEjEENS_21LabelLookAheadMatcherINS_13SortedMatcherIS6_EELj1760ENS_18FastLogAccumulatorIS5_EENS_14LabelReachableIS5_SB_NS_18LabelReachableDataIiEEEEEEXadL_ZNS_25olabel_lookahead_fst_typeEEENS_23LabelLookAheadRelabelerIS5_SE_EENS_9AddOnPairISE_SE_EEE5WriteERKNSt7__cxx1112basic_stringIcSt11char_traitsIcESaIcEEE
   636: 0000000000245f78   160 OBJECT  WEAK   DEFAULT   21 _ZTVN3fst9ImplToFstINS_8internal9AddOnImplINS_8ConstFstINS_6ArcTplINS_17TropicalWeightTplIfEEEEjEENS_9AddOnPairINS_18LabelReachableDataIiEESB_EEEENS_11ExpandedFstIS7_EEEE
   637: 00000000002451c8    40 OBJECT  WEAK   DEFAULT   21 _ZTVN3fst8internal14MemoryPoolImplILm512EEE
   638: 00000000001002a0     1 FUNC    WEAK   DEFAULT   12 _ZN3fst18MutableArcIteratorINS_9VectorFstINS_6ArcTplINS_17TropicalWeightTplIfEEEENS_11VectorStateIS5_SaIS5_EEEEEE8SetFlagsEhh
   639: 0000000000246480    56 OBJECT  WEAK   DEFAULT   21 _ZTVSt23_Sp_counted_ptr_inplaceIN3fst8internal12ConstFstImplINS0_6ArcTplINS0_17TropicalWeightTplIfEEEEjEESaIvELN9__gnu_cxx12_Lock_policyE2EE
   640: 0000000000101c20    10 FUNC    WEAK   DEFAULT   12 _ZN3fst18CacheStateIteratorINS_10ComposeFstINS_6ArcTplINS_16LatticeWeightTplIfEEEENS_17DefaultCacheStoreIS5_EEEEED0Ev
   641: 000000000013ab50   534 FUNC    WEAK   DEFAULT   12 _ZNSt10_HashtableIiiN3fst13PoolAllocatorIiEENSt8__detail9_IdentityENS0_18CompactHashBiTableIiPNS0_8internal21DeterminizeStateTupleINS0_10ReverseArcINS0_6ArcTplINS0_16LatticeWeightTplIfEEEEEENS0_18IntegerFilterStateIaEEEENS0_28DefaultDeterminizeStateTableISD_SF_E13StateTupleKeyENSJ_15StateTupleEqualELNS0_6HSTypeE0EE9HashEqualENSN_8HashFuncENS3_18_Mod_range_hashingENS3_20_Default_ranged_hashENS3_20_Prime_rehash_policyENS3_17_Hashtable_traitsILb1ELb1ELb1EEEED2Ev
   642: 0000000000201ce0   295 OBJECT  WEAK   DEFAULT   14 _ZTSN3fst17ComposeFstMatcherINS_17DefaultCacheStoreINS_6ArcTplINS_16LatticeWeightTplIfEEEEEENS_17NullComposeFilterINS_7MatcherINS_3FstIS5_EEEESB_EENS_24GenericComposeStateTableIS5_NS_18TrivialFilterStateENS_24DefaultComposeStateTupleIiSE_EENS_21CompactHashStateTableISG_NS_11ComposeHashISG_EEEEEEEE
   643: 00000000001ae930   110 FUNC    WEAK   DEFAULT   12 _ZN3fst8internal12ConstFstImplINS_6ArcTplINS_17TropicalWeightTplIfEEEEjED0Ev
   644: 00000000001d1ea0     7 FUNC    WEAK   DEFAULT   12 _ZNK3fst17ComposeFstMatcherINS_17DefaultCacheStoreINS_6ArcTplINS_17TropicalWeightTplIfEEEEEENS_20NoMatchComposeFilterINS_7MatcherINS_3FstIS5_EEEESB_EENS_24GenericComposeStateTableIS5_NS_18TrivialFilterStateENS_24DefaultComposeStateTupleIiSE_EENS_21CompactHashStateTableISG_NS_11ComposeHashISG_EEEEEEE6GetFstEv
   645: 0000000000137eb0  1156 FUNC    WEAK   DEFAULT   12 _ZN3fst22LookAheadComposeFilterINS_24AltSequenceComposeFilterINS_16LookAheadMatcherINS_3FstINS_6ArcTplINS_16LatticeWeightTplIfEEEEEEEES9_EES9_S9_LNS_9MatchTypeE3EEC2ERKS8_SE_PS9_SF_
   646: 000000000013de80   224 FUNC    WEAK   DEFAULT   12 _ZN3fst8internal15MemoryArenaImplILm136EE8AllocateEm
   647: 00000000001339e0   119 FUNC    WEAK   DEFAULT   12 _ZN3fst17ComposeFstMatcherINS_17DefaultCacheStoreINS_6ArcTplINS_16LatticeWeightTplIfEEEEEENS_20TrivialComposeFilterINS_7MatcherINS_3FstIS5_EEEESB_EENS_24GenericComposeStateTableIS5_NS_18TrivialFilterStateENS_24DefaultComposeStateTupleIiSE_EENS_21CompactHashStateTableISG_NS_11ComposeHashISG_EEEEEEED0Ev
   648: 00000000001f86a0    59 FUNC    WEAK   DEFAULT   12 _ZN3fst17ComposeFstMatcherINS_17DefaultCacheStoreINS_6ArcTplINS_17TropicalWeightTplIfEEEEEENS_24AltSequenceComposeFilterINS_7MatcherINS_3FstIS5_EEEESB_EENS_24GenericComposeStateTableIS5_NS_18IntegerFilterStateIaEENS_24DefaultComposeStateTupleIiSF_EENS_21CompactHashStateTableISH_NS_11ComposeHashISH_EEEEEEE4NextEv
   649: 00000000001aa8f0   109 FUNC    WEAK   DEFAULT   12 _ZN3fst11FstRegisterINS_6ArcTplINS_17TropicalWeightTplIfEEEEED2Ev
   650: 0000000000243208   152 OBJECT  WEAK   DEFAULT   21 _ZTVN3fst9ImplToFstINS_8internal18ComposeFstImplBaseINS_6ArcTplINS_17TropicalWeightTplIfEEEENS_17DefaultCacheStoreIS6_EENS_10ComposeFstIS6_S8_EEEENS_3FstIS6_EEEE
   651: 0000000000243600    80 OBJECT  WEAK   DEFAULT   21 _ZTVN3fst18ShortestFirstQueueIiNS_8internal18StateWeightCompareIiNS_11NaturalLessINS_23CompactLatticeWeightTplINS_16LatticeWeightTplIfEEiEEEEEELb0EEE
   652: 000000000020b0c5     1 OBJECT  <OS specific>: 10 DEFAULT   14 _ZZN3fst8DfsVisitINS_3FstINS_6ArcTplINS_17TropicalWeightTplIfEEEEEENS_20IntervalReachVisitorIS5_iNS_11IntervalSetIiNS_19VectorIntervalStoreIiEEEEEENS_12AnyArcFilterIS5_EEEEvRKT_PT0_T1_bE9kDfsWhite
   653: 000000000013fc30   381 FUNC    WEAK   DEFAULT   12 _ZN3fst20MemoryPoolCollection4PoolINS_13PoolAllocatorINS_6ArcTplINS_17TropicalWeightTplIfEEEEE2TNILi8EEEEEPNS_10MemoryPoolIT_EEv
   654: 000000000010a500    89 FUNC    WEAK   DEFAULT   12 _ZN3fst8internal15MemoryArenaImplILm72EED1Ev
   655: 0000000000245a90    24 OBJECT  WEAK   DEFAULT   21 _ZTIN3fst8NGramFstINS_6ArcTplINS_17TropicalWeightTplIfEEEEEE
   656: 0000000000172e30   439 FUNC    WEAK   DEFAULT   12 _ZN3fst16ImplToMutableFstINS_8internal13VectorFstImplINS_11VectorStateINS_10ReverseArcINS_6ArcTplINS_16LatticeWeightTplIfEEEEEESaIS9_EEEEENS_10MutableFstIS9_EEE6AddArcEiRKS9_
   657: 00000000001c9ba0    63 FUNC    GLOBAL DEFAULT   12 vosk_model_new
   658: 00000000001a8360    10 FUNC    WEAK   DEFAULT   12 _ZNK3fst17ImplToExpandedFstINS_8internal12ConstFstImplINS_6ArcTplINS_17TropicalWeightTplIfEEEEjEENS_11ExpandedFstIS6_EEE9NumStatesEv
   659: 0000000000208160    40 OBJECT  WEAK   DEFAULT   14 _ZTSN3fst8internal15MemoryArenaImplILm40EEE
   660: 000000000020c1e0   128 OBJECT  WEAK   DEFAULT   14 _ZTSN3fst9ImplToFstINS_8internal22DeterminizeFstImplBaseINS_10ReverseArcINS_6ArcTplINS_17TropicalWeightTplIfEEEEEEEENS_3FstIS8_EEEE
   661: 0000000000202420   144 OBJECT  WEAK   DEFAULT   14 _ZTSN3fst18MutableArcIteratorINS_9VectorFstINS_6ArcTplINS_23CompactLatticeWeightTplINS_16LatticeWeightTplIfEEiEEEENS_11VectorStateIS7_SaIS7_EEEEEEE
   662: 00000000000fe870    51 FUNC    WEAK   DEFAULT   12 _ZN3fst8SccQueueIiNS_9QueueBaseIiEEE6UpdateEi
   663: 0000000000105f70   173 FUNC    WEAK   DEFAULT   12 _ZN3fst17ComposeFstMatcherINS_17DefaultCacheStoreINS_6ArcTplINS_17TropicalWeightTplIfEEEEEENS_21SequenceComposeFilterINS_7MatcherINS_3FstIS5_EEEESB_EENS_24GenericComposeStateTableIS5_NS_18IntegerFilterStateIaEENS_24DefaultComposeStateTupleIiSF_EENS_21CompactHashStateTableISH_NS_11ComposeHashISH_EEEEEEED1Ev
   664: 000000000019a160   225 FUNC    GLOBAL DEFAULT   12 _ZNK22LanguageModelEstimator19FindInitialFstStateEv
   665: 000000000010e030    46 FUNC    WEAK   DEFAULT   12 _ZN3fst9VectorFstINS_10ReverseArcINS_6ArcTplINS_16LatticeWeightTplIfEEEEEENS_11VectorStateIS6_SaIS6_EEEED0Ev
   666: 00000000002417a8    24 OBJECT  WEAK   DEFAULT   21 _ZTIN3fst10MemoryPoolINS_13PoolAllocatorIPNSt8__detail15_Hash_node_baseEE2TNILi1EEEEE
   667: 00000000001a85a0    10 FUNC    WEAK   DEFAULT   12 _ZNSt19_Sp_counted_deleterIPN3fst8internal15SymbolTableImplESt14default_deleteIS2_ESaIvELN9__gnu_cxx12_Lock_policyE2EED0Ev
   668: 0000000000121850   284 FUNC    WEAK   DEFAULT   12 _ZN3fst4HeapIiNS_8internal12PruneCompareIiNS_23CompactLatticeWeightTplINS_16LatticeWeightTplIfEEiEEEEE6InsertERKi
   669: 0000000000131640   237 FUNC    WEAK   DEFAULT   12 _ZN3fst22LookAheadComposeFilterINS_24AltSequenceComposeFilterINS_16LookAheadMatcherINS_3FstINS_6ArcTplINS_17TropicalWeightTplIfEEEEEEEES9_EES9_S9_LNS_9MatchTypeE3EED1Ev
   670: 0000000000241a30    24 OBJECT  WEAK   DEFAULT   21 _ZTIN3fst8internal15MemoryArenaImplILm168EEE
   671: 0000000000136ec0    64 FUNC    WEAK   DEFAULT   12 _ZNSt10unique_ptrIN3fst16LookAheadMatcherINS0_3FstINS0_6ArcTplINS0_16LatticeWeightTplIfEEEEEEEESt14default_deleteIS8_EED2Ev
   672: 000000000010be40   117 FUNC    WEAK   DEFAULT   12 _ZN3fst10MemoryPoolINS_13PoolAllocatorISt10_List_nodeIiEE2TNILi1EEEED1Ev
   673: 00000000001d0ee0     1 FUNC    WEAK   DEFAULT   12 _ZNSt23_Sp_counted_ptr_inplaceIN3fst14StringCompilerINS0_6ArcTplINS0_17TropicalWeightTplIfEEEEEESaIvELN9__gnu_cxx12_Lock_policyE2EED1Ev
   674: 000000000013ad70   227 FUNC    WEAK   DEFAULT   12 _ZNSt10unique_ptrIN3fst28DefaultDeterminizeStateTableINS0_10ReverseArcINS0_6ArcTplINS0_16LatticeWeightTplIfEEEEEENS0_18IntegerFilterStateIaEEEESt14default_deleteISA_EED2Ev
   675: 0000000000119cc0    46 FUNC    WEAK   DEFAULT   12 _ZN3fst16LookAheadMatcherINS_3FstINS_6ArcTplINS_16LatticeWeightTplIfEEEEEEED1Ev
   676: 0000000000202d60   144 OBJECT  WEAK   DEFAULT   14 _ZTSN3fst17ImplToExpandedFstINS_8internal13VectorFstImplINS_11VectorStateINS_6ArcTplINS_17TropicalWeightTplIfEEEESaIS7_EEEEENS_10MutableFstIS7_EEEE
   677: 00000000002415a0    24 OBJECT  WEAK   DEFAULT   21 _ZTIN3fst8internal14ComposeFstImplINS_17DefaultCacheStoreINS_6ArcTplINS_16LatticeWeightTplIfEEEEEENS_22LookAheadComposeFilterINS_24AltSequenceComposeFilterINS_16LookAheadMatcherINS_3FstIS6_EEEESD_EESD_SD_LNS_9MatchTypeE3EEENS_24GenericComposeStateTableIS6_NS_18IntegerFilterStateIaEENS_24DefaultComposeStateTupleIiSJ_EENS_21CompactHashStateTableISL_NS_11ComposeHashISL_EEEEEEEE
   678: 00000000000fe5b0    33 FUNC    WEAK   DEFAULT   12 _ZNK3fst9ImplToFstINS_8internal13VectorFstImplINS_11VectorStateINS_10ReverseArcINS_6ArcTplINS_16LatticeWeightTplIfEEEEEESaIS9_EEEEENS_10MutableFstIS9_EEE5FinalEi
   679: 00000000001c85b0    11 FUNC    GLOBAL DEFAULT   12 _ZN8SpkModel3RefEv
   680: 0000000000241c58    24 OBJECT  WEAK   DEFAULT   21 _ZTIN3fst10MemoryPoolINS_13PoolAllocatorINS_10ReverseArcINS_6ArcTplINS_16LatticeWeightTplIfEEEEEEE2TNILi4EEEEE
   681: 00000000001cd1a0  1029 FUNC    GLOBAL DEFAULT   12 _ZN9ProcessorC2ERKNSt7__cxx1112basic_stringIcSt11char_traitsIcESaIcEEES7_
   682: 0000000000131c90  1121 FUNC    WEAK   DEFAULT   12 _ZN3fst8internal14ComposeFstImplINS_17DefaultCacheStoreINS_6ArcTplINS_17TropicalWeightTplIfEEEEEENS_23PushLabelsComposeFilterINS_24PushWeightsComposeFilterINS_22LookAheadComposeFilterINS_21SequenceComposeFilterINS_16LookAheadMatcherINS_3FstIS6_EEEESF_EESF_SF_LNS_9MatchTypeE3EEESF_SF_LSH_3EEESF_SF_LSH_3EEENS_24GenericComposeStateTableIS6_NS_15PairFilterStateINSM_INS_18IntegerFilterStateIaEENS_17WeightFilterStateIS5_EEEENSN_IiEEEENS_24DefaultComposeStateTupleIiST_EENS_21CompactHashStateTableISV_NS_11ComposeHashISV_EEEEEEE12SetMatchTypeEv
   683: 00000000001a97f0    89 FUNC    WEAK   DEFAULT   12 _ZN3fst15NGramFstMatcherINS_6ArcTplINS_17TropicalWeightTplIfEEEEE8SetStateEi
   684: 00000000002444b8    48 OBJECT  WEAK   DEFAULT   21 _ZTVN3fst8internal17VectorFstBaseImplINS_11VectorStateINS_10ReverseArcINS_6ArcTplINS_23CompactLatticeWeightTplINS_16LatticeWeightTplIfEEiEEEEEESaISA_EEEEE
   685: 00000000001a8480     7 FUNC    WEAK   DEFAULT   12 _ZNK3fst11ArcIteratorINS_8NGramFstINS_6ArcTplINS_17TropicalWeightTplIfEEEEEEE5FlagsEv
   686: 0000000000241050    16 OBJECT  WEAK   DEFAULT   21 _ZTIN3fst8internal7FstImplINS_10ReverseArcINS_6ArcTplINS_16LatticeWeightTplIfEEEEEEEE
   687: 000000000013c2d0   177 FUNC    WEAK   DEFAULT   12 _ZN3fst8internal14ComposeFstImplINS_17DefaultCacheStoreINS_6ArcTplINS_16LatticeWeightTplIfEEEEEENS_22LookAheadComposeFilterINS_24AltSequenceComposeFilterINS_16LookAheadMatcherINS_3FstIS6_EEEESD_EESD_SD_LNS_9MatchTypeE3EEENS_24GenericComposeStateTableIS6_NS_18IntegerFilterStateIaEENS_24DefaultComposeStateTupleIiSJ_EENS_21CompactHashStateTableISL_NS_11ComposeHashISL_EEEEEEED1Ev
   688: 0000000000245150    40 OBJECT  WEAK   DEFAULT   21 _ZTVN3fst8internal14MemoryPoolImplILm256EEE
   689: 00000000001e7a50   141 FUNC    WEAK   DEFAULT   12 _ZN3fst9VectorFstINS_10ReverseArcINS_6ArcTplINS_17TropicalWeightTplIfEEEEEENS_11VectorStateIS6_SaIS6_EEEEaSERKNS_3FstIS6_EE
   690: 0000000000147960  1034 FUNC    WEAK   DEFAULT   12 _ZNK3fst3FstINS_6ArcTplINS_17TropicalWeightTplIfEEEEE9WriteFileERKNSt7__cxx1112basic_stringIcSt11char_traitsIcESaIcEEE
   691: 0000000000127c70  2672 FUNC    WEAK   DEFAULT   12 _ZN3fst8internal21ShortestDistanceStateINS_6ArcTplINS_16LatticeWeightTplIfEEEENS_9AutoQueueIiEENS_12AnyArcFilterIS5_EENS_17WeightApproxEqualEE16ShortestDistanceEi
   692: 0000000000130d80  1105 FUNC    WEAK   DEFAULT   12 _ZN3fst8internal14ComposeFstImplINS_17DefaultCacheStoreINS_6ArcTplINS_16LatticeWeightTplIfEEEEEENS_21SequenceComposeFilterINS_7MatcherINS_3FstIS6_EEEESC_EENS_24GenericComposeStateTableIS6_NS_18IntegerFilterStateIaEENS_24DefaultComposeStateTupleIiSG_EENS_21CompactHashStateTableISI_NS_11ComposeHashISI_EEEEEEE12SetMatchTypeEv
   693: 000000000011a7a0    67 FUNC    WEAK   DEFAULT   12 _ZN3fst10MemoryPoolINS_13PoolAllocatorINS_10ReverseArcINS_6ArcTplINS_16LatticeWeightTplIfEEEEEEE2TNILi32EEEED0Ev
   694: 00000000001a7db0     1 FUNC    WEAK   DEFAULT   12 _ZNSt15_Sp_counted_ptrIPN3fst8internal9AddOnImplINS0_8ConstFstINS0_6ArcTplINS0_17TropicalWeightTplIfEEEEjEENS0_9AddOnPairINS0_18LabelReachableDataIiEESB_EEEELN9__gnu_cxx12_Lock_policyE2EED2Ev
   695: 000000000010adc0   117 FUNC    WEAK   DEFAULT   12 _ZN3fst10MemoryPoolINS_13PoolAllocatorIPNSt8__detail15_Hash_node_baseEE2TNILi32EEEED1Ev
   696: 000000000010dc10   133 FUNC    WEAK   DEFAULT   12 _ZNSt16_Sp_counted_baseILN9__gnu_cxx12_Lock_policyE2EE10_M_releaseEv
   697: 00000000001164a0    99 FUNC    WEAK   DEFAULT   12 _ZNSt11_Deque_baseIiSaIiEED2Ev
   698: 000000000013bfc0   375 FUNC    WEAK   DEFAULT   12 _ZN3fst8internal13CacheBaseImplINS_10CacheStateINS_6ArcTplINS_16LatticeWeightTplIfEEEENS_13PoolAllocatorIS6_EEEENS_17DefaultCacheStoreIS6_EEED1Ev
   699: 0000000000244488    48 OBJECT  WEAK   DEFAULT   21 _ZTVN3fst8internal7FstImplINS_10ReverseArcINS_6ArcTplINS_23CompactLatticeWeightTplINS_16LatticeWeightTplIfEEiEEEEEEEE
   700: 00000000001012c0     7 FUNC    WEAK   DEFAULT   12 _ZNK3fst17ComposeFstMatcherINS_17DefaultCacheStoreINS_6ArcTplINS_16LatticeWeightTplIfEEEEEENS_20TrivialComposeFilterINS_7MatcherINS_3FstIS5_EEEESB_EENS_24GenericComposeStateTableIS5_NS_18TrivialFilterStateENS_24DefaultComposeStateTupleIiSE_EENS_21CompactHashStateTableISG_NS_11ComposeHashISG_EEEEEEE6GetFstEv
   701: 0000000000125a90   418 FUNC    WEAK   DEFAULT   12 _ZSt16__do_uninit_copyIPKN5kaldi5nnet315IoSpecificationEPS2_ET0_T_S7_S6_
   702: 0000000000202840    24 OBJECT  WEAK   DEFAULT   14 _ZTSN3fst15MemoryArenaBaseE
   703: 00000000000ff0f0    26 FUNC    WEAK   DEFAULT   12 _ZNK3fst9ImplToFstINS_8internal13VectorFstImplINS_11VectorStateINS_6ArcTplINS_17TropicalWeightTplIfEEEESaIS7_EEEEENS_10MutableFstIS7_EEE5FinalEi
   704: 00000000001d27d0    75 FUNC    WEAK   DEFAULT   12 _ZNSt23_Sp_counted_ptr_inplaceIN3fst8internal14ComposeFstImplINS0_17DefaultCacheStoreINS0_6ArcTplINS0_17TropicalWeightTplIfEEEEEENS0_20TrivialComposeFilterINS0_7MatcherINS0_3FstIS7_EEEESD_EENS0_24GenericComposeStateTableIS7_NS0_18TrivialFilterStateENS0_24DefaultComposeStateTupleIiSG_EENS0_21CompactHashStateTableISI_NS0_11ComposeHashISI_EEEEEEEESaIvELN9__gnu_cxx12_Lock_policyE2EE14_M_get_deleterERKSt9type_info
   705: 00000000001081b0    93 FUNC    WEAK   DEFAULT   12 _ZNK3fst11SymbolTable4CopyEv
   706: 0000000000246d10    24 OBJECT  WEAK   DEFAULT   21 _ZTISt23_Sp_counted_ptr_inplaceIN3fst13StringPrinterINS0_6ArcTplINS0_17TropicalWeightTplIfEEEEEESaIvELN9__gnu_cxx12_Lock_policyE2EE
   707: 0000000000101400   113 FUNC    WEAK   DEFAULT   12 _ZN3fst17ComposeFstMatcherINS_17DefaultCacheStoreINS_6ArcTplINS_17TropicalWeightTplIfEEEEEENS_21SequenceComposeFilterINS_7MatcherINS_3FstIS5_EEEESB_EENS_24GenericComposeStateTableIS5_NS_18IntegerFilterStateIaEENS_24DefaultComposeStateTupleIiSF_EENS_21CompactHashStateTableISH_NS_11ComposeHashISH_EEEEEEE8SetStateEi
   708: 0000000000172780   299 FUNC    WEAK   DEFAULT   12 _ZN3fst9VectorFstINS_10ReverseArcINS_6ArcTplINS_16LatticeWeightTplIfEEEEEENS_11VectorStateIS6_SaIS6_EEEE22InitMutableArcIteratorEiPNS_22MutableArcIteratorDataIS6_EE
   709: 0000000000240680   104 OBJECT  WEAK   DEFAULT   21 _ZTVN3fst18MutableArcIteratorINS_9VectorFstINS_10ReverseArcINS_6ArcTplINS_16LatticeWeightTplIfEEEEEENS_11VectorStateIS7_SaIS7_EEEEEEE
   710: 00000000002039a0   144 OBJECT  WEAK   DEFAULT   14 _ZTSN3fst9ImplToFstINS_8internal13ArcMapFstImplINS_6ArcTplINS_17TropicalWeightTplIfEEEES6_NS_28RemoveSomeInputSymbolsMapperIS6_iEEEENS_3FstIS6_EEEE
   711: 0000000000245930    24 OBJECT  WEAK   DEFAULT   21 _ZTIN3fst17ImplToExpandedFstINS_8internal12ConstFstImplINS_6ArcTplINS_17TropicalWeightTplIfEEEEjEENS_11ExpandedFstIS6_EEEE
   712: 000000000013c1b0    90 FUNC    WEAK   DEFAULT   12 _ZN3fst8internal13ArcMapFstImplINS_6ArcTplINS_17TropicalWeightTplIfEEEENS2_INS_16LatticeWeightTplIfEEEENS_18StdToLatticeMapperIfEEED2Ev
   713: 0000000000209fc0    65 OBJECT  WEAK   DEFAULT   14 _ZTSN3fst15NGramFstMatcherINS_6ArcTplINS_17TropicalWeightTplIfEEEEEE
   714: 0000000000194fe0   951 FUNC    WEAK   DEFAULT   12 _ZNK3fst8internal14ComposeFstImplINS_17DefaultCacheStoreINS_6ArcTplINS_16LatticeWeightTplIfEEEEEENS_22LookAheadComposeFilterINS_21SequenceComposeFilterINS_16LookAheadMatcherINS_3FstIS6_EEEESD_EESD_SD_LNS_9MatchTypeE3EEENS_24GenericComposeStateTableIS6_NS_18IntegerFilterStateIaEENS_24DefaultComposeStateTupleIiSJ_EENS_21CompactHashStateTableISL_NS_11ComposeHashISL_EEEEEEE4CopyEv
   715: 0000000000208a60    40 OBJECT  WEAK   DEFAULT   14 _ZTSN3fst8internal14MemoryPoolImplILm640EEE
   716: 00000000001d3590   242 FUNC    WEAK   DEFAULT   12 _ZN3fst17ComposeFstMatcherINS_17DefaultCacheStoreINS_6ArcTplINS_17TropicalWeightTplIfEEEEEENS_24AltSequenceComposeFilterINS_7MatcherINS_3FstIS5_EEEESB_EENS_24GenericComposeStateTableIS5_NS_18IntegerFilterStateIaEENS_24DefaultComposeStateTupleIiSF_EENS_21CompactHashStateTableISH_NS_11ComposeHashISH_EEEEEEE8PriorityEi
   717: 00000000001a83b0    15 FUNC    WEAK   DEFAULT   12 _ZNK3fst15NGramFstMatcherINS_6ArcTplINS_17TropicalWeightTplIfEEEEE4DoneEv
   718: 0000000000244e08    40 OBJECT  WEAK   DEFAULT   21 _ZTVN3fst8internal14MemoryPoolImplILm72EEE
   719: 0000000000244c90    56 OBJECT  WEAK   DEFAULT   21 _ZTVSt23_Sp_counted_ptr_inplaceIN3fst8internal14ComposeFstImplINS0_17DefaultCacheStoreINS0_6ArcTplINS0_17TropicalWeightTplIfEEEEEENS0_21SequenceComposeFilterINS0_7MatcherINS0_3FstIS7_EEEESD_EENS0_24GenericComposeStateTableIS7_NS0_18IntegerFilterStateIaEENS0_24DefaultComposeStateTupleIiSH_EENS0_21CompactHashStateTableISJ_NS0_11ComposeHashISJ_EEEEEEEESaIvELN9__gnu_cxx12_Lock_policyE2EE
   720: 0000000000241a60    24 OBJECT  WEAK   DEFAULT   21 _ZTIN3fst10MemoryPoolINS_13PoolAllocatorINS_6ArcTplINS_16LatticeWeightTplIfEEEEE2TNILi8EEEEE
   721: 0000000000240e80    24 OBJECT  WEAK   DEFAULT   21 _ZTIN3fst8internal13ArcMapFstImplINS_6ArcTplINS_17TropicalWeightTplIfEEEENS2_INS_16LatticeWeightTplIfEEEENS_18StdToLatticeMapperIfEEEE
   722: 00000000001b2250    78 FUNC    WEAK   DEFAULT   12 _ZN3fst11BitmapIndexD1Ev
   723: 00000000001aee80   315 FUNC    WEAK   DEFAULT   12 _ZNSt10unique_ptrIN3fst8internal15SymbolTableImplESt14default_deleteIS2_EED2Ev
   724: 00000000001f0c30   951 FUNC    WEAK   DEFAULT   12 _ZN3fst8internal22DeterminizeFstImplBaseINS_10ReverseArcINS_6ArcTplINS_17TropicalWeightTplIfEEEEEEEC1ERKS8_
   725: 00000000000fdcd0     1 FUNC    WEAK   DEFAULT   12 _ZNSt23_Sp_counted_ptr_inplaceIN3fst8internal14ComposeFstImplINS0_17DefaultCacheStoreINS0_6ArcTplINS0_16LatticeWeightTplIfEEEEEENS0_20TrivialComposeFilterINS0_7MatcherINS0_3FstIS7_EEEESD_EENS0_24GenericComposeStateTableIS7_NS0_18TrivialFilterStateENS0_24DefaultComposeStateTupleIiSG_EENS0_21CompactHashStateTableISI_NS0_11ComposeHashISI_EEEEEEEESaIvELN9__gnu_cxx12_Lock_policyE2EED2Ev
   726: 000000000020d740   108 OBJECT  WEAK   DEFAULT   14 _ZTSN3fst10MemoryPoolINS_13PoolAllocatorINS_10ReverseArcINS_6ArcTplINS_17TropicalWeightTplIfEEEEEEE2TNILi8EEEEE
   727: 000000000015d890   590 FUNC    WEAK   DEFAULT   12 _ZN3fst13SortedMatcherINS_3FstINS_6ArcTplINS_16LatticeWeightTplIfEEEEEEE8SetStateEi
   728: 0000000000192c40   281 FUNC    WEAK   DEFAULT   12 _ZNK3fst9ArcMapFstINS_6ArcTplINS_17TropicalWeightTplIfEEEENS1_INS_16LatticeWeightTplIfEEEENS_18StdToLatticeMapperIfEEE15InitArcIteratorEiPNS_15ArcIteratorDataIS7_EE
   729: 0000000000246e40    24 OBJECT  WEAK   DEFAULT   21 _ZTISt23_Sp_counted_ptr_inplaceIN3fst8internal14ComposeFstImplINS0_17DefaultCacheStoreINS0_6ArcTplINS0_17TropicalWeightTplIfEEEEEENS0_20TrivialComposeFilterINS0_7MatcherINS0_3FstIS7_EEEESD_EENS0_24GenericComposeStateTableIS7_NS0_18TrivialFilterStateENS0_24DefaultComposeStateTupleIiSG_EENS0_21CompactHashStateTableISI_NS0_11ComposeHashISI_EEEEEEEESaIvELN9__gnu_cxx12_Lock_policyE2EE
   730: 00000000001a9d30   170 FUNC    WEAK   DEFAULT   12 _ZNK3fst8NGramFstINS_6ArcTplINS_17TropicalWeightTplIfEEEEE7NumArcsEi
   731: 0000000000111180   948 FUNC    WEAK   DEFAULT   12 _ZN3fst16ImplToMutableFstINS_8internal13VectorFstImplINS_11VectorStateINS_10ReverseArcINS_6ArcTplINS_23CompactLatticeWeightTplINS_16LatticeWeightTplIfEEiEEEEEESaISB_EEEEENS_10MutableFstISB_EEE12DeleteStatesEv
   732: 00000000001c8770  1802 FUNC    GLOBAL DEFAULT   12 _ZN8SpkModelC2EPKc
   733: 00000000001e7f80   386 FUNC    WEAK   DEFAULT   12 _ZN3fst16ImplToMutableFstINS_8internal13VectorFstImplINS_11VectorStateINS_10ReverseArcINS_6ArcTplINS_17TropicalWeightTplIfEEEEEESaIS9_EEEEENS_10MutableFstIS9_EEE8SetFinalEiS7_
   734: 000000000024b100     8 OBJECT  <OS specific>: 10 DEFAULT   25 _ZZN3fst15GenericRegisterINSt7__cxx1112basic_stringIcSt11char_traitsIcESaIcEEENS_16FstRegisterEntryINS_6ArcTplINS_17TropicalWeightTplIfEEEEEENS_11FstRegisterISB_EEE11GetRegisterEvE3reg
   735: 0000000000134660   119 FUNC    WEAK   DEFAULT   12 _ZN3fst15MultiEpsMatcherINS_16LookAheadMatcherINS_3FstINS_6ArcTplINS_17TropicalWeightTplIfEEEEEEEEED1Ev
   736: 000000000013afe0   345 FUNC    WEAK   DEFAULT   12 _ZN3fst20MemoryPoolCollection4PoolINS_13PoolAllocatorINS_6ArcTplINS_16LatticeWeightTplIfEEEEE2TNILi2EEEEEPNS_10MemoryPoolIT_EEv
   737: 00000000001e6030   296 FUNC    WEAK   DEFAULT   12 _ZN3fst16AddArcPropertiesINS_10ReverseArcINS_6ArcTplINS_17TropicalWeightTplIfEEEEEEEEmmNT_7StateIdERKS7_PS9_
   738: 000000000020d92d     1 OBJECT  <OS specific>: 10 DEFAULT   14 _ZZN3fst8DfsVisitINS_3FstINS_6ArcTplINS_17TropicalWeightTplIfEEEEEENS_15TopOrderVisitorIS5_EENS_12AnyArcFilterIS5_EEEEvRKT_PT0_T1_bE9kDfsWhite
   739: 000000000017f890   304 FUNC    WEAK   DEFAULT   12 _ZN3fst8internal14ComposeFstImplINS_17DefaultCacheStoreINS_6ArcTplINS_17TropicalWeightTplIfEEEEEENS_23PushLabelsComposeFilterINS_24PushWeightsComposeFilterINS_22LookAheadComposeFilterINS_24AltSequenceComposeFilterINS_16LookAheadMatcherINS_3FstIS6_EEEESF_EESF_SF_LNS_9MatchTypeE3EEESF_SF_LSH_3EEESF_SF_LSH_3EEENS_24GenericComposeStateTableIS6_NS_15PairFilterStateINSM_INS_18IntegerFilterStateIaEENS_17WeightFilterStateIS5_EEEENSN_IiEEEENS_24DefaultComposeStateTupleIiST_EENS_21CompactHashStateTableISV_NS_11ComposeHashISV_EEEEEEE12ComputeStartEv
   740: 000000000014dad0  2189 FUNC    WEAK   DEFAULT   12 _ZN3fst9VectorFstINS_6ArcTplINS_17TropicalWeightTplIfEEEENS_11VectorStateIS4_SaIS4_EEEE8WriteFstIS8_EEbRKT_RSoRKNS_15FstWriteOptionsE
   741: 0000000000100450     6 FUNC    WEAK   DEFAULT   12 _ZNK3fst13StateIteratorINS_9ArcMapFstINS_6ArcTplINS_17TropicalWeightTplIfEEEES5_NS_28RemoveSomeInputSymbolsMapperIS5_iEEEEE5ValueEv
   742: 0000000000148190     5 FUNC    WEAK   DEFAULT   12 _ZNK3fst9VectorFstINS_6ArcTplINS_16LatticeWeightTplIfEEEENS_11VectorStateIS4_SaIS4_EEEE5WriteERKNSt7__cxx1112basic_stringIcSt11char_traitsIcESaIcEEE
   743: 00000000001060d0   161 FUNC    WEAK   DEFAULT   12 _ZN3fst31ComposeDeterministicOnDemandFstINS_6ArcTplINS_17TropicalWeightTplIfEEEEED0Ev
   744: 00000000001d14c0     1 FUNC    WEAK   DEFAULT   12 _ZNSt23_Sp_counted_ptr_inplaceIN3fst13StringPrinterINS0_6ArcTplINS0_17TropicalWeightTplIfEEEEEESaIvELN9__gnu_cxx12_Lock_policyE2EE10_M_disposeEv
   745: 000000000024b110     8 OBJECT  <OS specific>: 10 DEFAULT   25 _ZZN3fst10ReverseArcINS_6ArcTplINS_17TropicalWeightTplIfEEEEE4TypeB5cxx11EvE4type
   746: 00000000000ffb10    16 FUNC    WEAK   DEFAULT   12 _ZNSt23_Sp_counted_ptr_inplaceIN3fst8internal18DeterminizeFsaImplINS0_10ReverseArcINS0_6ArcTplINS0_16LatticeWeightTplIfEEEEEENS0_20DefaultCommonDivisorIS6_EENS0_24DefaultDeterminizeFilterIS8_EENS0_28DefaultDeterminizeStateTableIS8_NS0_18IntegerFilterStateIaEEEEEESaIvELN9__gnu_cxx12_Lock_policyE2EE10_M_disposeEv
   747: 00000000000fdca0     1 FUNC    WEAK   DEFAULT   12 _ZNSt23_Sp_counted_ptr_inplaceIN3fst8internal14ComposeFstImplINS0_17DefaultCacheStoreINS0_6ArcTplINS0_17TropicalWeightTplIfEEEEEENS0_23PushLabelsComposeFilterINS0_24PushWeightsComposeFilterINS0_22LookAheadComposeFilterINS0_21SequenceComposeFilterINS0_16LookAheadMatcherINS0_3FstIS7_EEEESG_EESG_SG_LNS0_9MatchTypeE3EEESG_SG_LSI_3EEESG_SG_LSI_3EEENS0_24GenericComposeStateTableIS7_NS0_15PairFilterStateINSN_INS0_18IntegerFilterStateIaEENS0_17WeightFilterStateIS6_EEEENSO_IiEEEENS0_24DefaultComposeStateTupleIiSU_EENS0_21CompactHashStateTableISW_NS0_11ComposeHashISW_EEEEEEEESaIvELN9__gnu_cxx12_Lock_policyE2EED1Ev
   748: 00000000002073e0   608 OBJECT  WEAK   DEFAULT   14 _ZTSSt23_Sp_counted_ptr_inplaceIN3fst8internal14ComposeFstImplINS0_17DefaultCacheStoreINS0_6ArcTplINS0_17TropicalWeightTplIfEEEEEENS0_23PushLabelsComposeFilterINS0_24PushWeightsComposeFilterINS0_22LookAheadComposeFilterINS0_24AltSequenceComposeFilterINS0_16LookAheadMatcherINS0_3FstIS7_EEEESG_EESG_SG_LNS0_9MatchTypeE3EEESG_SG_LSI_3EEESG_SG_LSI_3EEENS0_24GenericComposeStateTableIS7_NS0_15PairFilterStateINSN_INS0_18IntegerFilterStateIaEENS0_17WeightFilterStateIS6_EEEENSO_IiEEEENS0_24DefaultComposeStateTupleIiSU_EENS0_21CompactHashStateTableISW_NS0_11ComposeHashISW_EEEEEEEESaIvELN9__gnu_cxx12_Lock_policyE2EE
   749: 00000000001aa030    75 FUNC    WEAK   DEFAULT   12 _ZNSt23_Sp_counted_ptr_inplaceIN3fst18LabelReachableDataIiEESaIvELN9__gnu_cxx12_Lock_policyE2EE14_M_get_deleterERKSt9type_info
   750: 00000000001d2200    12 FUNC    WEAK   DEFAULT   12 _ZNK3fst8internal7FstImplINS_10ReverseArcINS_6ArcTplINS_17TropicalWeightTplIfEEEEEEE10PropertiesEm
   751: 0000000000246bc0    24 OBJECT  WEAK   DEFAULT   21 _ZTIN3fst11ExpandedFstINS_10ReverseArcINS_6ArcTplINS_17TropicalWeightTplIfEEEEEEEE
   752: 00000000001e3260  1833 FUNC    WEAK   DEFAULT   12 _ZN3fst8internal14ComposeFstImplINS_17DefaultCacheStoreINS_6ArcTplINS_17TropicalWeightTplIfEEEEEENS_20NoMatchComposeFilterINS_7MatcherINS_3FstIS6_EEEESC_EENS_24GenericComposeStateTableIS6_NS_18TrivialFilterStateENS_24DefaultComposeStateTupleIiSF_EENS_21CompactHashStateTableISH_NS_11ComposeHashISH_EEEEEEEC2ISC_SC_EERKSB_SQ_RKNS_21ComposeFstImplOptionsIT_T0_SD_SM_S7_EE
   753: 0000000000100140     1 FUNC    WEAK   DEFAULT   12 _ZN3fst18MutableArcIteratorINS_9VectorFstINS_6ArcTplINS_17TropicalWeightTplIfEEEENS_11VectorStateIS5_SaIS5_EEEEEED1Ev
   754: 00000000001e12c0   160 FUNC    WEAK   DEFAULT   12 _ZN3fst8internal14ComposeFstImplINS_17DefaultCacheStoreINS_6ArcTplINS_17TropicalWeightTplIfEEEEEENS_20NoMatchComposeFilterINS_7MatcherINS_3FstIS6_EEEESC_EENS_24GenericComposeStateTableIS6_NS_18TrivialFilterStateENS_24DefaultComposeStateTupleIiSF_EENS_21CompactHashStateTableISH_NS_11ComposeHashISH_EEEEEEED2Ev
   755: 000000000010ee80   367 FUNC    WEAK   DEFAULT   12 _ZN3fst8internal13VectorFstImplINS_11VectorStateINS_6ArcTplINS_16LatticeWeightTplIfEEEESaIS6_EEEED1Ev
   756: 000000000020a880    71 OBJECT  WEAK   DEFAULT   14 _ZTSN3fst8internal12NGramFstImplINS_6ArcTplINS_17TropicalWeightTplIfEEEEEE
   757: 0000000000116cf0   813 FUNC    WEAK   DEFAULT   12 _ZN4json4JSONC2ERKS0_
   758: 0000000000137750   309 FUNC    WEAK   DEFAULT   12 _ZNK3fst8internal14ComposeFstImplINS_17DefaultCacheStoreINS_6ArcTplINS_16LatticeWeightTplIfEEEEEENS_22LookAheadComposeFilterINS_24AltSequenceComposeFilterINS_16LookAheadMatcherINS_3FstIS6_EEEESD_EESD_SD_LNS_9MatchTypeE3EEENS_24GenericComposeStateTableIS6_NS_18IntegerFilterStateIaEENS_24DefaultComposeStateTupleIiSJ_EENS_21CompactHashStateTableISL_NS_11ComposeHashISL_EEEEEEE11InitMatcherERKNS_10ComposeFstIS6_S7_EESF_
   759: 0000000000100160     1 FUNC    WEAK   DEFAULT   12 _ZNSt15_Sp_counted_ptrIPN3fst8internal18ComposeFstImplBaseINS0_6ArcTplINS0_16LatticeWeightTplIfEEEENS0_17DefaultCacheStoreIS6_EENS0_10ComposeFstIS6_S8_EEEELN9__gnu_cxx12_Lock_policyE2EED1Ev
   760: 00000000001b0200   234 FUNC    WEAK   DEFAULT   12 _ZN3fst6ArcTplINS_17TropicalWeightTplIfEEE4TypeB5cxx11Ev
   761: 00000000001259a0   228 FUNC    WEAK   DEFAULT   12 _ZN3fst16LookAheadMatcherINS_3FstINS_6ArcTplINS_16LatticeWeightTplIfEEEEEEEC2ERKS6_NS_9MatchTypeE
   762: 0000000000241288    24 OBJECT  WEAK   DEFAULT   21 _ZTIN3fst22MutableArcIteratorBaseINS_6ArcTplINS_17TropicalWeightTplIfEEEEEE
   763: 000000000010e280   214 FUNC    WEAK   DEFAULT   12 _ZNK3fst9VectorFstINS_10ReverseArcINS_6ArcTplINS_16LatticeWeightTplIfEEEEEENS_11VectorStateIS6_SaIS6_EEEE4CopyEb
   764: 000000000010bdc0   117 FUNC    WEAK   DEFAULT   12 _ZN3fst10MemoryPoolINS_13PoolAllocatorINS_6ArcTplINS_17TropicalWeightTplIfEEEEE2TNILi16EEEED2Ev
   765: 00000000001d40e0   117 FUNC    WEAK   DEFAULT   12 _ZN3fst10MemoryPoolINS_13PoolAllocatorINS_10ReverseArcINS_6ArcTplINS_17TropicalWeightTplIfEEEEEEE2TNILi16EEEED2Ev
   766: 000000000015dae0   648 FUNC    WEAK   DEFAULT   12 _ZN3fst13SortedMatcherINS_3FstINS_6ArcTplINS_17TropicalWeightTplIfEEEEEEE8SetStateEi
   767: 0000000000246760    24 OBJECT  WEAK   DEFAULT   21 _ZTIN3fst10MemoryPoolINS_8internal8DfsStateINS_3FstINS_10ReverseArcINS_6ArcTplINS_17TropicalWeightTplIfEEEEEEEEEEEE
   768: 00000000000fe0f0     1 FUNC    WEAK   DEFAULT   12 _ZNSt23_Sp_counted_ptr_inplaceIN3fst8internal13VectorFstImplINS0_11VectorStateINS0_6ArcTplINS0_17TropicalWeightTplIfEEEESaIS7_EEEEESaIvELN9__gnu_cxx12_Lock_policyE2EED2Ev
   769: 00000000001d2210     7 FUNC    WEAK   DEFAULT   12 _ZNK3fst8internal7FstImplINS_10ReverseArcINS_6ArcTplINS_17TropicalWeightTplIfEEEEEEE10PropertiesEv
   770: 0000000000240d50    16 OBJECT  WEAK   DEFAULT   21 _ZTIN3fst3FstINS_6ArcTplINS_16LatticeWeightTplIfEEEEEE
   771: 0000000000101b80    10 FUNC    WEAK   DEFAULT   12 _ZNSt23_Sp_counted_ptr_inplaceIN3fst8internal14ComposeFstImplINS0_17DefaultCacheStoreINS0_6ArcTplINS0_16LatticeWeightTplIfEEEEEENS0_17NullComposeFilterINS0_7MatcherINS0_3FstIS7_EEEESD_EENS0_24GenericComposeStateTableIS7_NS0_18TrivialFilterStateENS0_24DefaultComposeStateTupleIiSG_EENS0_21CompactHashStateTableISI_NS0_11ComposeHashISI_EEEEEEEESaIvELN9__gnu_cxx12_Lock_policyE2EED0Ev
   772: 00000000001ef070  1262 FUNC    WEAK   DEFAULT   12 _ZN3fst8internal18DeterminizeFsaImplINS_10ReverseArcINS_6ArcTplINS_17TropicalWeightTplIfEEEEEENS_20DefaultCommonDivisorIS5_EENS_24DefaultDeterminizeFilterIS7_EENS_28DefaultDeterminizeStateTableIS7_NS_18IntegerFilterStateIaEEEEE9FindStateEPNS0_21DeterminizeStateTupleIS7_SE_EE
   773: 000000000013b2c0   379 FUNC    WEAK   DEFAULT   12 _ZN3fst20MemoryPoolCollection4PoolINS_13PoolAllocatorINS_6ArcTplINS_16LatticeWeightTplIfEEEEE2TNILi16EEEEEPNS_10MemoryPoolIT_EEv
   774: 0000000000126610   725 FUNC    WEAK   DEFAULT   12 _ZNSt6vectorIcSaIcEE14_M_fill_insertEN9__gnu_cxx17__normal_iteratorIPcS1_EEmRKc
   775: 00000000001b3450  1493 FUNC    WEAK   DEFAULT   12 _ZN3fst13FstRegistererINS_8NGramFstINS_6ArcTplINS_17TropicalWeightTplIfEEEEEEEC1Ev
   776: 0000000000204240    20 OBJECT  WEAK   DEFAULT   14 _ZTSN3fst9FifoQueueIiEE
   777: 000000000010b9c0   117 FUNC    WEAK   DEFAULT   12 _ZN3fst10MemoryPoolINS_13PoolAllocatorIPNSt8__detail15_Hash_node_baseEE2TNILi4EEEED2Ev
   778: 0000000000188c50  1129 FUNC    WEAK   DEFAULT   12 _ZN3fst8internal14ComposeFstImplINS_17DefaultCacheStoreINS_6ArcTplINS_17TropicalWeightTplIfEEEEEENS_23PushLabelsComposeFilterINS_24PushWeightsComposeFilterINS_22LookAheadComposeFilterINS_21SequenceComposeFilterINS_16LookAheadMatcherINS_3FstIS6_EEEESF_EESF_SF_LNS_9MatchTypeE3EEESF_SF_LSH_3EEESF_SF_LSH_3EEENS_24GenericComposeStateTableIS6_NS_15PairFilterStateINSM_INS_18IntegerFilterStateIaEENS_17WeightFilterStateIS5_EEEENSN_IiEEEENS_24DefaultComposeStateTupleIiST_EENS_21CompactHashStateTableISV_NS_11ComposeHashISV_EEEEEEE6ExpandEi
   779: 00000000001dc0f0   250 FUNC    WEAK   DEFAULT   12 _ZN3fst8internal7FstImplINS_10ReverseArcINS_6ArcTplINS_17TropicalWeightTplIfEEEEEEE16SetOutputSymbolsEPKNS_11SymbolTableE
   780: 0000000000100200     3 FUNC    WEAK   DEFAULT   12 _ZNSt15_Sp_counted_ptrIPN3fst8internal22DeterminizeFstImplBaseINS0_10ReverseArcINS0_6ArcTplINS0_16LatticeWeightTplIfEEEEEEEELN9__gnu_cxx12_Lock_policyE2EE14_M_get_deleterERKSt9type_info
   781: 000000000010b340   117 FUNC    WEAK   DEFAULT   12 _ZN3fst8internal14MemoryPoolImplILm24EED2Ev
   782: 0000000000206320   147 OBJECT  WEAK   DEFAULT   14 _ZTSN3fst8internal13VectorFstImplINS_11VectorStateINS_10ReverseArcINS_6ArcTplINS_23CompactLatticeWeightTplINS_16LatticeWeightTplIfEEiEEEEEESaISA_EEEEE
   783: 00000000000fe750   198 FUNC    WEAK   DEFAULT   12 _ZNK3fst8SccQueueIiNS_9QueueBaseIiEEE4HeadEv
   784: 0000000000244080    88 OBJECT  WEAK   DEFAULT   21 _ZTVN3fst8internal14ComposeFstImplINS_17DefaultCacheStoreINS_6ArcTplINS_16LatticeWeightTplIfEEEEEENS_24AltSequenceComposeFilterINS_7MatcherINS_3FstIS6_EEEESC_EENS_24GenericComposeStateTableIS6_NS_18IntegerFilterStateIaEENS_24DefaultComposeStateTupleIiSG_EENS_21CompactHashStateTableISI_NS_11ComposeHashISI_EEEEEEEE
   785: 0000000000246640    56 OBJECT  WEAK   DEFAULT   21 _ZTVSt23_Sp_counted_ptr_inplaceIN3fst29MutableFastLogAccumulatorDataESaIvELN9__gnu_cxx12_Lock_policyE2EE
   786: 000000000011e860   406 FUNC    WEAK   DEFAULT   12 _ZNSt6vectorISt4pairIiPKN3fst23LatticeStringRepositoryIiE5EntryEESaIS7_EE17_M_realloc_insertIJRKS7_EEEvN9__gnu_cxx17__normal_iteratorIPS7_S9_EEDpOT_
   787: 00000000000fed30    11 FUNC    WEAK   DEFAULT   12 _ZNK3fst9ImplToFstINS_8internal18ComposeFstImplBaseINS_6ArcTplINS_16LatticeWeightTplIfEEEENS_17DefaultCacheStoreIS6_EENS_10ComposeFstIS6_S8_EEEENS_3FstIS6_EEE12InputSymbolsEv
   788: 00000000001346e0    39 FUNC    WEAK   DEFAULT   12 _ZNSt6vectorIN3fst24DefaultComposeStateTupleIiNS0_15PairFilterStateINS2_INS0_18IntegerFilterStateIaEENS0_17WeightFilterStateINS0_17TropicalWeightTplIfEEEEEENS3_IiEEEEEESaISC_EED1Ev
   789: 00000000000fdd40     1 FUNC    WEAK   DEFAULT   12 _ZNSt23_Sp_counted_ptr_inplaceIN3fst8internal13VectorFstImplINS0_11VectorStateINS0_10ReverseArcINS0_6ArcTplINS0_16LatticeWeightTplIfEEEEEESaIS9_EEEEESaIvELN9__gnu_cxx12_Lock_policyE2EED2Ev
   790: 0000000000101560     8 FUNC    WEAK   DEFAULT   12 _ZN3fst18MutableArcIteratorINS_9VectorFstINS_10ReverseArcINS_6ArcTplINS_23CompactLatticeWeightTplINS_16LatticeWeightTplIfEEiEEEEEENS_11VectorStateIS9_SaIS9_EEEEEE4NextEv
   791: 00000000002476b8    80 OBJECT  WEAK   DEFAULT   21 _ZTVN3fst8internal18DeterminizeFsaImplINS_10ReverseArcINS_6ArcTplINS_17TropicalWeightTplIfEEEEEENS_20DefaultCommonDivisorIS5_EENS_24DefaultDeterminizeFilterIS7_EENS_28DefaultDeterminizeStateTableIS7_NS_18IntegerFilterStateIaEEEEEE
   792: 00000000001dd530  1224 FUNC    WEAK   DEFAULT   12 _ZN3fst8internal14ComposeFstImplINS_17DefaultCacheStoreINS_6ArcTplINS_17TropicalWeightTplIfEEEEEENS_20TrivialComposeFilterINS_7MatcherINS_3FstIS6_EEEESC_EENS_24GenericComposeStateTableIS6_NS_18TrivialFilterStateENS_24DefaultComposeStateTupleIiSF_EENS_21CompactHashStateTableISH_NS_11ComposeHashISH_EEEEEEE12SetMatchTypeEv
   793: 00000000000e4320    12 FUNC    GLOBAL DEFAULT   12 _ZN10Recognizer8SetNLSMLEb
   794: 0000000000109220    75 FUNC    WEAK   DEFAULT   12 _ZNSt23_Sp_counted_ptr_inplaceIN3fst8internal14ComposeFstImplINS0_17DefaultCacheStoreINS0_6ArcTplINS0_17TropicalWeightTplIfEEEEEENS0_23PushLabelsComposeFilterINS0_24PushWeightsComposeFilterINS0_22LookAheadComposeFilterINS0_24AltSequenceComposeFilterINS0_16LookAheadMatcherINS0_3FstIS7_EEEESG_EESG_SG_LNS0_9MatchTypeE3EEESG_SG_LSI_3EEESG_SG_LSI_3EEENS0_24GenericComposeStateTableIS7_NS0_15PairFilterStateINSN_INS0_18IntegerFilterStateIaEENS0_17WeightFilterStateIS6_EEEENSO_IiEEEENS0_24DefaultComposeStateTupleIiSU_EENS0_21CompactHashStateTableISW_NS0_11ComposeHashISW_EEEEEEEESaIvELN9__gnu_cxx12_Lock_policyE2EE14_M_get_deleterERKSt9type_info
   795: 00000000001c9cc0    89 FUNC    GLOBAL DEFAULT   12 vosk_recognizer_new_spk
   796: 0000000000241688    24 OBJECT  WEAK   DEFAULT   21 _ZTISt23_Sp_counted_ptr_inplaceIN3fst8internal14ComposeFstImplINS0_17DefaultCacheStoreINS0_6ArcTplINS0_17TropicalWeightTplIfEEEEEENS0_23PushLabelsComposeFilterINS0_24PushWeightsComposeFilterINS0_22LookAheadComposeFilterINS0_21SequenceComposeFilterINS0_16LookAheadMatcherINS0_3FstIS7_EEEESG_EESG_SG_LNS0_9MatchTypeE3EEESG_SG_LSI_3EEESG_SG_LSI_3EEENS0_24GenericComposeStateTableIS7_NS0_15PairFilterStateINSN_INS0_18IntegerFilterStateIaEENS0_17WeightFilterStateIS6_EEEENSO_IiEEEENS0_24DefaultComposeStateTupleIiSU_EENS0_21CompactHashStateTableISW_NS0_11ComposeHashISW_EEEEEEEESaIvELN9__gnu_cxx12_Lock_policyE2EE
   797: 00000000000fdd30     1 FUNC    WEAK   DEFAULT   12 _ZNSt23_Sp_counted_ptr_inplaceIN3fst8internal18DeterminizeFsaImplINS0_10ReverseArcINS0_6ArcTplINS0_16LatticeWeightTplIfEEEEEENS0_20DefaultCommonDivisorIS6_EENS0_24DefaultDeterminizeFilterIS8_EENS0_28DefaultDeterminizeStateTableIS8_NS0_18IntegerFilterStateIaEEEEEESaIvELN9__gnu_cxx12_Lock_policyE2EED2Ev
   798: 0000000000115240    94 FUNC    WEAK   DEFAULT   12 _ZN3fst11ArcIteratorINS_3FstINS_6ArcTplINS_16LatticeWeightTplIfEEEEEEEC2ERKS6_i
   799: 000000000010d790   309 FUNC    WEAK   DEFAULT   12 _ZN22LanguageModelEstimatorD1Ev
   800: 00000000000fd970    10 FUNC    WEAK   DEFAULT   12 _ZN3fst9AutoQueueIiE7EnqueueEi
   801: 00000000000fef10    11 FUNC    WEAK   DEFAULT   12 _ZNK3fst16ImplToMutableFstINS_8internal13VectorFstImplINS_11VectorStateINS_6ArcTplINS_16LatticeWeightTplIfEEEESaIS7_EEEEENS_10MutableFstIS7_EEE12InputSymbolsEv
   802: 0000000000102d40    19 FUNC    WEAK   DEFAULT   12 _ZN5kaldi15KaldiFatalErrorD1Ev
   803: 0000000000241898    24 OBJECT  WEAK   DEFAULT   21 _ZTIN3fst8internal15MemoryArenaImplILm136EEE
   804: 0000000000202320   122 OBJECT  WEAK   DEFAULT   14 _ZTSN3fst13StateIteratorINS_9ArcMapFstINS_6ArcTplINS_17TropicalWeightTplIfEEEES5_NS_28RemoveSomeInputSymbolsMapperIS5_iEEEEEE
   805: 0000000000111d00    39 FUNC    WEAK   DEFAULT   12 _ZNSt6vectorIiSaIiEED1Ev
   806: 0000000000109130    75 FUNC    WEAK   DEFAULT   12 _ZNSt23_Sp_counted_ptr_inplaceIN3fst8internal14ComposeFstImplINS0_17DefaultCacheStoreINS0_6ArcTplINS0_16LatticeWeightTplIfEEEEEENS0_22LookAheadComposeFilterINS0_21SequenceComposeFilterINS0_16LookAheadMatcherINS0_3FstIS7_EEEESE_EESE_SE_LNS0_9MatchTypeE3EEENS0_24GenericComposeStateTableIS7_NS0_18IntegerFilterStateIaEENS0_24DefaultComposeStateTupleIiSK_EENS0_21CompactHashStateTableISM_NS0_11ComposeHashISM_EEEEEEEESaIvELN9__gnu_cxx12_Lock_policyE2EE14_M_get_deleterERKSt9type_info
   807: 00000000001007d0    17 FUNC    WEAK   DEFAULT   12 _ZNK3fst17ComposeFstMatcherINS_17DefaultCacheStoreINS_6ArcTplINS_16LatticeWeightTplIfEEEEEENS_17NullComposeFilterINS_7MatcherINS_3FstIS5_EEEESB_EENS_24GenericComposeStateTableIS5_NS_18TrivialFilterStateENS_24DefaultComposeStateTupleIiSE_EENS_21CompactHashStateTableISG_NS_11ComposeHashISG_EEEEEEE5ValueEv
   808: 000000000010a9c0   117 FUNC    WEAK   DEFAULT   12 _ZN3fst10MemoryPoolINS_13PoolAllocatorINS_10CacheStateINS_6ArcTplINS_17TropicalWeightTplIfEEEENS1_IS6_EEEEE2TNILi1EEEED1Ev
   809: 00000000001a2850    11 FUNC    GLOBAL DEFAULT   12 _ZN5Model3RefEv
   810: 00000000001996d0   234 FUNC    WEAK   DEFAULT   12 _ZN3fst17ComposeFstMatcherINS_17DefaultCacheStoreINS_6ArcTplINS_16LatticeWeightTplIfEEEEEENS_22LookAheadComposeFilterINS_21SequenceComposeFilterINS_16LookAheadMatcherINS_3FstIS5_EEEESC_EESC_SC_LNS_9MatchTypeE3EEENS_24GenericComposeStateTableIS5_NS_18IntegerFilterStateIaEENS_24DefaultComposeStateTupleIiSI_EENS_21CompactHashStateTableISK_NS_11ComposeHashISK_EEEEEEE4FindEi
   811: 00000000001d8110   347 FUNC    WEAK   DEFAULT   12 _ZN3fst15TopOrderVisitorINS_6ArcTplINS_17TropicalWeightTplIfEEEEE11FinishVisitEv
   812: 0000000000105450   459 FUNC    WEAK   DEFAULT   12 _ZN3fst18ShortestFirstQueueIiNS_8internal18StateWeightCompareIiNS_11NaturalLessINS_16LatticeWeightTplIfEEEEEELb0EE7DequeueEv
   813: 0000000000205a60    40 OBJECT  WEAK   DEFAULT   14 _ZTSN3fst8internal15MemoryArenaImplILm48EEE
   814: 00000000001f3930   823 FUNC    WEAK   DEFAULT   12 _ZN3fst8internal14ComposeFstImplINS_17DefaultCacheStoreINS_6ArcTplINS_17TropicalWeightTplIfEEEEEENS_17NullComposeFilterINS_7MatcherINS_3FstIS6_EEEESC_EENS_24GenericComposeStateTableIS6_NS_18TrivialFilterStateENS_24DefaultComposeStateTupleIiSF_EENS_21CompactHashStateTableISH_NS_11ComposeHashISH_EEEEEEE8MatchArcISC_EEviPT_RKS6_b
   815: 00000000000e3ea0   137 FUNC    GLOBAL DEFAULT   12 _ZN10Recognizer9InitStateEv
   816: 00000000000ff160    24 FUNC    WEAK   DEFAULT   12 _ZNK3fst9ImplToFstINS_8internal13VectorFstImplINS_11VectorStateINS_6ArcTplINS_17TropicalWeightTplIfEEEESaIS7_EEEEENS_10MutableFstIS7_EEE17NumOutputEpsilonsEi
   817: 00000000002428e8    48 OBJECT  WEAK   DEFAULT   21 _ZTVN3fst8internal17VectorFstBaseImplINS_11VectorStateINS_6ArcTplINS_16LatticeWeightTplIfEEEESaIS6_EEEEE
   818: 000000000010a440    89 FUNC    WEAK   DEFAULT   12 _ZN3fst8internal15MemoryArenaImplILm32EED2Ev
   819: 0000000000240028    24 OBJECT  WEAK   DEFAULT   21 _ZTIN3fst13StateIteratorINS_10ComposeFstINS_6ArcTplINS_17TropicalWeightTplIfEEEENS_17DefaultCacheStoreIS5_EEEEEE
   820: 0000000000208cc0    90 OBJECT  WEAK   DEFAULT   14 _ZTSN3fst10MemoryPoolINS_13PoolAllocatorINS_6ArcTplINS_17TropicalWeightTplIfEEEEE2TNILi2EEEEE
   821: 000000000010b8c0   117 FUNC    WEAK   DEFAULT   12 _ZN3fst10MemoryPoolINS_13PoolAllocatorINS_6ArcTplINS_17TropicalWeightTplIfEEEEE2TNILi4EEEED2Ev
   822: 0000000000247808    88 OBJECT  WEAK   DEFAULT   21 _ZTVN3fst8internal14ComposeFstImplINS_17DefaultCacheStoreINS_6ArcTplINS_17TropicalWeightTplIfEEEEEENS_24AltSequenceComposeFilterINS_7MatcherINS_3FstIS6_EEEESC_EENS_24GenericComposeStateTableIS6_NS_18IntegerFilterStateIaEENS_24DefaultComposeStateTupleIiSG_EENS_21CompactHashStateTableISI_NS_11ComposeHashISI_EEEEEEEE
   823: 0000000000240d10    16 OBJECT  WEAK   DEFAULT   21 _ZTIN3fst8internal7FstImplINS_6ArcTplINS_16LatticeWeightTplIfEEEEEE
   824: 000000000010a840   117 FUNC    WEAK   DEFAULT   12 _ZN3fst10MemoryPoolINS_8internal8DfsStateINS_3FstINS_10ReverseArcINS_6ArcTplINS_23CompactLatticeWeightTplINS_16LatticeWeightTplIfEEiEEEEEEEEEEED2Ev
   825: 00000000001d10c0     9 FUNC    WEAK   DEFAULT   12 _ZNK3fst18ShortestFirstQueueIiNS_8internal18StateWeightCompareIiNS_11NaturalLessINS_17TropicalWeightTplIfEEEEEELb0EE4HeadEv
   826: 000000000010c0c0   117 FUNC    WEAK   DEFAULT   12 _ZN3fst10MemoryPoolINS_11ArcIteratorINS_3FstINS_6ArcTplINS_17TropicalWeightTplIfEEEEEEEEED2Ev
   827: 00000000001a8d30    62 FUNC    WEAK   DEFAULT   12 _ZN3fst13SortedMatcherINS_8ConstFstINS_6ArcTplINS_17TropicalWeightTplIfEEEEjEEE8PriorityEi
   828: 00000000000fdce0     1 FUNC    WEAK   DEFAULT   12 _ZNSt23_Sp_counted_ptr_inplaceIN3fst8internal14ComposeFstImplINS0_17DefaultCacheStoreINS0_6ArcTplINS0_16LatticeWeightTplIfEEEEEENS0_20NoMatchComposeFilterINS0_7MatcherINS0_3FstIS7_EEEESD_EENS0_24GenericComposeStateTableIS7_NS0_18TrivialFilterStateENS0_24DefaultComposeStateTupleIiSG_EENS0_21CompactHashStateTableISI_NS0_11ComposeHashISI_EEEEEEEESaIvELN9__gnu_cxx12_Lock_policyE2EED1Ev
   829: 00000000001094d0   115 FUNC    WEAK   DEFAULT   12 _ZN3fst9FifoQueueIiED1Ev
   830: 00000000001a8540    10 FUNC    WEAK   DEFAULT   12 _ZNSt15_Sp_counted_ptrIPN3fst8internal12NGramFstImplINS0_6ArcTplINS0_17TropicalWeightTplIfEEEEEELN9__gnu_cxx12_Lock_policyE2EE10_M_destroyEv
   831: 0000000000115be0   111 FUNC    WEAK   DEFAULT   12 _ZN3fst11make_uniqueINS_8SccQueueIiNS_9QueueBaseIiEEEEJRSt6vectorIiSaIiEEPS5_ISt10unique_ptrIS3_St14default_deleteIS3_EESaISC_EEEEES9_IT_SA_ISG_EEDpOT0_
   832: 00000000001d0c50     1 FUNC    WEAK   DEFAULT   12 _ZNSt23_Sp_counted_ptr_inplaceIN3fst8internal14ComposeFstImplINS0_17DefaultCacheStoreINS0_6ArcTplINS0_17TropicalWeightTplIfEEEEEENS0_20TrivialComposeFilterINS0_7MatcherINS0_3FstIS7_EEEESD_EENS0_24GenericComposeStateTableIS7_NS0_18TrivialFilterStateENS0_24DefaultComposeStateTupleIiSG_EENS0_21CompactHashStateTableISI_NS0_11ComposeHashISI_EEEEEEEESaIvELN9__gnu_cxx12_Lock_policyE2EED1Ev
   833: 00000000001ae3d0   192 FUNC    WEAK   DEFAULT   12 _ZN5kaldi29OnlineIvectorExtractionConfigD2Ev
   834: 0000000000244278    40 OBJECT  WEAK   DEFAULT   21 _ZTVN3fst8internal14MemoryPoolImplILm40EEE
   835: 000000000020bfe0   105 OBJECT  WEAK   DEFAULT   14 _ZTSN3fst9VectorFstINS_10ReverseArcINS_6ArcTplINS_17TropicalWeightTplIfEEEEEENS_11VectorStateIS6_SaIS6_EEEEE
   836: 00000000000e4330   329 FUNC    GLOBAL DEFAULT   12 _ZN10Recognizer14AcceptWaveformERN5kaldi6VectorIfEE
   837: 000000000015df50   328 FUNC    WEAK   DEFAULT   12 _ZN3fst15MultiEpsMatcherINS_16LookAheadMatcherINS_3FstINS_6ArcTplINS_17TropicalWeightTplIfEEEEEEEEE4FindEi
   838: 0000000000241e38    48 OBJECT  WEAK   DEFAULT   21 _ZTVN3fst8internal13VectorFstImplINS_11VectorStateINS_6ArcTplINS_17TropicalWeightTplIfEEEESaIS6_EEEEE
   839: 00000000001d4d70    46 FUNC    WEAK   DEFAULT   12 _ZN3fst9VectorFstINS_10ReverseArcINS_6ArcTplINS_17TropicalWeightTplIfEEEEEENS_11VectorStateIS6_SaIS6_EEEED0Ev
   840: 0000000000240ad0    16 OBJECT  WEAK   DEFAULT   21 _ZTIN3fst8internal7FstImplINS_6ArcTplINS_17TropicalWeightTplIfEEEEEE
   841: 00000000002409a0    40 OBJECT  WEAK   DEFAULT   21 _ZTVN3fst10MemoryPoolINS_8internal8DfsStateINS_3FstINS_10ReverseArcINS_6ArcTplINS_16LatticeWeightTplIfEEEEEEEEEEEE
   842: 000000000024b040     8 OBJECT  <OS specific>: 10 DEFAULT   25 _ZZN3fst6ArcTplINS_23CompactLatticeWeightTplINS_16LatticeWeightTplIfEEiEEE4TypeB5cxx11EvE4type
   843: 00000000001d4ac0   263 FUNC    WEAK   DEFAULT   12 _ZNK3fst3FstINS_10ReverseArcINS_6ArcTplINS_17TropicalWeightTplIfEEEEEEE5WriteERKNSt7__cxx1112basic_stringIcSt11char_traitsIcESaIcEEE
   844: 0000000000208360    40 OBJECT  WEAK   DEFAULT   14 _ZTSN3fst8internal14MemoryPoolImplILm128EEE
   845: 0000000000128be0   480 FUNC    WEAK   DEFAULT   12 _ZNSt6vectorIN3fst6ArcTplINS0_16LatticeWeightTplIfEEEESaIS4_EE17_M_realloc_insertIJS4_EEEvN9__gnu_cxx17__normal_iteratorIPS4_S6_EEDpOT_
   846: 00000000001b3a30   493 FUNC    WEAK   DEFAULT   12 _ZNSt5dequeIiSaIiEE17_M_reallocate_mapEmb
   847: 00000000001a9f90    75 FUNC    WEAK   DEFAULT   12 _ZNSt23_Sp_counted_ptr_inplaceIN3fst8internal12NGramFstImplINS0_6ArcTplINS0_17TropicalWeightTplIfEEEEEESaIvELN9__gnu_cxx12_Lock_policyE2EE14_M_get_deleterERKSt9type_info
   848: 000000000010d470   796 FUNC    WEAK   DEFAULT   12 _ZN3fst8internal16CompatPropertiesEmm
   849: 00000000000fe550     6 FUNC    WEAK   DEFAULT   12 _ZNK3fst8internal15MemoryArenaImplILm56EE4SizeEv
   850: 000000000013a710   534 FUNC    WEAK   DEFAULT   12 _ZNSt10_HashtableIiiN3fst13PoolAllocatorIiEENSt8__detail9_IdentityENS0_18CompactHashBiTableIiNS0_24DefaultComposeStateTupleIiNS0_18TrivialFilterStateEEENS0_11ComposeHashIS8_EESt8equal_toIS8_ELNS0_6HSTypeE3EE9HashEqualENSE_8HashFuncENS3_18_Mod_range_hashingENS3_20_Default_ranged_hashENS3_20_Prime_rehash_policyENS3_17_Hashtable_traitsILb1ELb1ELb1EEEED1Ev
   851: 00000000001d2760    10 FUNC    WEAK   DEFAULT   12 _ZNSt23_Sp_counted_ptr_inplaceIN3fst14StringCompilerINS0_6ArcTplINS0_17TropicalWeightTplIfEEEEEESaIvELN9__gnu_cxx12_Lock_policyE2EE10_M_destroyEv
   852: 000000000020cae0   305 OBJECT  WEAK   DEFAULT   14 _ZTSN3fst8internal14ComposeFstImplINS_17DefaultCacheStoreINS_6ArcTplINS_17TropicalWeightTplIfEEEEEENS_20TrivialComposeFilterINS_7MatcherINS_3FstIS6_EEEESC_EENS_24GenericComposeStateTableIS6_NS_18TrivialFilterStateENS_24DefaultComposeStateTupleIiSF_EENS_21CompactHashStateTableISH_NS_11ComposeHashISH_EEEEEEEE
   853: 00000000001d26f0    90 FUNC    WEAK   DEFAULT   12 _ZNK3fst8internal18DeterminizeFsaImplINS_10ReverseArcINS_6ArcTplINS_17TropicalWeightTplIfEEEEEENS_20DefaultCommonDivisorIS5_EENS_24DefaultDeterminizeFilterIS7_EENS_28DefaultDeterminizeStateTableIS7_NS_18IntegerFilterStateIaEEEEE10PropertiesEm
   854: 000000000011ac20    67 FUNC    WEAK   DEFAULT   12 _ZN3fst10MemoryPoolINS_13PoolAllocatorINS_10ReverseArcINS_6ArcTplINS_16LatticeWeightTplIfEEEEEEE2TNILi2EEEED0Ev
   855: 000000000011b610    67 FUNC    WEAK   DEFAULT   12 _ZN3fst8internal14MemoryPoolImplILm16EED0Ev
   856: 000000000010a560    89 FUNC    WEAK   DEFAULT   12 _ZN3fst8internal15MemoryArenaImplILm328EED2Ev
   857: 00000000002066e0   192 OBJECT  WEAK   DEFAULT   14 _ZTSN3fst16ImplToMutableFstINS_8internal13VectorFstImplINS_11VectorStateINS_10ReverseArcINS_6ArcTplINS_23CompactLatticeWeightTplINS_16LatticeWeightTplIfEEiEEEEEESaISB_EEEEENS_10MutableFstISB_EEEE
   858: 0000000000112510   380 FUNC    WEAK   DEFAULT   12 _ZNSt5dequeIN4json4JSONESaIS1_EED2Ev
   859: 0000000000196400  1637 FUNC    WEAK   DEFAULT   12 _ZN3fst8internal18DeterminizeFsaImplINS_10ReverseArcINS_6ArcTplINS_16LatticeWeightTplIfEEEEEENS_20DefaultCommonDivisorIS5_EENS_24DefaultDeterminizeFilterIS7_EENS_28DefaultDeterminizeStateTableIS7_NS_18IntegerFilterStateIaEEEEE9FindStateEPNS0_21DeterminizeStateTupleIS7_SE_EE
   860: 00000000001dc1f0  1224 FUNC    WEAK   DEFAULT   12 _ZN3fst8internal14ComposeFstImplINS_17DefaultCacheStoreINS_6ArcTplINS_17TropicalWeightTplIfEEEEEENS_17NullComposeFilterINS_7MatcherINS_3FstIS6_EEEESC_EENS_24GenericComposeStateTableIS6_NS_18TrivialFilterStateENS_24DefaultComposeStateTupleIiSF_EENS_21CompactHashStateTableISH_NS_11ComposeHashISH_EEEEEEE12SetMatchTypeEv
   861: 000000000010f720   367 FUNC    WEAK   DEFAULT   12 _ZN3fst8internal17VectorFstBaseImplINS_11VectorStateINS_10ReverseArcINS_6ArcTplINS_16LatticeWeightTplIfEEEEEESaIS8_EEEED2Ev
   862: 00000000000ffda0   618 FUNC    WEAK   DEFAULT   12 _ZN3fst8internal14ComposeFstImplINS_17DefaultCacheStoreINS_6ArcTplINS_16LatticeWeightTplIfEEEEEENS_22LookAheadComposeFilterINS_24AltSequenceComposeFilterINS_16LookAheadMatcherINS_3FstIS6_EEEESD_EESD_SD_LNS_9MatchTypeE3EEENS_24GenericComposeStateTableIS6_NS_18IntegerFilterStateIaEENS_24DefaultComposeStateTupleIiSJ_EENS_21CompactHashStateTableISL_NS_11ComposeHashISL_EEEEEEE12ComputeFinalEi
   863: 0000000000112690   241 FUNC    WEAK   DEFAULT   12 _ZN4json4JSOND2Ev
   864: 0000000000145880   407 FUNC    WEAK   DEFAULT   12 _ZN3fst8internal22DeterminizeFstImplBaseINS_10ReverseArcINS_6ArcTplINS_16LatticeWeightTplIfEEEEEEED1Ev
   865: 000000000017e290   410 FUNC    WEAK   DEFAULT   12 _ZN3fst16ImplToMutableFstINS_8internal13VectorFstImplINS_11VectorStateINS_6ArcTplINS_17TropicalWeightTplIfEEEESaIS7_EEEEENS_10MutableFstIS7_EEE9AddStatesEm
   866: 000000000013b5c0  1490 FUNC    WEAK   DEFAULT   12 _ZN3fst13PoolAllocatorINS_6ArcTplINS_16LatticeWeightTplIfEEEEE10deallocateEPS4_m
   867: 000000000020a420   129 OBJECT  WEAK   DEFAULT   14 _ZTSN3fst8internal9AddOnImplINS_8ConstFstINS_6ArcTplINS_17TropicalWeightTplIfEEEEjEENS_9AddOnPairINS_18LabelReachableDataIiEESA_EEEE
   868: 0000000000100080     1 FUNC    WEAK   DEFAULT   12 _ZN3fst18CacheStateIteratorINS_10ComposeFstINS_6ArcTplINS_16LatticeWeightTplIfEEEENS_17DefaultCacheStoreIS5_EEEEED2Ev
   869: 00000000001d2bd0   104 FUNC    WEAK   DEFAULT   12 _ZNK3fst8internal18DeterminizeFsaImplINS_10ReverseArcINS_6ArcTplINS_17TropicalWeightTplIfEEEEEENS_20DefaultCommonDivisorIS5_EENS_24DefaultDeterminizeFilterIS7_EENS_28DefaultDeterminizeStateTableIS7_NS_18IntegerFilterStateIaEEEEE10PropertiesEv
   870: 000000000011a910    67 FUNC    WEAK   DEFAULT   12 _ZN3fst10MemoryPoolINS_13PoolAllocatorINS_6ArcTplINS_16LatticeWeightTplIfEEEEE2TNILi16EEEED0Ev
   871: 0000000000108620   258 FUNC    WEAK   DEFAULT   12 _ZN3fst17ComposeFstMatcherINS_17DefaultCacheStoreINS_6ArcTplINS_16LatticeWeightTplIfEEEEEENS_17NullComposeFilterINS_7MatcherINS_3FstIS5_EEEESB_EENS_24GenericComposeStateTableIS5_NS_18TrivialFilterStateENS_24DefaultComposeStateTupleIiSE_EENS_21CompactHashStateTableISG_NS_11ComposeHashISG_EEEEEEE8PriorityEi
   872: 0000000000241390    24 OBJECT  WEAK   DEFAULT   21 _ZTISt23_Sp_counted_ptr_inplaceIN3fst8internal13VectorFstImplINS0_11VectorStateINS0_6ArcTplINS0_23CompactLatticeWeightTplINS0_16LatticeWeightTplIfEEiEEEESaIS9_EEEEESaIvELN9__gnu_cxx12_Lock_policyE2EE
   873: 000000000012a9a0   326 FUNC    WEAK   DEFAULT   12 _ZNSt11_Deque_baseIPN3fst8internal8DfsStateINS0_3FstINS0_10ReverseArcINS0_6ArcTplINS0_23CompactLatticeWeightTplINS0_16LatticeWeightTplIfEEiEEEEEEEEEESaISE_EE17_M_initialize_mapEm
   874: 00000000002423a8    48 OBJECT  WEAK   DEFAULT   21 _ZTVN3fst8internal13VectorFstImplINS_11VectorStateINS_6ArcTplINS_23CompactLatticeWeightTplINS_16LatticeWeightTplIfEEiEEEESaIS8_EEEEE
   875: 0000000000193000  1709 FUNC    WEAK   DEFAULT   12 _ZN3fst8internal13CacheBaseImplINS_10CacheStateINS_6ArcTplINS_16LatticeWeightTplIfEEEENS_13PoolAllocatorIS6_EEEENS_17DefaultCacheStoreIS6_EEEC1ERKSC_b
   876: 00000000001ae770    97 FUNC    WEAK   DEFAULT   12 _ZN3fst8internal12ConstFstImplINS_6ArcTplINS_17TropicalWeightTplIfEEEEjED2Ev
   877: 0000000000110720   451 FUNC    WEAK   DEFAULT   12 _ZN3fst8internal17VectorFstBaseImplINS_11VectorStateINS_6ArcTplINS_23CompactLatticeWeightTplINS_16LatticeWeightTplIfEEiEEEESaIS8_EEEED0Ev
   878: 000000000011a0f0   411 FUNC    WEAK   DEFAULT   12 _ZN3fst11CountStatesINS_6ArcTplINS_17TropicalWeightTplIfEEEEEENT_7StateIdERKNS_3FstIS5_EE
   879: 0000000000132e70   125 FUNC    WEAK   DEFAULT   12 _ZN3fst17ComposeFstMatcherINS_17DefaultCacheStoreINS_6ArcTplINS_16LatticeWeightTplIfEEEEEENS_20TrivialComposeFilterINS_7MatcherINS_3FstIS5_EEEESB_EENS_24GenericComposeStateTableIS5_NS_18TrivialFilterStateENS_24DefaultComposeStateTupleIiSE_EENS_21CompactHashStateTableISG_NS_11ComposeHashISG_EEEEEEED2Ev
   880: 000000000011ff40    81 FUNC    WEAK   DEFAULT   12 _ZNSt6vectorIiSaIiEE6resizeEmRKi
   881: 00000000000fee90    48 FUNC    WEAK   DEFAULT   12 _ZNK3fst9ImplToFstINS_8internal13VectorFstImplINS_11VectorStateINS_6ArcTplINS_16LatticeWeightTplIfEEEESaIS7_EEEEENS_10MutableFstIS7_EEE7NumArcsEi
   882: 0000000000192700  1338 FUNC    WEAK   DEFAULT   12 _ZN3fst8internal13ArcMapFstImplINS_6ArcTplINS_17TropicalWeightTplIfEEEENS2_INS_16LatticeWeightTplIfEEEENS_18StdToLatticeMapperIfEEE6ExpandEi
   883: 00000000001836c0   765 FUNC    WEAK   DEFAULT   12 _ZN3fst16VectorCacheStoreINS_10CacheStateINS_6ArcTplINS_16LatticeWeightTplIfEEEENS_13PoolAllocatorIS5_EEEEE15GetMutableStateEi
   884: 000000000017d600   258 FUNC    WEAK   DEFAULT   12 _ZN3fst16ImplToMutableFstINS_8internal13VectorFstImplINS_11VectorStateINS_6ArcTplINS_17TropicalWeightTplIfEEEESaIS7_EEEEENS_10MutableFstIS7_EEE8SetStartEi
   885: 0000000000245ad8    24 OBJECT  WEAK   DEFAULT   21 _ZTISt23_Sp_counted_ptr_inplaceIN3fst8internal12NGramFstImplINS0_6ArcTplINS0_17TropicalWeightTplIfEEEEEESaIvELN9__gnu_cxx12_Lock_policyE2EE
   886: 00000000001945b0   494 FUNC    WEAK   DEFAULT   12 _ZNK3fst8internal14ComposeFstImplINS_17DefaultCacheStoreINS_6ArcTplINS_16LatticeWeightTplIfEEEEEENS_18MatchComposeFilterINS_7MatcherINS_3FstIS6_EEEESC_EENS_24GenericComposeStateTableIS6_NS_18IntegerFilterStateIaEENS_24DefaultComposeStateTupleIiSG_EENS_21CompactHashStateTableISI_NS_11ComposeHashISI_EEEEEEE4CopyEv
   887: 0000000000102000   170 FUNC    WEAK   DEFAULT   12 _ZNK3fst8internal14ComposeFstImplINS_17DefaultCacheStoreINS_6ArcTplINS_16LatticeWeightTplIfEEEEEENS_22LookAheadComposeFilterINS_24AltSequenceComposeFilterINS_16LookAheadMatcherINS_3FstIS6_EEEESD_EESD_SD_LNS_9MatchTypeE3EEENS_24GenericComposeStateTableIS6_NS_18IntegerFilterStateIaEENS_24DefaultComposeStateTupleIiSJ_EENS_21CompactHashStateTableISL_NS_11ComposeHashISL_EEEEEEE10PropertiesEm
   888: 000000000011b700    42 FUNC    WEAK   DEFAULT   12 _ZN3fst8internal15MemoryArenaImplILm24EED0Ev
   889: 000000000011e0f0   989 FUNC    WEAK   DEFAULT   12 _ZN3fst19LatticeDeterminizerINS_16LatticeWeightTplIfEEiE14FreeMostMemoryEv
   890: 0000000000208020    82 OBJECT  WEAK   DEFAULT   14 _ZTSN3fst10MemoryPoolINS_13PoolAllocatorIPNSt8__detail15_Hash_node_baseEE2TNILi1EEEEE
   891: 000000000010e000    37 FUNC    WEAK   DEFAULT   12 _ZN3fst9VectorFstINS_10ReverseArcINS_6ArcTplINS_16LatticeWeightTplIfEEEEEENS_11VectorStateIS6_SaIS6_EEEED2Ev
   892: 00000000001a7eb0     1 FUNC    WEAK   DEFAULT   12 _ZNSt19_Sp_counted_deleterIPN3fst8internal15SymbolTableImplESt14default_deleteIS2_ESaIvELN9__gnu_cxx12_Lock_policyE2EED2Ev
   893: 000000000010a030   161 FUNC    WEAK   DEFAULT   12 _ZN3fst17ComposeFstMatcherINS_17DefaultCacheStoreINS_6ArcTplINS_16LatticeWeightTplIfEEEEEENS_22LookAheadComposeFilterINS_24AltSequenceComposeFilterINS_16LookAheadMatcherINS_3FstIS5_EEEESC_EESC_SC_LNS_9MatchTypeE3EEENS_24GenericComposeStateTableIS5_NS_18IntegerFilterStateIaEENS_24DefaultComposeStateTupleIiSI_EENS_21CompactHashStateTableISK_NS_11ComposeHashISK_EEEEEEED0Ev
   894: 00000000001075d0   211 FUNC    WEAK   DEFAULT   12 _ZNK3fst9ImplToFstINS_8internal18ComposeFstImplBaseINS_6ArcTplINS_17TropicalWeightTplIfEEEENS_17DefaultCacheStoreIS6_EENS_10ComposeFstIS6_S8_EEEENS_3FstIS6_EEE16NumInputEpsilonsEi
   895: 00000000001c3f10     5 FUNC    WEAK   DEFAULT   12 _ZNK3fst8ConstFstINS_6ArcTplINS_17TropicalWeightTplIfEEEEjE5WriteERSoRKNS_15FstWriteOptionsE
   896: 00000000001d3e60   120 FUNC    WEAK   DEFAULT   12 _ZN3fst18ShortestFirstQueueIiNS_8internal18StateWeightCompareIiNS_11NaturalLessINS_17TropicalWeightTplIfEEEEEELb0EED1Ev
   897: 00000000001174d0    46 FUNC    WEAK   DEFAULT   12 _ZN3fst16LookAheadMatcherINS_3FstINS_6ArcTplINS_17TropicalWeightTplIfEEEEEEED1Ev
   898: 0000000000245010    40 OBJECT  WEAK   DEFAULT   21 _ZTVN3fst10MemoryPoolINS_13PoolAllocatorIPNSt8__detail15_Hash_node_baseEE2TNILi4EEEEE
   899: 00000000001005b0     1 FUNC    WEAK   DEFAULT   12 _ZN3fst18MutableArcIteratorINS_9VectorFstINS_10ReverseArcINS_6ArcTplINS_16LatticeWeightTplIfEEEEEENS_11VectorStateIS7_SaIS7_EEEEEE8SetFlagsEhh
   900: 00000000000ff9b0    95 FUNC    WEAK   DEFAULT   12 _ZNK3fst9ImplToFstINS_8internal18ComposeFstImplBaseINS_6ArcTplINS_17TropicalWeightTplIfEEEENS_17DefaultCacheStoreIS6_EENS_10ComposeFstIS6_S8_EEEENS_3FstIS6_EEE5StartEv
   901: 0000000000246dc8    24 OBJECT  WEAK   DEFAULT   21 _ZTISt23_Sp_counted_ptr_inplaceIN3fst8internal13VectorFstImplINS0_11VectorStateINS0_10ReverseArcINS0_6ArcTplINS0_17TropicalWeightTplIfEEEEEESaIS9_EEEEESaIvELN9__gnu_cxx12_Lock_policyE2EE
   902: 0000000000108010   195 FUNC    WEAK   DEFAULT   12 _ZNK3fst8internal14ComposeFstImplINS_17DefaultCacheStoreINS_6ArcTplINS_16LatticeWeightTplIfEEEEEENS_22LookAheadComposeFilterINS_24AltSequenceComposeFilterINS_16LookAheadMatcherINS_3FstIS6_EEEESD_EESD_SD_LNS_9MatchTypeE3EEENS_24GenericComposeStateTableIS6_NS_18IntegerFilterStateIaEENS_24DefaultComposeStateTupleIiSJ_EENS_21CompactHashStateTableISL_NS_11ComposeHashISL_EEEEEEE10PropertiesEv
   903: 000000000017ecc0   469 FUNC    WEAK   DEFAULT   12 _ZNSt7__cxx114listIiN3fst13PoolAllocatorIiEEE9_M_insertIJiEEEvSt14_List_iteratorIiEDpOT_
   904: 0000000000140d60   402 FUNC    WEAK   DEFAULT   12 _ZN3fst8internal14ComposeFstImplINS_17DefaultCacheStoreINS_6ArcTplINS_17TropicalWeightTplIfEEEEEENS_23PushLabelsComposeFilterINS_24PushWeightsComposeFilterINS_22LookAheadComposeFilterINS_21SequenceComposeFilterINS_16LookAheadMatcherINS_3FstIS6_EEEESF_EESF_SF_LNS_9MatchTypeE3EEESF_SF_LSH_3EEESF_SF_LSH_3EEENS_24GenericComposeStateTableIS6_NS_15PairFilterStateINSM_INS_18IntegerFilterStateIaEENS_17WeightFilterStateIS5_EEEENSN_IiEEEENS_24DefaultComposeStateTupleIiST_EENS_21CompactHashStateTableISV_NS_11ComposeHashISV_EEEEEEED1Ev
   905: 00000000001b97d0   488 FUNC    WEAK   DEFAULT   12 _ZN3fst8internal9AddOnImplINS_8ConstFstINS_6ArcTplINS_17TropicalWeightTplIfEEEEjEENS_9AddOnPairINS_18LabelReachableDataIiEESA_EEEC2ERKNS_3FstIS6_EERKNSt7__cxx1112basic_stringIcSt11char_traitsIcESaIcEEESt10shared_ptrISB_E
   906: 00000000001c6240  1544 FUNC    WEAK   DEFAULT   12 _ZN3fst21LabelLookAheadMatcherINS_13SortedMatcherINS_8ConstFstINS_6ArcTplINS_17TropicalWeightTplIfEEEEjEEEELj1760ENS_18FastLogAccumulatorIS6_EENS_14LabelReachableIS6_SA_NS_18LabelReachableDataIiEEEEE12LookAheadFstINS_3FstIS6_EEEEbRKT_i
   907: 0000000000116510   573 FUNC    WEAK   DEFAULT   12 _ZN3fst8internal14RmEpsilonStateINS_6ArcTplINS_23CompactLatticeWeightTplINS_16LatticeWeightTplIfEEiEEEENS_9AutoQueueIiEEED1Ev
   908: 00000000001c9fe0     3 FUNC    GLOBAL DEFAULT   12 vosk_batch_recognizer_get_pending_chunks
   909: 00000000001d0c90     1 FUNC    WEAK   DEFAULT   12 _ZNSt23_Sp_counted_ptr_inplaceIN3fst8internal14ComposeFstImplINS0_17DefaultCacheStoreINS0_6ArcTplINS0_17TropicalWeightTplIfEEEEEENS0_17NullComposeFilterINS0_7MatcherINS0_3FstIS7_EEEESD_EENS0_24GenericComposeStateTableIS7_NS0_18TrivialFilterStateENS0_24DefaultComposeStateTupleIiSG_EENS0_21CompactHashStateTableISI_NS0_11ComposeHashISI_EEEEEEEESaIvELN9__gnu_cxx12_Lock_policyE2EED1Ev
   910: 0000000000241850    24 OBJECT  WEAK   DEFAULT   21 _ZTIN3fst8internal15MemoryArenaImplILm72EEE
   911: 00000000002042a0    96 OBJECT  WEAK   DEFAULT   14 _ZTSN3fst15ArcIteratorBaseINS_6ArcTplINS_23CompactLatticeWeightTplINS_16LatticeWeightTplIfEEiEEEEEE
   912: 00000000001045b0   111 FUNC    WEAK   DEFAULT   12 _ZNK3fst13SortedMatcherINS_3FstINS_6ArcTplINS_16LatticeWeightTplIfEEEEEEE5FinalEi
   913: 000000000010c1c0   117 FUNC    WEAK   DEFAULT   12 _ZN3fst10MemoryPoolINS_13PoolAllocatorINS_10ReverseArcINS_6ArcTplINS_16LatticeWeightTplIfEEEEEEE2TNILi32EEEED2Ev
   914: 000000000016fdc0   391 FUNC    WEAK   DEFAULT   12 _ZN3fst16ImplToMutableFstINS_8internal13VectorFstImplINS_11VectorStateINS_10ReverseArcINS_6ArcTplINS_16LatticeWeightTplIfEEEEEESaIS9_EEEEENS_10MutableFstIS9_EEE15SetInputSymbolsEPKNS_11SymbolTableE
   915: 0000000000207fa0    40 OBJECT  WEAK   DEFAULT   14 _ZTSN3fst8internal15MemoryArenaImplILm16EEE
   916: 00000000001aea00   343 FUNC    WEAK   DEFAULT   12 _ZN3fst8internal12NGramFstImplINS_6ArcTplINS_17TropicalWeightTplIfEEEEED0Ev
   917: 00000000001ae170   603 FUNC    WEAK   DEFAULT   12 _ZN5kaldi30OnlineNnet2FeaturePipelineInfoD1Ev
   918: 00000000001d19e0    70 FUNC    WEAK   DEFAULT   12 _ZNK3fst17ComposeFstMatcherINS_17DefaultCacheStoreINS_6ArcTplINS_17TropicalWeightTplIfEEEEEENS_24AltSequenceComposeFilterINS_7MatcherINS_3FstIS5_EEEESB_EENS_24GenericComposeStateTableIS5_NS_18IntegerFilterStateIaEENS_24DefaultComposeStateTupleIiSF_EENS_21CompactHashStateTableISH_NS_11ComposeHashISH_EEEEEEE4DoneEv
   919: 00000000002041a0   146 OBJECT  WEAK   DEFAULT   14 _ZTSN3fst18ShortestFirstQueueIiNS_8internal18StateWeightCompareIiNS_11NaturalLessINS_23CompactLatticeWeightTplINS_16LatticeWeightTplIfEEiEEEEEELb0EEE
   920: 0000000000104730    10 FUNC    WEAK   DEFAULT   12 _ZNSt23_Sp_counted_ptr_inplaceIN3fst8internal14ComposeFstImplINS0_17DefaultCacheStoreINS0_6ArcTplINS0_17TropicalWeightTplIfEEEEEENS0_23PushLabelsComposeFilterINS0_24PushWeightsComposeFilterINS0_22LookAheadComposeFilterINS0_21SequenceComposeFilterINS0_16LookAheadMatcherINS0_3FstIS7_EEEESG_EESG_SG_LNS0_9MatchTypeE3EEESG_SG_LSI_3EEESG_SG_LSI_3EEENS0_24GenericComposeStateTableIS7_NS0_15PairFilterStateINSN_INS0_18IntegerFilterStateIaEENS0_17WeightFilterStateIS6_EEEENSO_IiEEEENS0_24DefaultComposeStateTupleIiSU_EENS0_21CompactHashStateTableISW_NS0_11ComposeHashISW_EEEEEEEESaIvELN9__gnu_cxx12_Lock_policyE2EE10_M_destroyEv
   921: 0000000000246cc8    24 OBJECT  WEAK   DEFAULT   21 _ZTIN3fst8internal18DeterminizeFsaImplINS_10ReverseArcINS_6ArcTplINS_17TropicalWeightTplIfEEEEEENS_20DefaultCommonDivisorIS5_EENS_24DefaultDeterminizeFilterIS7_EENS_28DefaultDeterminizeStateTableIS7_NS_18IntegerFilterStateIaEEEEEE
   922: 0000000000246c98    24 OBJECT  WEAK   DEFAULT   21 _ZTIN3fst9ImplToFstINS_8internal22DeterminizeFstImplBaseINS_10ReverseArcINS_6ArcTplINS_17TropicalWeightTplIfEEEEEEEENS_3FstIS8_EEEE
   923: 0000000000121090   187 FUNC    WEAK   DEFAULT   12 _ZN3fst10SccVisitorINS_10ReverseArcINS_6ArcTplINS_23CompactLatticeWeightTplINS_16LatticeWeightTplIfEEiEEEEEEED1Ev
   924: 00000000001000c0    37 FUNC    WEAK   DEFAULT   12 _ZN3fst13StateIteratorINS_9ArcMapFstINS_6ArcTplINS_17TropicalWeightTplIfEEEENS2_INS_16LatticeWeightTplIfEEEENS_18StdToLatticeMapperIfEEEEED1Ev
   925: 00000000001a84b0    10 FUNC    WEAK   DEFAULT   12 _ZNSt23_Sp_counted_ptr_inplaceIN3fst29MutableFastLogAccumulatorDataESaIvELN9__gnu_cxx12_Lock_policyE2EED0Ev
   926: 00000000001abc70  2064 FUNC    WEAK   DEFAULT   12 _ZN5kaldi20OnlineEndpointConfig8RegisterEPNS_10OptionsItfE
   927: 000000000020b100   299 OBJECT  WEAK   DEFAULT   14 _ZTSN3fst17ComposeFstMatcherINS_17DefaultCacheStoreINS_6ArcTplINS_17TropicalWeightTplIfEEEEEENS_20TrivialComposeFilterINS_7MatcherINS_3FstIS5_EEEESB_EENS_24GenericComposeStateTableIS5_NS_18TrivialFilterStateENS_24DefaultComposeStateTupleIiSE_EENS_21CompactHashStateTableISG_NS_11ComposeHashISG_EEEEEEEE
   928: 0000000000209280     1 OBJECT  <OS specific>: 10 DEFAULT   14 _ZZN3fst8DfsVisitINS_3FstINS_6ArcTplINS_17TropicalWeightTplIfEEEEEENS_10SccVisitorIS5_EENS_12AnyArcFilterIS5_EEEEvRKT_PT0_T1_bE9kDfsWhite
   929: 00000000001d2140    10 FUNC    WEAK   DEFAULT   12 _ZNSt23_Sp_counted_ptr_inplaceIN3fst8internal14ComposeFstImplINS0_17DefaultCacheStoreINS0_6ArcTplINS0_17TropicalWeightTplIfEEEEEENS0_24AltSequenceComposeFilterINS0_7MatcherINS0_3FstIS7_EEEESD_EENS0_24GenericComposeStateTableIS7_NS0_18IntegerFilterStateIaEENS0_24DefaultComposeStateTupleIiSH_EENS0_21CompactHashStateTableISJ_NS0_11ComposeHashISJ_EEEEEEEESaIvELN9__gnu_cxx12_Lock_policyE2EED0Ev
   930: 0000000000146520   250 FUNC    WEAK   DEFAULT   12 _ZN3fst8internal7FstImplINS_10ReverseArcINS_6ArcTplINS_23CompactLatticeWeightTplINS_16LatticeWeightTplIfEEiEEEEEEE15SetInputSymbolsEPKNS_11SymbolTableE
   931: 00000000001d6390  1046 FUNC    WEAK   DEFAULT   12 _ZN3fst18LabelsToByteStringIiEEbRKSt6vectorIT_SaIS2_EEPNSt7__cxx1112basic_stringIcSt11char_traitsIcESaIcEEE
   932: 0000000000135e80  2960 FUNC    WEAK   DEFAULT   12 _ZN3fst12ScaleLatticeINS_16LatticeWeightTplIfEEdEEvRKSt6vectorIS3_IT0_SaIS4_EESaIS6_EEPNS_10MutableFstINS_6ArcTplIT_EEEE
   933: 00000000001b1f60   435 FUNC    WEAK   DEFAULT   12 _ZNSt8_Rb_treeINSt7__cxx1112basic_stringIcSt11char_traitsIcESaIcEEESt4pairIKS5_N3fst16FstRegisterEntryINS8_6ArcTplINS8_17TropicalWeightTplIfEEEEEEESt10_Select1stISF_ESt4lessIS5_ESaISF_EE29_M_get_insert_hint_unique_posESt23_Rb_tree_const_iteratorISF_ERS7_
   934: 00000000001de7d0   345 FUNC    WEAK   DEFAULT   12 _ZN3fst20MemoryPoolCollection4PoolINS_13PoolAllocatorINS_10ReverseArcINS_6ArcTplINS_17TropicalWeightTplIfEEEEEEE2TNILi2EEEEEPNS_10MemoryPoolIT_EEv
   935: 00000000001415f0   146 FUNC    WEAK   DEFAULT   12 _ZN3fst8internal13ArcMapFstImplINS_6ArcTplINS_17TropicalWeightTplIfEEEES5_NS_28RemoveSomeInputSymbolsMapperIS5_iEEED0Ev
   936: 00000000001d2120    10 FUNC    WEAK   DEFAULT   12 _ZNSt23_Sp_counted_ptr_inplaceIN3fst8internal14ComposeFstImplINS0_17DefaultCacheStoreINS0_6ArcTplINS0_17TropicalWeightTplIfEEEEEENS0_20NoMatchComposeFilterINS0_7MatcherINS0_3FstIS7_EEEESD_EENS0_24GenericComposeStateTableIS7_NS0_18TrivialFilterStateENS0_24DefaultComposeStateTupleIiSG_EENS0_21CompactHashStateTableISI_NS0_11ComposeHashISI_EEEEEEEESaIvELN9__gnu_cxx12_Lock_policyE2EED0Ev
   937: 00000000001242c0   918 FUNC    WEAK   DEFAULT   12 _ZN3fst19LatticeDeterminizerINS_16LatticeWeightTplIfEEiED2Ev
   938: 00000000001a8300    94 FUNC    WEAK   DEFAULT   12 _ZNK3fst8ConstFstINS_6ArcTplINS_17TropicalWeightTplIfEEEEjE15InitArcIteratorEiPNS_15ArcIteratorDataIS4_EE
   939: 00000000001f4d40   868 FUNC    WEAK   DEFAULT   12 _ZN3fst8internal14ComposeFstImplINS_17DefaultCacheStoreINS_6ArcTplINS_17TropicalWeightTplIfEEEEEENS_18MatchComposeFilterINS_7MatcherINS_3FstIS6_EEEESC_EENS_24GenericComposeStateTableIS6_NS_18IntegerFilterStateIaEENS_24DefaultComposeStateTupleIiSG_EENS_21CompactHashStateTableISI_NS_11ComposeHashISI_EEEEEEE6ExpandEi
   940: 0000000000240b20    16 OBJECT  WEAK   DEFAULT   21 _ZTIN3fst11MatcherBaseINS_6ArcTplINS_17TropicalWeightTplIfEEEEEE
   941: 0000000000241028    16 OBJECT  WEAK   DEFAULT   21 _ZTIN3fst15ArcIteratorBaseINS_6ArcTplINS_23CompactLatticeWeightTplINS_16LatticeWeightTplIfEEiEEEEEE
   942: 0000000000199b30   272 FUNC    GLOBAL DEFAULT   12 _ZNK22LanguageModelEstimator26FindLmStateIndexForHistoryERKSt6vectorIiSaIiEE
   943: 00000000001e84e0   299 FUNC    WEAK   DEFAULT   12 _ZN3fst9VectorFstINS_10ReverseArcINS_6ArcTplINS_17TropicalWeightTplIfEEEEEENS_11VectorStateIS6_SaIS6_EEEE22InitMutableArcIteratorEiPNS_22MutableArcIteratorDataIS6_EE
   944: 000000000017d1e0   423 FUNC    WEAK   DEFAULT   12 _ZN3fst16ImplToMutableFstINS_8internal13VectorFstImplINS_11VectorStateINS_6ArcTplINS_17TropicalWeightTplIfEEEESaIS7_EEEEENS_10MutableFstIS7_EEE6AddArcEiRKS7_
   945: 00000000002466a8    24 OBJECT  WEAK   DEFAULT   21 _ZTIN3fst17ComposeFstMatcherINS_17DefaultCacheStoreINS_6ArcTplINS_17TropicalWeightTplIfEEEEEENS_18MatchComposeFilterINS_7MatcherINS_3FstIS5_EEEESB_EENS_24GenericComposeStateTableIS5_NS_18IntegerFilterStateIaEENS_24DefaultComposeStateTupleIiSF_EENS_21CompactHashStateTableISH_NS_11ComposeHashISH_EEEEEEEE
   946: 0000000000121280   588 FUNC    WEAK   DEFAULT   12 _ZNK3fst23CompactLatticeWeightTplINS_16LatticeWeightTplIfEEiE7ReverseEv
   947: 00000000001640b0  1184 FUNC    WEAK   DEFAULT   12 _ZN3fst16ImplToMutableFstINS_8internal13VectorFstImplINS_11VectorStateINS_6ArcTplINS_16LatticeWeightTplIfEEEESaIS7_EEEEENS_10MutableFstIS7_EEE12DeleteStatesERKSt6vectorIiSaIiEE
   948: 0000000000125c40   792 FUNC    WEAK   DEFAULT   12 _ZNSt6vectorIN5kaldi5nnet315IoSpecificationESaIS2_EE17_M_realloc_insertIJS2_EEEvN9__gnu_cxx17__normal_iteratorIPS2_S4_EEDpOT_
   949: 0000000000105ec0   167 FUNC    WEAK   DEFAULT   12 _ZN3fst31ComposeDeterministicOnDemandFstINS_6ArcTplINS_17TropicalWeightTplIfEEEEED2Ev
   950: 00000000001d15d0     6 FUNC    WEAK   DEFAULT   12 _ZNK3fst18MutableArcIteratorINS_9VectorFstINS_10ReverseArcINS_6ArcTplINS_17TropicalWeightTplIfEEEEEENS_11VectorStateIS7_SaIS7_EEEEEE5FlagsEv
   951: 0000000000244de0    40 OBJECT  WEAK   DEFAULT   21 _ZTVN3fst8internal15MemoryArenaImplILm80EEE
   952: 00000000001e1b20   201 FUNC    WEAK   DEFAULT   12 _ZNSt23_Sp_counted_ptr_inplaceIN3fst8internal14ComposeFstImplINS0_17DefaultCacheStoreINS0_6ArcTplINS0_17TropicalWeightTplIfEEEEEENS0_20NoMatchComposeFilterINS0_7MatcherINS0_3FstIS7_EEEESD_EENS0_24GenericComposeStateTableIS7_NS0_18TrivialFilterStateENS0_24DefaultComposeStateTupleIiSG_EENS0_21CompactHashStateTableISI_NS0_11ComposeHashISI_EEEEEEEESaIvELN9__gnu_cxx12_Lock_policyE2EE10_M_disposeEv
   953: 0000000000101a20    10 FUNC    WEAK   DEFAULT   12 _ZN3fst29ScaleDeterministicOnDemandFstD0Ev
   954: 0000000000118a70    80 FUNC    WEAK   DEFAULT   12 _ZN3fst13StateIteratorINS_3FstINS_6ArcTplINS_16LatticeWeightTplIfEEEEEEEC2ERKS6_
   955: 00000000001c3640  2252 FUNC    WEAK   DEFAULT   12 _ZN3fst8ConstFstINS_6ArcTplINS_17TropicalWeightTplIfEEEEjE8WriteFstIS5_EEbRKT_RSoRKNS_15FstWriteOptionsE
   956: 00000000001c9f40     3 FUNC    GLOBAL DEFAULT   12 vosk_batch_model_new
   957: 00000000001b3210   571 FUNC    WEAK   DEFAULT   12 _ZNK3fst15NGramFstMatcherINS_6ArcTplINS_17TropicalWeightTplIfEEEEE4CopyEb
   958: 0000000000101a50    10 FUNC    WEAK   DEFAULT   12 _ZNSt23_Sp_counted_ptr_inplaceIN3fst8internal13ArcMapFstImplINS0_6ArcTplINS0_17TropicalWeightTplIfEEEES6_NS0_28RemoveSomeInputSymbolsMapperIS6_iEEEESaIvELN9__gnu_cxx12_Lock_policyE2EED0Ev
   959: 0000000000100350     1 FUNC    WEAK   DEFAULT   12 _ZN3fst18MutableArcIteratorINS_9VectorFstINS_6ArcTplINS_23CompactLatticeWeightTplINS_16LatticeWeightTplIfEEiEEEENS_11VectorStateIS7_SaIS7_EEEEEE8SetFlagsEhh
   960: 0000000000243eb8    40 OBJECT  WEAK   DEFAULT   21 _ZTVN3fst8internal14MemoryPoolImplILm48EEE
   961: 0000000000194980   476 FUNC    WEAK   DEFAULT   12 _ZNK3fst8internal14ComposeFstImplINS_17DefaultCacheStoreINS_6ArcTplINS_16LatticeWeightTplIfEEEEEENS_21SequenceComposeFilterINS_7MatcherINS_3FstIS6_EEEESC_EENS_24GenericComposeStateTableIS6_NS_18IntegerFilterStateIaEENS_24DefaultComposeStateTupleIiSG_EENS_21CompactHashStateTableISI_NS_11ComposeHashISI_EEEEEEE4CopyEv
   962: 00000000001b3c20   135 FUNC    WEAK   DEFAULT   12 _ZNSt10_HashtableIiSt4pairIKiiESaIS2_ENSt8__detail10_Select1stESt8equal_toIiESt4hashIiENS4_18_Mod_range_hashingENS4_20_Default_ranged_hashENS4_20_Prime_rehash_policyENS4_17_Hashtable_traitsILb0ELb0ELb1EEEED2Ev
   963: 00000000001ae630    62 FUNC    WEAK   DEFAULT   12 _ZNSt15_Sp_counted_ptrIPN3fst9AddOnPairINS0_18LabelReachableDataIiEES3_EELN9__gnu_cxx12_Lock_policyE2EE10_M_disposeEv
   964: 0000000000137eb0  1156 FUNC    WEAK   DEFAULT   12 _ZN3fst22LookAheadComposeFilterINS_24AltSequenceComposeFilterINS_16LookAheadMatcherINS_3FstINS_6ArcTplINS_16LatticeWeightTplIfEEEEEEEES9_EES9_S9_LNS_9MatchTypeE3EEC1ERKS8_SE_PS9_SF_
   965: 0000000000241718    24 OBJECT  WEAK   DEFAULT   21 _ZTIN3fst10MemoryPoolINS_13PoolAllocatorINS_10CacheStateINS_6ArcTplINS_16LatticeWeightTplIfEEEENS1_IS6_EEEEE2TNILi1EEEEE
   966: 0000000000209278     4 OBJECT  <OS specific>: 10 DEFAULT   14 _ZN3fst18CompactHashBiTableIiNS_24DefaultComposeStateTupleIiNS_18IntegerFilterStateIaEEEENS_11ComposeHashIS4_EESt8equal_toIS4_ELNS_6HSTypeE3EE11kCurrentKeyE
   967: 00000000001d0ed0     1 FUNC    WEAK   DEFAULT   12 _ZNSt23_Sp_counted_ptr_inplaceIN3fst13StringPrinterINS0_6ArcTplINS0_17TropicalWeightTplIfEEEEEESaIvELN9__gnu_cxx12_Lock_policyE2EED1Ev
   968: 00000000000fdd20     1 FUNC    WEAK   DEFAULT   12 _ZNSt23_Sp_counted_ptr_inplaceIN3fst8internal14ComposeFstImplINS0_17DefaultCacheStoreINS0_6ArcTplINS0_16LatticeWeightTplIfEEEEEENS0_17NullComposeFilterINS0_7MatcherINS0_3FstIS7_EEEESD_EENS0_24GenericComposeStateTableIS7_NS0_18TrivialFilterStateENS0_24DefaultComposeStateTupleIiSG_EENS0_21CompactHashStateTableISI_NS0_11ComposeHashISI_EEEEEEEESaIvELN9__gnu_cxx12_Lock_policyE2EED2Ev
   969: 00000000000fdaf0     6 FUNC    WEAK   DEFAULT   12 _ZNK3fst8internal14MemoryPoolImplILm256EE4SizeEv
   970: 00000000001c85c0   426 FUNC    GLOBAL DEFAULT   12 _ZN8SpkModel5UnrefEv
   971: 000000000010df10    46 FUNC    WEAK   DEFAULT   12 _ZN3fst10ComposeFstINS_6ArcTplINS_17TropicalWeightTplIfEEEENS_17DefaultCacheStoreIS4_EEED0Ev
   972: 000000000013d310   201 FUNC    WEAK   DEFAULT   12 _ZNSt23_Sp_counted_ptr_inplaceIN3fst8internal14ComposeFstImplINS0_17DefaultCacheStoreINS0_6ArcTplINS0_16LatticeWeightTplIfEEEEEENS0_18MatchComposeFilterINS0_7MatcherINS0_3FstIS7_EEEESD_EENS0_24GenericComposeStateTableIS7_NS0_18IntegerFilterStateIaEENS0_24DefaultComposeStateTupleIiSH_EENS0_21CompactHashStateTableISJ_NS0_11ComposeHashISJ_EEEEEEEESaIvELN9__gnu_cxx12_Lock_policyE2EE10_M_disposeEv
   973: 0000000000208980    40 OBJECT  WEAK   DEFAULT   14 _ZTSN3fst8internal14MemoryPoolImplILm320EEE
   974: 0000000000100c60     6 FUNC    WEAK   DEFAULT   12 _ZNK3fst17ComposeFstMatcherINS_17DefaultCacheStoreINS_6ArcTplINS_16LatticeWeightTplIfEEEEEENS_24AltSequenceComposeFilterINS_7MatcherINS_3FstIS5_EEEESB_EENS_24GenericComposeStateTableIS5_NS_18IntegerFilterStateIaEENS_24DefaultComposeStateTupleIiSF_EENS_21CompactHashStateTableISH_NS_11ComposeHashISH_EEEEEEE10PropertiesEm
   975: 0000000000204300   114 OBJECT  WEAK   DEFAULT   14 _ZTSN3fst18ShortestFirstQueueIiNS_8internal18StateWeightCompareIiNS_11NaturalLessINS_16LatticeWeightTplIfEEEEEELb0EEE
   976: 0000000000199e80   108 FUNC    GLOBAL DEFAULT   12 _ZN22LanguageModelEstimator7LmState3AddERKS0_
   977: 000000000017b550   258 FUNC    WEAK   DEFAULT   12 _ZN3fst16ImplToMutableFstINS_8internal13VectorFstImplINS_11VectorStateINS_6ArcTplINS_23CompactLatticeWeightTplINS_16LatticeWeightTplIfEEiEEEESaIS9_EEEEENS_10MutableFstIS9_EEE8SetStartEi
   978: 0000000000246a90   104 OBJECT  WEAK   DEFAULT   21 _ZTVN3fst18MutableArcIteratorINS_9VectorFstINS_10ReverseArcINS_6ArcTplINS_17TropicalWeightTplIfEEEEEENS_11VectorStateIS7_SaIS7_EEEEEEE
   979: 00000000001394a0   469 FUNC    WEAK   DEFAULT   12 _ZNSt7__cxx1110_List_baseIiN3fst13PoolAllocatorIiEEED1Ev
   980: 0000000000201420   121 OBJECT  WEAK   DEFAULT   14 _ZTSN3fst22MutableArcIteratorBaseINS_10ReverseArcINS_6ArcTplINS_23CompactLatticeWeightTplINS_16LatticeWeightTplIfEEiEEEEEEEE
   981: 0000000000245390    40 OBJECT  WEAK   DEFAULT   21 _ZTVN3fst8internal14MemoryPoolImplILm160EEE
   982: 000000000024b0e8     8 OBJECT  <OS specific>: 10 DEFAULT   25 _ZZN3fst17TropicalWeightTplIfE4TypeB5cxx11EvE4type
   983: 000000000020cd80   376 OBJECT  WEAK   DEFAULT   14 _ZTSSt23_Sp_counted_ptr_inplaceIN3fst8internal14ComposeFstImplINS0_17DefaultCacheStoreINS0_6ArcTplINS0_17TropicalWeightTplIfEEEEEENS0_17NullComposeFilterINS0_7MatcherINS0_3FstIS7_EEEESD_EENS0_24GenericComposeStateTableIS7_NS0_18TrivialFilterStateENS0_24DefaultComposeStateTupleIiSG_EENS0_21CompactHashStateTableISI_NS0_11ComposeHashISI_EEEEEEEESaIvELN9__gnu_cxx12_Lock_policyE2EE
   984: 00000000001a2860   144 FUNC    GLOBAL DEFAULT   12 _ZN5Model8FindWordEPKc
   985: 000000000012c250   333 FUNC    WEAK   DEFAULT   12 _ZNSt10_HashtableIPKN3fst23LatticeStringRepositoryIiE5EntryES5_SaIS5_ENSt8__detail9_IdentityENS2_10EntryEqualENS2_8EntryKeyENS7_18_Mod_range_hashingENS7_20_Default_ranged_hashENS7_20_Prime_rehash_policyENS7_17_Hashtable_traitsILb1ELb1ELb1EEEE9_M_rehashEmRKm
   986: 0000000000240070    24 OBJECT  WEAK   DEFAULT   21 _ZTIN3fst18MutableArcIteratorINS_9VectorFstINS_6ArcTplINS_16LatticeWeightTplIfEEEENS_11VectorStateIS5_SaIS5_EEEEEEE
   987: 00000000000e4910    29 FUNC    GLOBAL DEFAULT   12 _ZN10Recognizer11StoreReturnERKNSt7__cxx1112basic_stringIcSt11char_traitsIcESaIcEEE
   988: 0000000000127540   133 FUNC    WEAK   DEFAULT   12 _ZN3fst13StateIteratorINS_3FstINS_10ReverseArcINS_6ArcTplINS_23CompactLatticeWeightTplINS_16LatticeWeightTplIfEEiEEEEEEEEEC2ERKSA_
   989: 00000000000fefd0    24 FUNC    WEAK   DEFAULT   12 _ZNK3fst9ImplToFstINS_8internal13VectorFstImplINS_11VectorStateINS_6ArcTplINS_23CompactLatticeWeightTplINS_16LatticeWeightTplIfEEiEEEESaIS9_EEEEENS_10MutableFstIS9_EEE16NumInputEpsilonsEi
   990: 0000000000240b60    16 OBJECT  WEAK   DEFAULT   21 _ZTIN3fst24DeterministicOnDemandFstINS_6ArcTplINS_17TropicalWeightTplIfEEEEEE
   991: 00000000001162e0    39 FUNC    WEAK   DEFAULT   12 _ZNSt6vectorIN3fst19LatticeDeterminizerINS0_16LatticeWeightTplIfEEiE7TempArcESaIS5_EED1Ev
   992: 0000000000209271     1 OBJECT  <OS specific>: 10 DEFAULT   14 _ZZN3fst8DfsVisitINS_3FstINS_6ArcTplINS_23CompactLatticeWeightTplINS_16LatticeWeightTplIfEEiEEEEEENS_15TopOrderVisitorIS7_EENS_16EpsilonArcFilterIS7_EEEEvRKT_PT0_T1_bE9kDfsWhite
   993: 000000000014b0e0   159 FUNC    WEAK   DEFAULT   12 _ZNSt10unique_ptrISt13unordered_setIiSt4hashIiESt8equal_toIiESaIiEESt14default_deleteIS6_EED2Ev
   994: 00000000001a7e90     1 FUNC    WEAK   DEFAULT   12 _ZNSt23_Sp_counted_ptr_inplaceIN3fst8internal12NGramFstImplINS0_6ArcTplINS0_17TropicalWeightTplIfEEEEEESaIvELN9__gnu_cxx12_Lock_policyE2EED1Ev
   995: 00000000001e0080   771 FUNC    WEAK   DEFAULT   12 _ZN3fst8internal13CacheBaseImplINS_10CacheStateINS_10ReverseArcINS_6ArcTplINS_17TropicalWeightTplIfEEEEEENS_13PoolAllocatorIS8_EEEENS_17DefaultCacheStoreIS8_EEED0Ev
   996: 00000000001f68d0   604 FUNC    WEAK   DEFAULT   12 _ZN3fst8internal14ComposeFstImplINS_17DefaultCacheStoreINS_6ArcTplINS_17TropicalWeightTplIfEEEEEENS_17NullComposeFilterINS_7MatcherINS_3FstIS6_EEEESC_EENS_24GenericComposeStateTableIS6_NS_18TrivialFilterStateENS_24DefaultComposeStateTupleIiSF_EENS_21CompactHashStateTableISH_NS_11ComposeHashISH_EEEEEEE6ExpandEi
   997: 0000000000170270  8986 FUNC    WEAK   DEFAULT   12 _ZN3fst12ShortestPathINS_6ArcTplINS_16LatticeWeightTplIfEEEENS_9AutoQueueIiEENS_12AnyArcFilterIS4_EELPv0EEEvRKNS_3FstIT_EEPNS_10MutableFstISB_EEPSt6vectorINSB_6WeightESaISJ_EERKNS_19ShortestPathOptionsISB_T0_T1_EE
   998: 0000000000182320  2111 FUNC    WEAK   DEFAULT   12 _ZN3fst12GCCacheStoreINS_15FirstCacheStoreINS_16VectorCacheStoreINS_10CacheStateINS_10ReverseArcINS_6ArcTplINS_16LatticeWeightTplIfEEEEEENS_13PoolAllocatorIS9_EEEEEEEEE2GCEPKSC_bf
   999: 0000000000240d78    24 OBJECT  WEAK   DEFAULT   21 _ZTIN3fst10MutableFstINS_6ArcTplINS_16LatticeWeightTplIfEEEEEE
  1000: 0000000000245520    40 OBJECT  WEAK   DEFAULT   21 _ZTVN3fst10MemoryPoolINS_13PoolAllocatorINS_6ArcTplINS_16LatticeWeightTplIfEEEEE2TNILi64EEEEE
  1001: 0000000000161880   787 FUNC    WEAK   DEFAULT   12 _ZNK3fst24PushWeightsComposeFilterINS_22LookAheadComposeFilterINS_24AltSequenceComposeFilterINS_16LookAheadMatcherINS_3FstINS_6ArcTplINS_17TropicalWeightTplIfEEEEEEEESA_EESA_SA_LNS_9MatchTypeE3EEESA_SA_LSC_3EE9FilterArcEPS8_SF_
  1002: 00000000000fdbc0     1 FUNC    WEAK   DEFAULT   12 _ZNSt23_Sp_counted_ptr_inplaceIN3fst20MemoryPoolCollectionESaIvELN9__gnu_cxx12_Lock_policyE2EED1Ev
  1003: 0000000000101a70    10 FUNC    WEAK   DEFAULT   12 _ZNSt23_Sp_counted_ptr_inplaceIN3fst8internal13VectorFstImplINS0_11VectorStateINS0_6ArcTplINS0_16LatticeWeightTplIfEEEESaIS7_EEEEESaIvELN9__gnu_cxx12_Lock_policyE2EED0Ev
  1004: 0000000000116250   135 FUNC    WEAK   DEFAULT   12 _ZNSt10_HashtableIPKSt6vectorIN3fst19LatticeDeterminizerINS1_16LatticeWeightTplIfEEiE7ElementESaIS6_EESt4pairIKSA_S6_ESaISD_ENSt8__detail10_Select1stENS5_11SubsetEqualENS5_9SubsetKeyENSF_18_Mod_range_hashingENSF_20_Default_ranged_hashENSF_20_Prime_rehash_policyENSF_17_Hashtable_traitsILb1ELb0ELb1EEEED1Ev
  1005: 0000000000245a20    16 OBJECT  WEAK   DEFAULT   21 _ZTIN3fst15GenericRegisterINSt7__cxx1112basic_stringIcSt11char_traitsIcESaIcEEENS_16FstRegisterEntryINS_6ArcTplINS_17TropicalWeightTplIfEEEEEENS_11FstRegisterISB_EEEE
  1006: 000000000016f440  1416 FUNC    WEAK   DEFAULT   12 _ZN3fst8internal13VectorFstImplINS_11VectorStateINS_10ReverseArcINS_6ArcTplINS_16LatticeWeightTplIfEEEEEESaIS8_EEEEC2ERKNS_3FstIS8_EE
  1007: 0000000000204fc0    94 OBJECT  WEAK   DEFAULT   14 _ZTSN3fst10MemoryPoolINS_8internal8DfsStateINS_3FstINS_6ArcTplINS_17TropicalWeightTplIfEEEEEEEEEE
  1008: 0000000000209284     1 OBJECT  <OS specific>: 10 DEFAULT   14 _ZZN3fst8DfsVisitINS_3FstINS_6ArcTplINS_23CompactLatticeWeightTplINS_16LatticeWeightTplIfEEiEEEEEENS_10SccVisitorIS7_EENS_16EpsilonArcFilterIS7_EEEEvRKT_PT0_T1_bE9kDfsWhite
  1009: 0000000000203720   143 OBJECT  WEAK   DEFAULT   14 _ZTSN3fst17ImplToExpandedFstINS_8internal13VectorFstImplINS_11VectorStateINS_6ArcTplINS_16LatticeWeightTplIfEEEESaIS7_EEEEENS_10MutableFstIS7_EEEE
  1010: 0000000000241808    24 OBJECT  WEAK   DEFAULT   21 _ZTIN3fst8internal15MemoryArenaImplILm40EEE
  1011: 0000000000101b20    10 FUNC    WEAK   DEFAULT   12 _ZNSt23_Sp_counted_ptr_inplaceIN3fst8internal14ComposeFstImplINS0_17DefaultCacheStoreINS0_6ArcTplINS0_17TropicalWeightTplIfEEEEEENS0_21SequenceComposeFilterINS0_7MatcherINS0_3FstIS7_EEEESD_EENS0_24GenericComposeStateTableIS7_NS0_18IntegerFilterStateIaEENS0_24DefaultComposeStateTupleIiSH_EENS0_21CompactHashStateTableISJ_NS0_11ComposeHashISJ_EEEEEEEESaIvELN9__gnu_cxx12_Lock_policyE2EED0Ev
  1012: 0000000000244d70    56 OBJECT  WEAK   DEFAULT   21 _ZTVSt23_Sp_counted_ptr_inplaceIN3fst8internal14ComposeFstImplINS0_17DefaultCacheStoreINS0_6ArcTplINS0_16LatticeWeightTplIfEEEEEENS0_22LookAheadComposeFilterINS0_21SequenceComposeFilterINS0_16LookAheadMatcherINS0_3FstIS7_EEEESE_EESE_SE_LNS0_9MatchTypeE3EEENS0_24GenericComposeStateTableIS7_NS0_18IntegerFilterStateIaEENS0_24DefaultComposeStateTupleIiSK_EENS0_21CompactHashStateTableISM_NS0_11ComposeHashISM_EEEEEEEESaIvELN9__gnu_cxx12_Lock_policyE2EE
  1013: 0000000000247b18    40 OBJECT  WEAK   DEFAULT   21 _ZTVN3fst10MemoryPoolINS_13PoolAllocatorINS_10ReverseArcINS_6ArcTplINS_17TropicalWeightTplIfEEEEEEE2TNILi1EEEEE
  1014: 00000000001d4a10   161 FUNC    WEAK   DEFAULT   12 _ZN3fst17ComposeFstMatcherINS_17DefaultCacheStoreINS_6ArcTplINS_17TropicalWeightTplIfEEEEEENS_20TrivialComposeFilterINS_7MatcherINS_3FstIS5_EEEESB_EENS_24GenericComposeStateTableIS5_NS_18TrivialFilterStateENS_24DefaultComposeStateTupleIiSE_EENS_21CompactHashStateTableISG_NS_11ComposeHashISG_EEEEEEED0Ev
  1015: 0000000000242918    48 OBJECT  WEAK   DEFAULT   21 _ZTVN3fst8internal13VectorFstImplINS_11VectorStateINS_6ArcTplINS_16LatticeWeightTplIfEEEESaIS6_EEEEE
  1016: 000000000011c450    73 FUNC    WEAK   DEFAULT   12 _ZNSt6vectorIhSaIhEE6resizeEmRKh
  1017: 00000000001d0d90   148 FUNC    WEAK   DEFAULT   12 _ZN3fst8internal14ComposeFstImplINS_17DefaultCacheStoreINS_6ArcTplINS_17TropicalWeightTplIfEEEEEENS_20NoMatchComposeFilterINS_7MatcherINS_3FstIS6_EEEESC_EENS_24GenericComposeStateTableIS6_NS_18TrivialFilterStateENS_24DefaultComposeStateTupleIiSF_EENS_21CompactHashStateTableISH_NS_11ComposeHashISH_EEEEEEE12ComputeFinalEi
  1018: 00000000000fea20    16 FUNC    WEAK   DEFAULT   12 _ZNK3fst13TopOrderQueueIiE4HeadEv
  1019: 000000000024b068     8 OBJECT  <OS specific>: 10 DEFAULT   25 _ZGVZN3fst10ReverseArcINS_6ArcTplINS_23CompactLatticeWeightTplINS_16LatticeWeightTplIfEEiEEEEE4TypeB5cxx11EvE4type
  1020: 00000000002085c0    92 OBJECT  WEAK   DEFAULT   14 _ZTSSt23_Sp_counted_ptr_inplaceIN3fst20MemoryPoolCollectionESaIvELN9__gnu_cxx12_Lock_policyE2EE
  1021: 000000000013fdb0   381 FUNC    WEAK   DEFAULT   12 _ZN3fst20MemoryPoolCollection4PoolINS_13PoolAllocatorINS_6ArcTplINS_17TropicalWeightTplIfEEEEE2TNILi16EEEEEPNS_10MemoryPoolIT_EEv
  1022: 000000000011a410   351 FUNC    WEAK   DEFAULT   12 _ZN3fst18LookAheadMatchTypeINS_16LookAheadMatcherINS_3FstINS_6ArcTplINS_17TropicalWeightTplIfEEEEEEEES8_EENS_9MatchTypeERKT_RKT0_
  1023: 0000000000245688    40 OBJECT  WEAK   DEFAULT   21 _ZTVN3fst10MemoryPoolINS_13PoolAllocatorINS_6ArcTplINS_17TropicalWeightTplIfEEEEE2TNILi64EEEEE
  1024: 0000000000241e68   312 OBJECT  WEAK   DEFAULT   21 _ZTVN3fst9ImplToFstINS_8internal13VectorFstImplINS_11VectorStateINS_6ArcTplINS_17TropicalWeightTplIfEEEESaIS7_EEEEENS_10MutableFstIS7_EEEE
  1025: 00000000002050e0    82 OBJECT  WEAK   DEFAULT   14 _ZTSN3fst15ArcIteratorBaseINS_10ReverseArcINS_6ArcTplINS_16LatticeWeightTplIfEEEEEEEE
  1026: 000000000011ae30    67 FUNC    WEAK   DEFAULT   12 _ZN3fst10MemoryPoolINS_13PoolAllocatorINS_6ArcTplINS_16LatticeWeightTplIfEEEEE2TNILi1EEEED0Ev
  1027: 0000000000107d80   297 FUNC    WEAK   DEFAULT   12 _ZNK3fst10ComposeFstINS_6ArcTplINS_16LatticeWeightTplIfEEEENS_17DefaultCacheStoreIS4_EEE15InitArcIteratorEiPNS_15ArcIteratorDataIS4_EE
  1028: 0000000000192d60   211 FUNC    WEAK   DEFAULT   12 _ZNK3fst9ImplToFstINS_8internal13ArcMapFstImplINS_6ArcTplINS_17TropicalWeightTplIfEEEENS3_INS_16LatticeWeightTplIfEEEENS_18StdToLatticeMapperIfEEEENS_3FstIS9_EEE17NumOutputEpsilonsEi
  1029: 0000000000201120   365 OBJECT  WEAK   DEFAULT   14 _ZTSN3fst17ComposeFstMatcherINS_17DefaultCacheStoreINS_6ArcTplINS_16LatticeWeightTplIfEEEEEENS_22LookAheadComposeFilterINS_21SequenceComposeFilterINS_16LookAheadMatcherINS_3FstIS5_EEEESC_EESC_SC_LNS_9MatchTypeE3EEENS_24GenericComposeStateTableIS5_NS_18IntegerFilterStateIaEENS_24DefaultComposeStateTupleIiSI_EENS_21CompactHashStateTableISK_NS_11ComposeHashISK_EEEEEEEE
  1030: 000000000020bd00    79 OBJECT  WEAK   DEFAULT   14 _ZTSN3fst11ExpandedFstINS_10ReverseArcINS_6ArcTplINS_17TropicalWeightTplIfEEEEEEEE
  1031: 000000000017e930   281 FUNC    WEAK   DEFAULT   12 _ZNSt10_HashtableIiiN3fst13PoolAllocatorIiEENSt8__detail9_IdentityENS0_18CompactHashBiTableIiNS0_24DefaultComposeStateTupleIiNS0_18TrivialFilterStateEEENS0_11ComposeHashIS8_EESt8equal_toIS8_ELNS0_6HSTypeE3EE9HashEqualENSE_8HashFuncENS3_18_Mod_range_hashingENS3_20_Default_ranged_hashENS3_20_Prime_rehash_policyENS3_17_Hashtable_traitsILb1ELb1ELb1EEEE9_M_rehashEmRKm
  1032: 0000000000240ce0    24 OBJECT  WEAK   DEFAULT   21 _ZTIN3fst16ImplToMutableFstINS_8internal13VectorFstImplINS_11VectorStateINS_6ArcTplINS_23CompactLatticeWeightTplINS_16LatticeWeightTplIfEEiEEEESaIS9_EEEEENS_10MutableFstIS9_EEEE
  1033: 00000000002454a8    40 OBJECT  WEAK   DEFAULT   21 _ZTVN3fst10MemoryPoolINS_13PoolAllocatorINS_6ArcTplINS_16LatticeWeightTplIfEEEEE2TNILi32EEEEE
  1034: 00000000002412b8    16 OBJECT  WEAK   DEFAULT   21 _ZTIN3fst17StateIteratorBaseINS_6ArcTplINS_17TropicalWeightTplIfEEEEEE
  1035: 0000000000109730   171 FUNC    WEAK   DEFAULT   12 _ZN3fst9AutoQueueIiED1Ev
  1036: 0000000000208280    39 OBJECT  WEAK   DEFAULT   14 _ZTSN3fst8internal14MemoryPoolImplILm64EEE
  1037: 0000000000109550   108 FUNC    WEAK   DEFAULT   12 _ZN3fst9LifoQueueIiED0Ev
  1038: 0000000000100460    54 FUNC    WEAK   DEFAULT   12 _ZNK3fst13StateIteratorINS_9ArcMapFstINS_6ArcTplINS_17TropicalWeightTplIfEEEENS2_INS_16LatticeWeightTplIfEEEENS_18StdToLatticeMapperIfEEEEE4DoneEv
  1039: 000000000010b040   117 FUNC    WEAK   DEFAULT   12 _ZN3fst10MemoryPoolINS_13PoolAllocatorINS_10ReverseArcINS_6ArcTplINS_16LatticeWeightTplIfEEEEEEE2TNILi8EEEED1Ev
  1040: 00000000001d4d40    37 FUNC    WEAK   DEFAULT   12 _ZN3fst9VectorFstINS_10ReverseArcINS_6ArcTplINS_17TropicalWeightTplIfEEEEEENS_11VectorStateIS6_SaIS6_EEEED2Ev
  1041: 0000000000104700    10 FUNC    WEAK   DEFAULT   12 _ZNSt23_Sp_counted_ptr_inplaceIN3fst8internal13VectorFstImplINS0_11VectorStateINS0_10ReverseArcINS0_6ArcTplINS0_23CompactLatticeWeightTplINS0_16LatticeWeightTplIfEEiEEEEEESaISB_EEEEESaIvELN9__gnu_cxx12_Lock_policyE2EE10_M_destroyEv
  1042: 00000000000fdf20    11 FUNC    WEAK   DEFAULT   12 _ZNK3fst9ImplToFstINS_8internal13VectorFstImplINS_11VectorStateINS_10ReverseArcINS_6ArcTplINS_23CompactLatticeWeightTplINS_16LatticeWeightTplIfEEiEEEEEESaISB_EEEEENS_10MutableFstISB_EEE4TypeB5cxx11Ev
  1043: 0000000000135450   166 FUNC    WEAK   DEFAULT   12 _ZN3fst16ImplToMutableFstINS_8internal13VectorFstImplINS_11VectorStateINS_6ArcTplINS_16LatticeWeightTplIfEEEESaIS7_EEEEENS_10MutableFstIS7_EEE16SetOutputSymbolsEPKNS_11SymbolTableE
  1044: 0000000000104660    10 FUNC    WEAK   DEFAULT   12 _ZNSt23_Sp_counted_ptr_inplaceIN3fst8internal14ComposeFstImplINS0_17DefaultCacheStoreINS0_6ArcTplINS0_17TropicalWeightTplIfEEEEEENS0_21SequenceComposeFilterINS0_7MatcherINS0_3FstIS7_EEEESD_EENS0_24GenericComposeStateTableIS7_NS0_18IntegerFilterStateIaEENS0_24DefaultComposeStateTupleIiSH_EENS0_21CompactHashStateTableISJ_NS0_11ComposeHashISJ_EEEEEEEESaIvELN9__gnu_cxx12_Lock_policyE2EE10_M_destroyEv
  1045: 00000000001d2050    70 FUNC    WEAK   DEFAULT   12 _ZNK3fst17ComposeFstMatcherINS_17DefaultCacheStoreINS_6ArcTplINS_17TropicalWeightTplIfEEEEEENS_20TrivialComposeFilterINS_7MatcherINS_3FstIS5_EEEESB_EENS_24GenericComposeStateTableIS5_NS_18TrivialFilterStateENS_24DefaultComposeStateTupleIiSE_EENS_21CompactHashStateTableISG_NS_11ComposeHashISG_EEEEEEE4DoneEv
  1046: 00000000001410a0   245 FUNC    WEAK   DEFAULT   12 _ZN3fst8internal14ComposeFstImplINS_17DefaultCacheStoreINS_6ArcTplINS_17TropicalWeightTplIfEEEEEENS_21SequenceComposeFilterINS_7MatcherINS_3FstIS6_EEEESC_EENS_24GenericComposeStateTableIS6_NS_18IntegerFilterStateIaEENS_24DefaultComposeStateTupleIiSG_EENS_21CompactHashStateTableISI_NS_11ComposeHashISI_EEEEEEED1Ev
  1047: 00000000001209b0   326 FUNC    WEAK   DEFAULT   12 _ZNSt11_Deque_baseIPN3fst8internal8DfsStateINS0_3FstINS0_6ArcTplINS0_23CompactLatticeWeightTplINS0_16LatticeWeightTplIfEEiEEEEEEEESaISC_EE17_M_initialize_mapEm
  1048: 0000000000100570     7 FUNC    WEAK   DEFAULT   12 _ZNK3fst18MutableArcIteratorINS_9VectorFstINS_10ReverseArcINS_6ArcTplINS_16LatticeWeightTplIfEEEEEENS_11VectorStateIS7_SaIS7_EEEEEE8PositionEv
  1049: 0000000000101a90    10 FUNC    WEAK   DEFAULT   12 _ZNSt15_Sp_counted_ptrIPN3fst8internal18ComposeFstImplBaseINS0_6ArcTplINS0_16LatticeWeightTplIfEEEENS0_17DefaultCacheStoreIS6_EENS0_10ComposeFstIS6_S8_EEEELN9__gnu_cxx12_Lock_policyE2EE10_M_destroyEv
  1050: 0000000000184200   468 FUNC    WEAK   DEFAULT   12 _ZN3fst12GCCacheStoreINS_15FirstCacheStoreINS_16VectorCacheStoreINS_10CacheStateINS_6ArcTplINS_16LatticeWeightTplIfEEEENS_13PoolAllocatorIS7_EEEEEEEEE15GetMutableStateEi
  1051: 000000000013a4f0   534 FUNC    WEAK   DEFAULT   12 _ZNSt10_HashtableIiiN3fst13PoolAllocatorIiEENSt8__detail9_IdentityENS0_18CompactHashBiTableIiNS0_24DefaultComposeStateTupleIiNS0_18IntegerFilterStateIaEEEENS0_11ComposeHashIS9_EESt8equal_toIS9_ELNS0_6HSTypeE3EE9HashEqualENSF_8HashFuncENS3_18_Mod_range_hashingENS3_20_Default_ranged_hashENS3_20_Prime_rehash_policyENS3_17_Hashtable_traitsILb1ELb1ELb1EEEED1Ev
  1052: 0000000000100040    16 FUNC    WEAK   DEFAULT   12 _ZNSt23_Sp_counted_ptr_inplaceIN3fst8internal13VectorFstImplINS0_11VectorStateINS0_6ArcTplINS0_17TropicalWeightTplIfEEEESaIS7_EEEEESaIvELN9__gnu_cxx12_Lock_policyE2EE10_M_disposeEv
  1053: 00000000001a84f0    10 FUNC    WEAK   DEFAULT   12 _ZNSt15_Sp_counted_ptrIPN3fst8internal12ConstFstImplINS0_6ArcTplINS0_17TropicalWeightTplIfEEEEjEELN9__gnu_cxx12_Lock_policyE2EE10_M_destroyEv
  1054: 00000000001dbbe0   992 FUNC    WEAK   DEFAULT   12 _ZN3fst17ImplToExpandedFstINS_8internal13VectorFstImplINS_11VectorStateINS_6ArcTplINS_17TropicalWeightTplIfEEEESaIS7_EEEEENS_10MutableFstIS7_EEE4ReadERKNSt7__cxx1112basic_stringIcSt11char_traitsIcESaIcEEE
  1055: 0000000000245660    40 OBJECT  WEAK   DEFAULT   21 _ZTVN3fst10MemoryPoolINS_13PoolAllocatorINS_6ArcTplINS_17TropicalWeightTplIfEEEEE2TNILi32EEEEE
  1056: 000000000010b5c0   117 FUNC    WEAK   DEFAULT   12 _ZN3fst10MemoryPoolINS_13PoolAllocatorINS_10ReverseArcINS_6ArcTplINS_16LatticeWeightTplIfEEEEEEE2TNILi2EEEED2Ev
  1057: 000000000010acc0   117 FUNC    WEAK   DEFAULT   12 _ZN3fst8internal14MemoryPoolImplILm16EED2Ev
  1058: 0000000000124660   333 FUNC    WEAK   DEFAULT   12 _ZNSt10_HashtableIPKSt6vectorIN3fst19LatticeDeterminizerINS1_16LatticeWeightTplIfEEiE7ElementESaIS6_EESt4pairIKSA_iESaISD_ENSt8__detail10_Select1stENS5_11SubsetEqualENS5_9SubsetKeyENSF_18_Mod_range_hashingENSF_20_Default_ranged_hashENSF_20_Prime_rehash_policyENSF_17_Hashtable_traitsILb1ELb0ELb1EEEE9_M_rehashEmRKm
  1059: 0000000000241ad8    24 OBJECT  WEAK   DEFAULT   21 _ZTIN3fst8internal14MemoryPoolImplILm640EEE
  1060: 00000000002416b8    24 OBJECT  WEAK   DEFAULT   21 _ZTISt23_Sp_counted_ptr_inplaceIN3fst8internal14ComposeFstImplINS0_17DefaultCacheStoreINS0_6ArcTplINS0_16LatticeWeightTplIfEEEEEENS0_22LookAheadComposeFilterINS0_21SequenceComposeFilterINS0_16LookAheadMatcherINS0_3FstIS7_EEEESE_EESE_SE_LNS0_9MatchTypeE3EEENS0_24GenericComposeStateTableIS7_NS0_18IntegerFilterStateIaEENS0_24DefaultComposeStateTupleIiSK_EENS0_21CompactHashStateTableISM_NS0_11ComposeHashISM_EEEEEEEESaIvELN9__gnu_cxx12_Lock_policyE2EE
  1061: 0000000000202720   184 OBJECT  WEAK   DEFAULT   14 _ZTSSt15_Sp_counted_ptrIPN3fst8internal18ComposeFstImplBaseINS0_6ArcTplINS0_17TropicalWeightTplIfEEEENS0_17DefaultCacheStoreIS6_EENS0_10ComposeFstIS6_S8_EEEELN9__gnu_cxx12_Lock_policyE2EE
  1062: 00000000002453b8    40 OBJECT  WEAK   DEFAULT   21 _ZTVN3fst10MemoryPoolINS_13PoolAllocatorINS_6ArcTplINS_16LatticeWeightTplIfEEEEE2TNILi8EEEEE
  1063: 0000000000125530   389 FUNC    WEAK   DEFAULT   12 _ZNSt6vectorIPKN3fst23LatticeStringRepositoryIiE5EntryESaIS5_EE17_M_realloc_insertIJRKS5_EEEvN9__gnu_cxx17__normal_iteratorIPS5_S7_EEDpOT_
  1064: 0000000000101bc0    10 FUNC    WEAK   DEFAULT   12 _ZNSt15_Sp_counted_ptrIPN3fst8internal18ComposeFstImplBaseINS0_6ArcTplINS0_17TropicalWeightTplIfEEEENS0_17DefaultCacheStoreIS6_EENS0_10ComposeFstIS6_S8_EEEELN9__gnu_cxx12_Lock_policyE2EE10_M_destroyEv
  1065: 00000000002035c0    51 OBJECT  WEAK   DEFAULT   14 _ZTSN3fst3FstINS_6ArcTplINS_16LatticeWeightTplIfEEEEEE
  1066: 0000000000244f70    40 OBJECT  WEAK   DEFAULT   21 _ZTVN3fst8internal14MemoryPoolImplILm16EEE
  1067: 00000000000fe6e0    11 FUNC    WEAK   DEFAULT   12 _ZNK3fst9ImplToFstINS_8internal13VectorFstImplINS_11VectorStateINS_10ReverseArcINS_6ArcTplINS_16LatticeWeightTplIfEEEEEESaIS9_EEEEENS_10MutableFstIS9_EEE12InputSymbolsEv
  1068: 000000000010b2c0   117 FUNC    WEAK   DEFAULT   12 _ZN3fst10MemoryPoolINS_13PoolAllocatorINS_6ArcTplINS_16LatticeWeightTplIfEEEEE2TNILi16EEEED2Ev
  1069: 00000000001c2040  1135 FUNC    WEAK   DEFAULT   12 _ZN3fst11make_uniqueINS_14LabelReachableINS_6ArcTplINS_17TropicalWeightTplIfEEEENS_18FastLogAccumulatorIS5_EENS_18LabelReachableDataIiEEEEJRKNS_8ConstFstIS5_jEERKbRPS7_jEEESt10unique_ptrIT_St14default_deleteISK_EEDpOT0_
  1070: 0000000000241010    24 OBJECT  WEAK   DEFAULT   21 _ZTIN3fst8SccQueueIiNS_9QueueBaseIiEEEE
  1071: 0000000000133a60   119 FUNC    WEAK   DEFAULT   12 _ZN3fst17ComposeFstMatcherINS_17DefaultCacheStoreINS_6ArcTplINS_16LatticeWeightTplIfEEEEEENS_17NullComposeFilterINS_7MatcherINS_3FstIS5_EEEESB_EENS_24GenericComposeStateTableIS5_NS_18TrivialFilterStateENS_24DefaultComposeStateTupleIiSE_EENS_21CompactHashStateTableISG_NS_11ComposeHashISG_EEEEEEED0Ev
  1072: 000000000016e6c0   391 FUNC    WEAK   DEFAULT   12 _ZN3fst16ImplToMutableFstINS_8internal13VectorFstImplINS_11VectorStateINS_10ReverseArcINS_6ArcTplINS_23CompactLatticeWeightTplINS_16LatticeWeightTplIfEEiEEEEEESaISB_EEEEENS_10MutableFstISB_EEE16SetOutputSymbolsEPKNS_11SymbolTableE
  1073: 00000000002452f0    40 OBJECT  WEAK   DEFAULT   21 _ZTVN3fst8internal15MemoryArenaImplILm88EEE
  1074: 0000000000110190   472 FUNC    WEAK   DEFAULT   12 _ZN3fst8internal17VectorFstBaseImplINS_11VectorStateINS_6ArcTplINS_23CompactLatticeWeightTplINS_16LatticeWeightTplIfEEiEEEESaIS8_EEEED2Ev
  1075: 00000000002029e0    61 OBJECT  WEAK   DEFAULT   14 _ZTSN3fst11ExpandedFstINS_6ArcTplINS_17TropicalWeightTplIfEEEEEE
  1076: 00000000001d1510     1 FUNC    WEAK   DEFAULT   12 _ZNSt15_Sp_counted_ptrIPN3fst8internal22DeterminizeFstImplBaseINS0_10ReverseArcINS0_6ArcTplINS0_17TropicalWeightTplIfEEEEEEEELN9__gnu_cxx12_Lock_policyE2EED1Ev
  1077: 00000000000ff090    21 FUNC    WEAK   DEFAULT   12 _ZNK3fst17ImplToExpandedFstINS_8internal13VectorFstImplINS_11VectorStateINS_6ArcTplINS_23CompactLatticeWeightTplINS_16LatticeWeightTplIfEEiEEEESaIS9_EEEEENS_10MutableFstIS9_EEE9NumStatesEv
  1078: 0000000000208d20    90 OBJECT  WEAK   DEFAULT   14 _ZTSN3fst10MemoryPoolINS_13PoolAllocatorINS_6ArcTplINS_17TropicalWeightTplIfEEEEE2TNILi4EEEEE
  1079: 0000000000116310   399 FUNC    WEAK   DEFAULT   12 _ZNSt6vectorISt4pairIiiESaIS1_EE17_M_realloc_insertIJRKS1_EEEvN9__gnu_cxx17__normal_iteratorIPS1_S3_EEDpOT_
  1080: 00000000002464b8    56 OBJECT  WEAK   DEFAULT   21 _ZTVSt15_Sp_counted_ptrIPN3fst8internal9AddOnImplINS0_8ConstFstINS0_6ArcTplINS0_17TropicalWeightTplIfEEEEjEENS0_9AddOnPairINS0_18LabelReachableDataIiEESB_EEEELN9__gnu_cxx12_Lock_policyE2EE
  1081: 00000000001f7560  2533 FUNC    WEAK   DEFAULT   12 _ZNK3fst18CacheStateIteratorINS_14DeterminizeFstINS_10ReverseArcINS_6ArcTplINS_17TropicalWeightTplIfEEEEEEEEE4DoneEv
  1082: 00000000001a8460    11 FUNC    WEAK   DEFAULT   12 _ZN3fst11ArcIteratorINS_8NGramFstINS_6ArcTplINS_17TropicalWeightTplIfEEEEEEE5ResetEv
  1083: 000000000020c3c0   141 OBJECT  WEAK   DEFAULT   14 _ZTSSt15_Sp_counted_ptrIPN3fst9VectorFstINS0_6ArcTplINS0_17TropicalWeightTplIfEEEENS0_11VectorStateIS5_SaIS5_EEEEELN9__gnu_cxx12_Lock_policyE2EE
  1084: 00000000002443f8    88 OBJECT  WEAK   DEFAULT   21 _ZTVN3fst8internal14ComposeFstImplINS_17DefaultCacheStoreINS_6ArcTplINS_17TropicalWeightTplIfEEEEEENS_23PushLabelsComposeFilterINS_24PushWeightsComposeFilterINS_22LookAheadComposeFilterINS_21SequenceComposeFilterINS_16LookAheadMatcherINS_3FstIS6_EEEESF_EESF_SF_LNS_9MatchTypeE3EEESF_SF_LSH_3EEESF_SF_LSH_3EEENS_24GenericComposeStateTableIS6_NS_15PairFilterStateINSM_INS_18IntegerFilterStateIaEENS_17WeightFilterStateIS5_EEEENSN_IiEEEENS_24DefaultComposeStateTupleIiST_EENS_21CompactHashStateTableISV_NS_11ComposeHashISV_EEEEEEEE
  1085: 0000000000245a78    24 OBJECT  WEAK   DEFAULT   21 _ZTIN3fst17ImplToExpandedFstINS_8internal12NGramFstImplINS_6ArcTplINS_17TropicalWeightTplIfEEEEEENS_11ExpandedFstIS6_EEEE
  1086: 00000000002029a0    52 OBJECT  WEAK   DEFAULT   14 _ZTSN3fst3FstINS_6ArcTplINS_17TropicalWeightTplIfEEEEEE
  1087: 00000000001a9eb0    55 FUNC    WEAK   DEFAULT   12 _ZN3fst11ArcIteratorINS_8NGramFstINS_6ArcTplINS_17TropicalWeightTplIfEEEEEEED1Ev
  1088: 000000000010a320    89 FUNC    WEAK   DEFAULT   12 _ZN3fst8internal15MemoryArenaImplILm24EED2Ev
  1089: 0000000000101aa0    10 FUNC    WEAK   DEFAULT   12 _ZNSt15_Sp_counted_ptrIPN3fst8internal22DeterminizeFstImplBaseINS0_10ReverseArcINS0_6ArcTplINS0_16LatticeWeightTplIfEEEEEEEELN9__gnu_cxx12_Lock_policyE2EED0Ev
  1090: 000000000013d3e0   201 FUNC    WEAK   DEFAULT   12 _ZNSt23_Sp_counted_ptr_inplaceIN3fst8internal14ComposeFstImplINS0_17DefaultCacheStoreINS0_6ArcTplINS0_16LatticeWeightTplIfEEEEEENS0_21SequenceComposeFilterINS0_7MatcherINS0_3FstIS7_EEEESD_EENS0_24GenericComposeStateTableIS7_NS0_18IntegerFilterStateIaEENS0_24DefaultComposeStateTupleIiSH_EENS0_21CompactHashStateTableISJ_NS0_11ComposeHashISJ_EEEEEEEESaIvELN9__gnu_cxx12_Lock_policyE2EE10_M_disposeEv
  1091: 00000000001a9020    65 FUNC    WEAK   DEFAULT   12 _ZNK3fst21LabelLookAheadMatcherINS_13SortedMatcherINS_8ConstFstINS_6ArcTplINS_17TropicalWeightTplIfEEEEjEEEELj1760ENS_18FastLogAccumulatorIS6_EENS_14LabelReachableIS6_SA_NS_18LabelReachableDataIiEEEEE4DoneEv
  1092: 0000000000109e20   173 FUNC    WEAK   DEFAULT   12 _ZN3fst17ComposeFstMatcherINS_17DefaultCacheStoreINS_6ArcTplINS_16LatticeWeightTplIfEEEEEENS_22LookAheadComposeFilterINS_24AltSequenceComposeFilterINS_16LookAheadMatcherINS_3FstIS5_EEEESC_EESC_SC_LNS_9MatchTypeE3EEENS_24GenericComposeStateTableIS5_NS_18IntegerFilterStateIaEENS_24DefaultComposeStateTupleIiSI_EENS_21CompactHashStateTableISK_NS_11ComposeHashISK_EEEEEEED2Ev
  1093: 00000000000fdb10     6 FUNC    WEAK   DEFAULT   12 _ZNK3fst8internal14MemoryPoolImplILm64EE4SizeEv
  1094: 0000000000114760   319 FUNC    WEAK   DEFAULT   12 _ZN3fst18ShortestFirstQueueIiNS_8internal18StateWeightCompareIiNS_11NaturalLessINS_16LatticeWeightTplIfEEEEEELb0EE7EnqueueEi
  1095: 0000000000100e80     7 FUNC    WEAK   DEFAULT   12 _ZNK3fst17ComposeFstMatcherINS_17DefaultCacheStoreINS_6ArcTplINS_16LatticeWeightTplIfEEEEEENS_18MatchComposeFilterINS_7MatcherINS_3FstIS5_EEEESB_EENS_24GenericComposeStateTableIS5_NS_18IntegerFilterStateIaEENS_24DefaultComposeStateTupleIiSF_EENS_21CompactHashStateTableISH_NS_11ComposeHashISH_EEEEEEE6GetFstEv
  1096: 0000000000209080   107 OBJECT  WEAK   DEFAULT   14 _ZTSN3fst10MemoryPoolINS_13PoolAllocatorINS_10ReverseArcINS_6ArcTplINS_16LatticeWeightTplIfEEEEEEE2TNILi8EEEEE
  1097: 0000000000242fb8    48 OBJECT  WEAK   DEFAULT   21 _ZTVN3fst8internal13CacheBaseImplINS_10CacheStateINS_6ArcTplINS_16LatticeWeightTplIfEEEENS_13PoolAllocatorIS6_EEEENS_17DefaultCacheStoreIS6_EEEE
  1098: 0000000000135500   274 FUNC    WEAK   DEFAULT   12 _ZN3fst16ImplToMutableFstINS_8internal13VectorFstImplINS_11VectorStateINS_6ArcTplINS_16LatticeWeightTplIfEEEESaIS7_EEEEENS_10MutableFstIS7_EEE10DeleteArcsEi
  1099: 00000000000fed70     3 FUNC    WEAK   DEFAULT   12 _ZNK3fst8internal18ComposeFstImplBaseINS_6ArcTplINS_16LatticeWeightTplIfEEEENS_17DefaultCacheStoreIS5_EENS_10ComposeFstIS5_S7_EEE11InitMatcherERKS9_NS_9MatchTypeE
  1100: 00000000001a8670    10 FUNC    WEAK   DEFAULT   12 _ZNSt19_Sp_counted_deleterIPN3fst18LabelReachableDataIiEESt14default_deleteIS2_ESaIvELN9__gnu_cxx12_Lock_policyE2EE10_M_destroyEv
  1101: 0000000000113b50    39 FUNC    WEAK   DEFAULT   12 _ZNSt6vectorISt4pairIiiESaIS1_EED1Ev
  1102: 0000000000118ac0    39 FUNC    WEAK   DEFAULT   12 _ZNSt6vectorIN3fst5AdderINS0_16LatticeWeightTplIfEEEESaIS4_EED2Ev
  1103: 00000000001b5340   193 FUNC    WEAK   DEFAULT   12 _ZN3fst21LabelLookAheadMatcherINS_13SortedMatcherINS_8ConstFstINS_6ArcTplINS_17TropicalWeightTplIfEEEEjEEEELj1760ENS_18FastLogAccumulatorIS6_EENS_14LabelReachableIS6_SA_NS_18LabelReachableDataIiEEEEED0Ev
  1104: 00000000000fefa0    11 FUNC    WEAK   DEFAULT   12 _ZNK3fst9ImplToFstINS_8internal13VectorFstImplINS_11VectorStateINS_6ArcTplINS_16LatticeWeightTplIfEEEESaIS7_EEEEENS_10MutableFstIS7_EEE13OutputSymbolsEv
  1105: 0000000000245bf8    48 OBJECT  WEAK   DEFAULT   21 _ZTVN3fst8internal12ConstFstImplINS_6ArcTplINS_17TropicalWeightTplIfEEEEjEE
  1106: 0000000000101ea0   186 FUNC    WEAK   DEFAULT   12 _ZNK3fst8internal14ComposeFstImplINS_17DefaultCacheStoreINS_6ArcTplINS_17TropicalWeightTplIfEEEEEENS_23PushLabelsComposeFilterINS_24PushWeightsComposeFilterINS_22LookAheadComposeFilterINS_24AltSequenceComposeFilterINS_16LookAheadMatcherINS_3FstIS6_EEEESF_EESF_SF_LNS_9MatchTypeE3EEESF_SF_LSH_3EEESF_SF_LSH_3EEENS_24GenericComposeStateTableIS6_NS_15PairFilterStateINSM_INS_18IntegerFilterStateIaEENS_17WeightFilterStateIS5_EEEENSN_IiEEEENS_24DefaultComposeStateTupleIiST_EENS_21CompactHashStateTableISV_NS_11ComposeHashISV_EEEEEEE10PropertiesEm
  1107: 0000000000243fd0    88 OBJECT  WEAK   DEFAULT   21 _ZTVN3fst8internal14ComposeFstImplINS_17DefaultCacheStoreINS_6ArcTplINS_16LatticeWeightTplIfEEEEEENS_17NullComposeFilterINS_7MatcherINS_3FstIS6_EEEESC_EENS_24GenericComposeStateTableIS6_NS_18TrivialFilterStateENS_24DefaultComposeStateTupleIiSF_EENS_21CompactHashStateTableISH_NS_11ComposeHashISH_EEEEEEEE
  1108: 0000000000145580   375 FUNC    WEAK   DEFAULT   12 _ZN3fst8internal13CacheBaseImplINS_10CacheStateINS_10ReverseArcINS_6ArcTplINS_16LatticeWeightTplIfEEEEEENS_13PoolAllocatorIS8_EEEENS_17DefaultCacheStoreIS8_EEED0Ev
  1109: 0000000000111d30   250 FUNC    WEAK   DEFAULT   12 _ZNK5kaldi15ConstIntegerSetIiE5countEi
  1110: 00000000001c55e0   405 FUNC    WEAK   DEFAULT   12 _ZNSt6vectorIdSaIdEE17_M_realloc_insertIJRKdEEEvN9__gnu_cxx17__normal_iteratorIPdS1_EEDpOT_
  1111: 00000000002409c8    56 OBJECT  WEAK   DEFAULT   21 _ZTVSt15_Sp_counted_ptrIPN3fst8internal22DeterminizeFstImplBaseINS0_10ReverseArcINS0_6ArcTplINS0_16LatticeWeightTplIfEEEEEEEELN9__gnu_cxx12_Lock_policyE2EE
  1112: 000000000020926c     1 OBJECT  <OS specific>: 10 DEFAULT   14 _ZZN3fst8DfsVisitINS_3FstINS_10ReverseArcINS_6ArcTplINS_23CompactLatticeWeightTplINS_16LatticeWeightTplIfEEiEEEEEEEENS_15TopOrderVisitorIS9_EENS_12AnyArcFilterIS9_EEEEvRKT_PT0_T1_bE9kDfsWhite
  1113: 00000000001d0ef0    21 FUNC    WEAK   DEFAULT   12 _ZNSt15_Sp_counted_ptrIPN3fst9VectorFstINS0_6ArcTplINS0_17TropicalWeightTplIfEEEENS0_11VectorStateIS5_SaIS5_EEEEELN9__gnu_cxx12_Lock_policyE2EE10_M_disposeEv
  1114: 00000000000fe720     1 FUNC    WEAK   DEFAULT   12 _ZN3fst18ShortestFirstQueueIiNS_8internal18StateWeightCompareIiNS_11NaturalLessINS_16LatticeWeightTplIfEEEEEELb0EE6UpdateEi
  1115: 000000000017b360   150 FUNC    WEAK   DEFAULT   12 _ZN3fst16ImplToMutableFstINS_8internal13VectorFstImplINS_11VectorStateINS_6ArcTplINS_23CompactLatticeWeightTplINS_16LatticeWeightTplIfEEiEEEESaIS9_EEEEENS_10MutableFstIS9_EEE19MutableInputSymbolsEv
  1116: 0000000000206dc0   143 OBJECT  WEAK   DEFAULT   14 _ZTSN3fst10MemoryPoolINS_8internal8DfsStateINS_3FstINS_10ReverseArcINS_6ArcTplINS_23CompactLatticeWeightTplINS_16LatticeWeightTplIfEEiEEEEEEEEEEEE
  1117: 00000000001a7d50     5 FUNC    WEAK   DEFAULT   12 _ZNK3fst15GenericRegisterINSt7__cxx1112basic_stringIcSt11char_traitsIcESaIcEEENS_16FstRegisterEntryINS_6ArcTplINS_17TropicalWeightTplIfEEEEEENS_11FstRegisterISB_EEE25LoadEntryFromSharedObjectERKS6_
  1118: 0000000000204d60   133 OBJECT  WEAK   DEFAULT   14 _ZTSN3fst10MemoryPoolINS_8internal8DfsStateINS_10MutableFstINS_6ArcTplINS_23CompactLatticeWeightTplINS_16LatticeWeightTplIfEEiEEEEEEEEEE
  1119: 00000000001e06a0   835 FUNC    WEAK   DEFAULT   12 _ZN3fst8internal22DeterminizeFstImplBaseINS_10ReverseArcINS_6ArcTplINS_17TropicalWeightTplIfEEEEEEED1Ev
  1120: 00000000001b67a0   702 FUNC    WEAK   DEFAULT   12 _ZNK3fst10MatcherFstINS_8ConstFstINS_6ArcTplINS_17TropicalWeightTplIfEEEEjEENS_21LabelLookAheadMatcherINS_13SortedMatcherIS6_EELj1760ENS_18FastLogAccumulatorIS5_EENS_14LabelReachableIS5_SB_NS_18LabelReachableDataIiEEEEEEXadL_ZNS_25olabel_lookahead_fst_typeEEENS_23LabelLookAheadRelabelerIS5_SE_EENS_9AddOnPairISE_SE_EEE4CopyEb
  1121: 000000000020b060   101 OBJECT  WEAK   DEFAULT   14 _ZTSSt23_Sp_counted_ptr_inplaceIN3fst29MutableFastLogAccumulatorDataESaIvELN9__gnu_cxx12_Lock_policyE2EE
  1122: 0000000000108d50   208 FUNC    WEAK   DEFAULT   12 _ZNK3fst8internal14ComposeFstImplINS_17DefaultCacheStoreINS_6ArcTplINS_17TropicalWeightTplIfEEEEEENS_23PushLabelsComposeFilterINS_24PushWeightsComposeFilterINS_22LookAheadComposeFilterINS_24AltSequenceComposeFilterINS_16LookAheadMatcherINS_3FstIS6_EEEESF_EESF_SF_LNS_9MatchTypeE3EEESF_SF_LSH_3EEESF_SF_LSH_3EEENS_24GenericComposeStateTableIS6_NS_15PairFilterStateINSM_INS_18IntegerFilterStateIaEENS_17WeightFilterStateIS5_EEEENSN_IiEEEENS_24DefaultComposeStateTupleIiST_EENS_21CompactHashStateTableISV_NS_11ComposeHashISV_EEEEEEE10PropertiesEv
  1123: 00000000000fdff0     1 FUNC    WEAK   DEFAULT   12 _ZNSt23_Sp_counted_ptr_inplaceIN3fst8internal13ArcMapFstImplINS0_6ArcTplINS0_17TropicalWeightTplIfEEEENS3_INS0_16LatticeWeightTplIfEEEENS0_18StdToLatticeMapperIfEEEESaIvELN9__gnu_cxx12_Lock_policyE2EED1Ev
  1124: 0000000000240580   128 OBJECT  WEAK   DEFAULT   21 _ZTVN3fst17ComposeFstMatcherINS_17DefaultCacheStoreINS_6ArcTplINS_16LatticeWeightTplIfEEEEEENS_17NullComposeFilterINS_7MatcherINS_3FstIS5_EEEESB_EENS_24GenericComposeStateTableIS5_NS_18TrivialFilterStateENS_24DefaultComposeStateTupleIiSE_EENS_21CompactHashStateTableISG_NS_11ComposeHashISG_EEEEEEEE
  1125: 0000000000124900   666 FUNC    WEAK   DEFAULT   12 _ZNSt5dequeIN3fst19LatticeDeterminizerINS0_16LatticeWeightTplIfEEiE7ElementESaIS5_EE16_M_push_back_auxIJRKS5_EEEvDpOT_
  1126: 00000000001987a0    59 FUNC    WEAK   DEFAULT   12 _ZN3fst17ComposeFstMatcherINS_17DefaultCacheStoreINS_6ArcTplINS_16LatticeWeightTplIfEEEEEENS_20NoMatchComposeFilterINS_7MatcherINS_3FstIS5_EEEESB_EENS_24GenericComposeStateTableIS5_NS_18TrivialFilterStateENS_24DefaultComposeStateTupleIiSE_EENS_21CompactHashStateTableISG_NS_11ComposeHashISG_EEEEEEE4NextEv
  1127: 000000000016b3f0   547 FUNC    WEAK   DEFAULT   12 _ZN3fst16ImplToMutableFstINS_8internal13VectorFstImplINS_11VectorStateINS_10ReverseArcINS_6ArcTplINS_23CompactLatticeWeightTplINS_16LatticeWeightTplIfEEiEEEEEESaISB_EEEEENS_10MutableFstISB_EEE8SetFinalEiS9_
  1128: 000000000017f9c0   304 FUNC    WEAK   DEFAULT   12 _ZN3fst8internal14ComposeFstImplINS_17DefaultCacheStoreINS_6ArcTplINS_17TropicalWeightTplIfEEEEEENS_23PushLabelsComposeFilterINS_24PushWeightsComposeFilterINS_22LookAheadComposeFilterINS_21SequenceComposeFilterINS_16LookAheadMatcherINS_3FstIS6_EEEESF_EESF_SF_LNS_9MatchTypeE3EEESF_SF_LSH_3EEESF_SF_LSH_3EEENS_24GenericComposeStateTableIS6_NS_15PairFilterStateINSM_INS_18IntegerFilterStateIaEENS_17WeightFilterStateIS5_EEEENSN_IiEEEENS_24DefaultComposeStateTupleIiST_EENS_21CompactHashStateTableISV_NS_11ComposeHashISV_EEEEEEE12ComputeStartEv
  1129: 0000000000203920   115 OBJECT  WEAK   DEFAULT   14 _ZTSN3fst8internal13ArcMapFstImplINS_6ArcTplINS_17TropicalWeightTplIfEEEES5_NS_28RemoveSomeInputSymbolsMapperIS5_iEEEE
  1130: 00000000001ae7e0   330 FUNC    WEAK   DEFAULT   12 _ZN3fst8internal12NGramFstImplINS_6ArcTplINS_17TropicalWeightTplIfEEEEED2Ev
  1131: 0000000000205f00   525 OBJECT  WEAK   DEFAULT   14 _ZTSN3fst8internal14ComposeFstImplINS_17DefaultCacheStoreINS_6ArcTplINS_17TropicalWeightTplIfEEEEEENS_23PushLabelsComposeFilterINS_24PushWeightsComposeFilterINS_22LookAheadComposeFilterINS_21SequenceComposeFilterINS_16LookAheadMatcherINS_3FstIS6_EEEESF_EESF_SF_LNS_9MatchTypeE3EEESF_SF_LSH_3EEESF_SF_LSH_3EEENS_24GenericComposeStateTableIS6_NS_15PairFilterStateINSM_INS_18IntegerFilterStateIaEENS_17WeightFilterStateIS5_EEEENSN_IiEEEENS_24DefaultComposeStateTupleIiST_EENS_21CompactHashStateTableISV_NS_11ComposeHashISV_EEEEEEEE
  1132: 0000000000129340   310 FUNC    WEAK   DEFAULT   12 _ZSt16__do_uninit_copyIPKN3fst23CompactLatticeWeightTplINS0_16LatticeWeightTplIfEEiEEPS4_ET0_T_S9_S8_
  1133: 0000000000243650    80 OBJECT  WEAK   DEFAULT   21 _ZTVN3fst9FifoQueueIiEE
  1134: 0000000000104850   107 FUNC    WEAK   DEFAULT   12 _ZNSt23_Sp_counted_ptr_inplaceIN3fst20MemoryPoolCollectionESaIvELN9__gnu_cxx12_Lock_policyE2EE10_M_disposeEv
  1135: 00000000000ffa90   102 FUNC    WEAK   DEFAULT   12 _ZNK3fst9VectorFstINS_6ArcTplINS_17TropicalWeightTplIfEEEENS_11VectorStateIS4_SaIS4_EEEE15InitArcIteratorEiPNS_15ArcIteratorDataIS4_EE
  1136: 00000000001e6020     5 FUNC    WEAK   DEFAULT   12 _ZNK3fst9VectorFstINS_10ReverseArcINS_6ArcTplINS_17TropicalWeightTplIfEEEEEENS_11VectorStateIS6_SaIS6_EEEE5WriteERKNSt7__cxx1112basic_stringIcSt11char_traitsIcESaIcEEE
  1137: 0000000000246158    56 OBJECT  WEAK   DEFAULT   21 _ZTVN3fst15GenericRegisterINSt7__cxx1112basic_stringIcSt11char_traitsIcESaIcEEENS_16FstRegisterEntryINS_6ArcTplINS_17TropicalWeightTplIfEEEEEENS_11FstRegisterISB_EEEE
  1138: 00000000001a7dc0     1 FUNC    WEAK   DEFAULT   12 _ZNSt23_Sp_counted_ptr_inplaceIN3fst29MutableFastLogAccumulatorDataESaIvELN9__gnu_cxx12_Lock_policyE2EED2Ev
  1139: 00000000000e4a70   546 FUNC    GLOBAL DEFAULT   12 _ZN10Recognizer17SetEndpointerModeEi
  1140: 0000000000240df0    24 OBJECT  WEAK   DEFAULT   21 _ZTIN3fst8internal9CacheImplINS_6ArcTplINS_17TropicalWeightTplIfEEEEEE
  1141: 0000000000149150   433 FUNC    WEAK   DEFAULT   12 _ZN3fst8internal13VectorFstImplINS_11VectorStateINS_6ArcTplINS_23CompactLatticeWeightTplINS_16LatticeWeightTplIfEEiEEEESaIS8_EEEE8SetFinalEiS7_
  1142: 00000000000fed90    11 FUNC    WEAK   DEFAULT   12 _ZNK3fst9ImplToFstINS_8internal18ComposeFstImplBaseINS_6ArcTplINS_17TropicalWeightTplIfEEEENS_17DefaultCacheStoreIS6_EENS_10ComposeFstIS6_S8_EEEENS_3FstIS6_EEE12InputSymbolsEv
  1143: 00000000001d0c80     1 FUNC    WEAK   DEFAULT   12 _ZNSt23_Sp_counted_ptr_inplaceIN3fst8internal14ComposeFstImplINS0_17DefaultCacheStoreINS0_6ArcTplINS0_17TropicalWeightTplIfEEEEEENS0_24AltSequenceComposeFilterINS0_7MatcherINS0_3FstIS7_EEEESD_EENS0_24GenericComposeStateTableIS7_NS0_18IntegerFilterStateIaEENS0_24DefaultComposeStateTupleIiSH_EENS0_21CompactHashStateTableISJ_NS0_11ComposeHashISJ_EEEEEEEESaIvELN9__gnu_cxx12_Lock_policyE2EED2Ev
  1144: 0000000000198450    59 FUNC    WEAK   DEFAULT   12 _ZN3fst17ComposeFstMatcherINS_17DefaultCacheStoreINS_6ArcTplINS_16LatticeWeightTplIfEEEEEENS_18MatchComposeFilterINS_7MatcherINS_3FstIS5_EEEESB_EENS_24GenericComposeStateTableIS5_NS_18IntegerFilterStateIaEENS_24DefaultComposeStateTupleIiSF_EENS_21CompactHashStateTableISH_NS_11ComposeHashISH_EEEEEEE4NextEv
  1145: 000000000013da00   478 FUNC    WEAK   DEFAULT   12 _ZN3fst8internal13CacheBaseImplINS_10CacheStateINS_6ArcTplINS_16LatticeWeightTplIfEEEENS_13PoolAllocatorIS6_EEEENS_17DefaultCacheStoreIS6_EEEC1ERKNS_16CacheImplOptionsISB_EE
  1146: 00000000000fdf90     3 FUNC    WEAK   DEFAULT   12 _ZNK3fst3FstINS_10ReverseArcINS_6ArcTplINS_23CompactLatticeWeightTplINS_16LatticeWeightTplIfEEiEEEEEEE11InitMatcherENS_9MatchTypeE
  1147: 0000000000140cd0   133 FUNC    WEAK   DEFAULT   12 _ZN3fst8internal13ArcMapFstImplINS_6ArcTplINS_17TropicalWeightTplIfEEEES5_NS_28RemoveSomeInputSymbolsMapperIS5_iEEED2Ev
  1148: 00000000002478b8    88 OBJECT  WEAK   DEFAULT   21 _ZTVN3fst8internal14ComposeFstImplINS_17DefaultCacheStoreINS_6ArcTplINS_17TropicalWeightTplIfEEEEEENS_20NoMatchComposeFilterINS_7MatcherINS_3FstIS6_EEEESC_EENS_24GenericComposeStateTableIS6_NS_18TrivialFilterStateENS_24DefaultComposeStateTupleIiSF_EENS_21CompactHashStateTableISH_NS_11ComposeHashISH_EEEEEEEE
  1149: 0000000000244ef8    40 OBJECT  WEAK   DEFAULT   21 _ZTVN3fst8internal14MemoryPoolImplILm8EEE
  1150: 00000000001d0c60     1 FUNC    WEAK   DEFAULT   12 _ZNSt23_Sp_counted_ptr_inplaceIN3fst8internal14ComposeFstImplINS0_17DefaultCacheStoreINS0_6ArcTplINS0_17TropicalWeightTplIfEEEEEENS0_20NoMatchComposeFilterINS0_7MatcherINS0_3FstIS7_EEEESD_EENS0_24GenericComposeStateTableIS7_NS0_18TrivialFilterStateENS0_24DefaultComposeStateTupleIiSG_EENS0_21CompactHashStateTableISI_NS0_11ComposeHashISI_EEEEEEEESaIvELN9__gnu_cxx12_Lock_policyE2EED2Ev
  1151: 00000000001d7f60   422 FUNC    WEAK   DEFAULT   12 _ZNSt6vectorISt4pairIimESaIS1_EE17_M_realloc_insertIJRKiRKmEEEvN9__gnu_cxx17__normal_iteratorIPS1_S3_EEDpOT_
  1152: 0000000000101ae0    10 FUNC    WEAK   DEFAULT   12 _ZNSt23_Sp_counted_ptr_inplaceIN3fst8internal14ComposeFstImplINS0_17DefaultCacheStoreINS0_6ArcTplINS0_16LatticeWeightTplIfEEEEEENS0_22LookAheadComposeFilterINS0_21SequenceComposeFilterINS0_16LookAheadMatcherINS0_3FstIS7_EEEESE_EESE_SE_LNS0_9MatchTypeE3EEENS0_24GenericComposeStateTableIS7_NS0_18IntegerFilterStateIaEENS0_24DefaultComposeStateTupleIiSK_EENS0_21CompactHashStateTableISM_NS0_11ComposeHashISM_EEEEEEEESaIvELN9__gnu_cxx12_Lock_policyE2EED0Ev
  1153: 0000000000241aa8    24 OBJECT  WEAK   DEFAULT   21 _ZTIN3fst10MemoryPoolINS_13PoolAllocatorINS_6ArcTplINS_16LatticeWeightTplIfEEEEE2TNILi16EEEEE
  1154: 0000000000240100    24 OBJECT  WEAK   DEFAULT   21 _ZTISt15_Sp_counted_ptrIPN3fst8internal18ComposeFstImplBaseINS0_6ArcTplINS0_17TropicalWeightTplIfEEEENS0_17DefaultCacheStoreIS6_EENS0_10ComposeFstIS6_S8_EEEELN9__gnu_cxx12_Lock_policyE2EE
  1155: 00000000002413a8    24 OBJECT  WEAK   DEFAULT   21 _ZTIN3fst8internal15MemoryArenaImplILm48EEE
  1156: 00000000001d41e0   117 FUNC    WEAK   DEFAULT   12 _ZN3fst10MemoryPoolINS_13PoolAllocatorINS_10ReverseArcINS_6ArcTplINS_17TropicalWeightTplIfEEEEEEE2TNILi1EEEED1Ev
  1157: 00000000001417c0   153 FUNC    WEAK   DEFAULT   12 _ZNSt23_Sp_counted_ptr_inplaceIN3fst8internal13ArcMapFstImplINS0_6ArcTplINS0_17TropicalWeightTplIfEEEES6_NS0_28RemoveSomeInputSymbolsMapperIS6_iEEEESaIvELN9__gnu_cxx12_Lock_policyE2EE10_M_disposeEv
  1158: 00000000000feab0    70 FUNC    WEAK   DEFAULT   12 _ZN3fst13TopOrderQueueIiE7DequeueEv
  1159: 00000000001a7fd0    35 FUNC    WEAK   DEFAULT   12 _ZNK3fst9ImplToFstINS_8internal9AddOnImplINS_8ConstFstINS_6ArcTplINS_17TropicalWeightTplIfEEEEjEENS_9AddOnPairINS_18LabelReachableDataIiEESB_EEEENS_11ExpandedFstIS7_EEE16NumInputEpsilonsEi
  1160: 0000000000148f90   433 FUNC    WEAK   DEFAULT   12 _ZN3fst8internal13VectorFstImplINS_11VectorStateINS_10ReverseArcINS_6ArcTplINS_23CompactLatticeWeightTplINS_16LatticeWeightTplIfEEiEEEEEESaISA_EEEE8SetFinalEiS8_
  1161: 00000000001493e0   614 FUNC    WEAK   DEFAULT   12 _ZN3fst15MultiEpsMatcherINS_16LookAheadMatcherINS_3FstINS_6ArcTplINS_17TropicalWeightTplIfEEEEEEEEE16AddMultiEpsLabelEi
  1162: 0000000000245458    40 OBJECT  WEAK   DEFAULT   21 _ZTVN3fst8internal15MemoryArenaImplILm648EEE
  1163: 000000000015e0a0   410 FUNC    WEAK   DEFAULT   12 _ZN3fst16AddArcPropertiesINS_10ReverseArcINS_6ArcTplINS_16LatticeWeightTplIfEEEEEEEEmmNT_7StateIdERKS7_PS9_
  1164: 00000000002081a0    39 OBJECT  WEAK   DEFAULT   14 _ZTSN3fst8internal14MemoryPoolImplILm32EEE
  1165: 000000000011ea00  1812 FUNC    WEAK   DEFAULT   12 _ZN3fst19LatticeDeterminizerINS_16LatticeWeightTplIfEEiE5DebugEv
  1166: 0000000000101ba0    10 FUNC    WEAK   DEFAULT   12 _ZNSt23_Sp_counted_ptr_inplaceIN3fst8internal13VectorFstImplINS0_11VectorStateINS0_6ArcTplINS0_23CompactLatticeWeightTplINS0_16LatticeWeightTplIfEEiEEEESaIS9_EEEEESaIvELN9__gnu_cxx12_Lock_policyE2EED0Ev
  1167: 00000000001e4e60   588 FUNC    WEAK   DEFAULT   12 _ZNK3fst17ComposeFstMatcherINS_17DefaultCacheStoreINS_6ArcTplINS_17TropicalWeightTplIfEEEEEENS_24AltSequenceComposeFilterINS_7MatcherINS_3FstIS5_EEEESB_EENS_24GenericComposeStateTableIS5_NS_18IntegerFilterStateIaEENS_24DefaultComposeStateTupleIiSF_EENS_21CompactHashStateTableISH_NS_11ComposeHashISH_EEEEEEE4CopyEb
  1168: 000000000017bc10   362 FUNC    WEAK   DEFAULT   12 _ZN3fst16ImplToMutableFstINS_8internal13VectorFstImplINS_11VectorStateINS_6ArcTplINS_23CompactLatticeWeightTplINS_16LatticeWeightTplIfEEiEEEESaIS9_EEEEENS_10MutableFstIS9_EEE10DeleteArcsEi
  1169: 0000000000147d70     5 FUNC    WEAK   DEFAULT   12 _ZNK3fst9VectorFstINS_6ArcTplINS_17TropicalWeightTplIfEEEENS_11VectorStateIS4_SaIS4_EEEE5WriteERKNSt7__cxx1112basic_stringIcSt11char_traitsIcESaIcEEE
  1170: 00000000002457a0    40 OBJECT  WEAK   DEFAULT   21 _ZTVN3fst10MemoryPoolINS_13PoolAllocatorINS_10ReverseArcINS_6ArcTplINS_16LatticeWeightTplIfEEEEEEE2TNILi64EEEEE
  1171: 0000000000241a00    24 OBJECT  WEAK   DEFAULT   21 _ZTIN3fst8internal14MemoryPoolImplILm80EEE
  1172: 0000000000100010    16 FUNC    WEAK   DEFAULT   12 _ZNSt23_Sp_counted_ptr_inplaceIN3fst8internal13VectorFstImplINS0_11VectorStateINS0_6ArcTplINS0_16LatticeWeightTplIfEEEESaIS7_EEEEESaIvELN9__gnu_cxx12_Lock_policyE2EE10_M_disposeEv
  1173: 000000000017eea0   711 FUNC    WEAK   DEFAULT   12 _ZN3fst18CompactHashBiTableIiNS_24DefaultComposeStateTupleIiNS_18IntegerFilterStateIaEEEENS_11ComposeHashIS4_EESt8equal_toIS4_ELNS_6HSTypeE3EEC2ERKSA_
  1174: 00000000000f1410   718 FUNC    GLOBAL DEFAULT   12 _ZN10RecognizerC2EP5ModelfPKc
  1175: 00000000001f8fc0    59 FUNC    WEAK   DEFAULT   12 _ZN3fst17ComposeFstMatcherINS_17DefaultCacheStoreINS_6ArcTplINS_17TropicalWeightTplIfEEEEEENS_20NoMatchComposeFilterINS_7MatcherINS_3FstIS5_EEEESB_EENS_24GenericComposeStateTableIS5_NS_18TrivialFilterStateENS_24DefaultComposeStateTupleIiSE_EENS_21CompactHashStateTableISG_NS_11ComposeHashISG_EEEEEEE4NextEv
  1176: 000000000011ffa0   500 FUNC    WEAK   DEFAULT   12 _ZN3fst10SccVisitorINS_6ArcTplINS_16LatticeWeightTplIfEEEEE9InitStateEii
  1177: 000000000023fe68    24 OBJECT  WEAK   DEFAULT   21 _ZTIN3fst17ComposeFstMatcherINS_17DefaultCacheStoreINS_6ArcTplINS_16LatticeWeightTplIfEEEEEENS_22LookAheadComposeFilterINS_21SequenceComposeFilterINS_16LookAheadMatcherINS_3FstIS5_EEEESC_EESC_SC_LNS_9MatchTypeE3EEENS_24GenericComposeStateTableIS5_NS_18IntegerFilterStateIaEENS_24DefaultComposeStateTupleIiSI_EENS_21CompactHashStateTableISK_NS_11ComposeHashISK_EEEEEEEE
  1178: 0000000000134f30   141 FUNC    WEAK   DEFAULT   12 _ZN3fst9VectorFstINS_6ArcTplINS_16LatticeWeightTplIfEEEENS_11VectorStateIS4_SaIS4_EEEEaSERKNS_3FstIS4_EE
  1179: 00000000000fd900     1 FUNC    WEAK   DEFAULT   12 _ZN3fst29ScaleDeterministicOnDemandFstD2Ev
  1180: 00000000001f3300   769 FUNC    WEAK   DEFAULT   12 _ZN3fst8internal14ComposeFstImplINS_17DefaultCacheStoreINS_6ArcTplINS_17TropicalWeightTplIfEEEEEENS_20TrivialComposeFilterINS_7MatcherINS_3FstIS6_EEEESC_EENS_24GenericComposeStateTableIS6_NS_18TrivialFilterStateENS_24DefaultComposeStateTupleIiSF_EENS_21CompactHashStateTableISH_NS_11ComposeHashISH_EEEEEEE8MatchArcISC_EEviPT_RKS6_b
  1181: 0000000000173640  1184 FUNC    WEAK   DEFAULT   12 _ZN3fst16ImplToMutableFstINS_8internal13VectorFstImplINS_11VectorStateINS_10ReverseArcINS_6ArcTplINS_16LatticeWeightTplIfEEEEEESaIS9_EEEEENS_10MutableFstIS9_EEE12DeleteStatesERKSt6vectorIiSaIiEE
  1182: 00000000001e7c20   418 FUNC    WEAK   DEFAULT   12 _ZN3fst16ImplToMutableFstINS_8internal13VectorFstImplINS_11VectorStateINS_10ReverseArcINS_6ArcTplINS_17TropicalWeightTplIfEEEEEESaIS9_EEEEENS_10MutableFstIS9_EEE15SetInputSymbolsEPKNS_11SymbolTableE
  1183: 0000000000245b50    24 OBJECT  WEAK   DEFAULT   21 _ZTISt15_Sp_counted_ptrIPN3fst9AddOnPairINS0_18LabelReachableDataIiEES3_EELN9__gnu_cxx12_Lock_policyE2EE
  1184: 00000000000fdd50     1 FUNC    WEAK   DEFAULT   12 _ZNSt23_Sp_counted_ptr_inplaceIN3fst8internal13ArcMapFstImplINS0_6ArcTplINS0_17TropicalWeightTplIfEEEES6_NS0_28RemoveSomeInputSymbolsMapperIS6_iEEEESaIvELN9__gnu_cxx12_Lock_policyE2EED2Ev
  1185: 0000000000192510   496 FUNC    WEAK   DEFAULT   12 _ZNSt6vectorIN3fst6ArcTplINS0_16LatticeWeightTplIfEEEENS0_13PoolAllocatorIS4_EEE17_M_realloc_insertIJS4_EEEvN9__gnu_cxx17__normal_iteratorIPS4_S7_EEDpOT_
  1186: 00000000002415b8    24 OBJECT  WEAK   DEFAULT   21 _ZTIN3fst8internal14ComposeFstImplINS_17DefaultCacheStoreINS_6ArcTplINS_16LatticeWeightTplIfEEEEEENS_22LookAheadComposeFilterINS_21SequenceComposeFilterINS_16LookAheadMatcherINS_3FstIS6_EEEESD_EESD_SD_LNS_9MatchTypeE3EEENS_24GenericComposeStateTableIS6_NS_18IntegerFilterStateIaEENS_24DefaultComposeStateTupleIiSJ_EENS_21CompactHashStateTableISL_NS_11ComposeHashISL_EEEEEEEE
  1187: 0000000000245430    40 OBJECT  WEAK   DEFAULT   21 _ZTVN3fst10MemoryPoolINS_13PoolAllocatorINS_6ArcTplINS_16LatticeWeightTplIfEEEEE2TNILi16EEEEE
  1188: 000000000011b850    67 FUNC    WEAK   DEFAULT   12 _ZN3fst10MemoryPoolINS_13PoolAllocatorINS_10CacheStateINS_10ReverseArcINS_6ArcTplINS_16LatticeWeightTplIfEEEEEENS1_IS8_EEEEE2TNILi1EEEED0Ev
  1189: 0000000000101bd0    10 FUNC    WEAK   DEFAULT   12 _ZN3fst18MutableArcIteratorINS_9VectorFstINS_6ArcTplINS_16LatticeWeightTplIfEEEENS_11VectorStateIS5_SaIS5_EEEEEED0Ev
  1190: 000000000010bd40   117 FUNC    WEAK   DEFAULT   12 _ZN3fst8internal14MemoryPoolImplILm128EED1Ev
  1191: 00000000001d3290   242 FUNC    WEAK   DEFAULT   12 _ZN3fst17ComposeFstMatcherINS_17DefaultCacheStoreINS_6ArcTplINS_17TropicalWeightTplIfEEEEEENS_20NoMatchComposeFilterINS_7MatcherINS_3FstIS5_EEEESB_EENS_24GenericComposeStateTableIS5_NS_18TrivialFilterStateENS_24DefaultComposeStateTupleIiSE_EENS_21CompactHashStateTableISG_NS_11ComposeHashISG_EEEEEEE8PriorityEi
  1192: 0000000000240f28    16 OBJECT  WEAK   DEFAULT   21 _ZTIN3fst9QueueBaseIiEE
  1193: 0000000000203000   129 OBJECT  WEAK   DEFAULT   14 _ZTSN3fst8internal13VectorFstImplINS_11VectorStateINS_6ArcTplINS_23CompactLatticeWeightTplINS_16LatticeWeightTplIfEEiEEEESaIS8_EEEEE
  1194: 00000000001025e0   422 FUNC    WEAK   DEFAULT   12 _ZN3fst18MutableArcIteratorINS_9VectorFstINS_6ArcTplINS_17TropicalWeightTplIfEEEENS_11VectorStateIS5_SaIS5_EEEEEE8SetValueERKS5_
  1195: 0000000000243ce0    48 OBJECT  WEAK   DEFAULT   21 _ZTVN3fst8internal9CacheImplINS_10ReverseArcINS_6ArcTplINS_16LatticeWeightTplIfEEEEEEEE
  1196: 00000000000fdc70     1 FUNC    WEAK   DEFAULT   12 _ZNSt23_Sp_counted_ptr_inplaceIN3fst8internal13VectorFstImplINS0_11VectorStateINS0_10ReverseArcINS0_6ArcTplINS0_23CompactLatticeWeightTplINS0_16LatticeWeightTplIfEEiEEEEEESaISB_EEEEESaIvELN9__gnu_cxx12_Lock_policyE2EED1Ev
  1197: 000000000011f9d0  1382 FUNC    WEAK   DEFAULT   12 _ZNSt6vectorIiSaIiEE14_M_fill_insertEN9__gnu_cxx17__normal_iteratorIPiS1_EEmRKi
  1198: 00000000001005a0     6 FUNC    WEAK   DEFAULT   12 _ZNK3fst18MutableArcIteratorINS_9VectorFstINS_10ReverseArcINS_6ArcTplINS_16LatticeWeightTplIfEEEEEENS_11VectorStateIS7_SaIS7_EEEEEE5FlagsEv
  1199: 00000000001ce840    95 FUNC    GLOBAL DEFAULT   12 _ZN9Processor3TagERKNSt7__cxx1112basic_stringIcSt11char_traitsIcESaIcEEE
  1200: 000000000011ba60    67 FUNC    WEAK   DEFAULT   12 _ZN3fst10MemoryPoolINS_8internal8DfsStateINS_3FstINS_6ArcTplINS_16LatticeWeightTplIfEEEEEEEEED0Ev
  1201: 00000000001650b0  9465 FUNC    WEAK   DEFAULT   12 _ZN3fst8internal17ComputePropertiesINS_10ReverseArcINS_6ArcTplINS_16LatticeWeightTplIfEEEEEEEEmRKNS_3FstIT_EEmPm
  1202: 0000000000197950   669 FUNC    WEAK   DEFAULT   12 _ZN3fst17ComposeFstMatcherINS_17DefaultCacheStoreINS_6ArcTplINS_16LatticeWeightTplIfEEEEEENS_21SequenceComposeFilterINS_7MatcherINS_3FstIS5_EEEESB_EENS_24GenericComposeStateTableIS5_NS_18IntegerFilterStateIaEENS_24DefaultComposeStateTupleIiSF_EENS_21CompactHashStateTableISH_NS_11ComposeHashISH_EEEEEEE8FindNextISB_SB_EEbPT_PT0_
  1203: 00000000002017e0   298 OBJECT  WEAK   DEFAULT   14 _ZTSN3fst17ComposeFstMatcherINS_17DefaultCacheStoreINS_6ArcTplINS_16LatticeWeightTplIfEEEEEENS_20NoMatchComposeFilterINS_7MatcherINS_3FstIS5_EEEESB_EENS_24GenericComposeStateTableIS5_NS_18TrivialFilterStateENS_24DefaultComposeStateTupleIiSE_EENS_21CompactHashStateTableISG_NS_11ComposeHashISG_EEEEEEEE
  1204: 00000000002418b0    24 OBJECT  WEAK   DEFAULT   21 _ZTIN3fst8internal14MemoryPoolImplILm128EEE
  1205: 00000000001c3f20  2566 FUNC    WEAK   DEFAULT   12 _ZNK3fst10MatcherFstINS_8ConstFstINS_6ArcTplINS_17TropicalWeightTplIfEEEEjEENS_21LabelLookAheadMatcherINS_13SortedMatcherIS6_EELj1760ENS_18FastLogAccumulatorIS5_EENS_14LabelReachableIS5_SB_NS_18LabelReachableDataIiEEEEEEXadL_ZNS_25olabel_lookahead_fst_typeEEENS_23LabelLookAheadRelabelerIS5_SE_EENS_9AddOnPairISE_SE_EEE5WriteERSoRKNS_15FstWriteOptionsE
  1206: 0000000000209282     1 OBJECT  <OS specific>: 10 DEFAULT   14 _ZZN3fst8DfsVisitINS_10MutableFstINS_6ArcTplINS_23CompactLatticeWeightTplINS_16LatticeWeightTplIfEEiEEEEEENS_10SccVisitorIS7_EENS_16EpsilonArcFilterIS7_EEEEvRKT_PT0_T1_bE9kDfsWhite
  1207: 000000000010abc0   117 FUNC    WEAK   DEFAULT   12 _ZN3fst10MemoryPoolINS_13PoolAllocatorINS_6ArcTplINS_17TropicalWeightTplIfEEEEE2TNILi32EEEED1Ev
  1208: 00000000001d3f60   117 FUNC    WEAK   DEFAULT   12 _ZN3fst10MemoryPoolINS_13PoolAllocatorINS_10ReverseArcINS_6ArcTplINS_17TropicalWeightTplIfEEEEEEE2TNILi32EEEED1Ev
  1209: 0000000000241500    24 OBJECT  WEAK   DEFAULT   21 _ZTIN3fst17ImplToExpandedFstINS_8internal13VectorFstImplINS_11VectorStateINS_10ReverseArcINS_6ArcTplINS_23CompactLatticeWeightTplINS_16LatticeWeightTplIfEEiEEEEEESaISB_EEEEENS_10MutableFstISB_EEEE
  1210: 000000000010b1c0   117 FUNC    WEAK   DEFAULT   12 _ZN3fst8internal14MemoryPoolImplILm256EED1Ev
  1211: 00000000001e83d0   258 FUNC    WEAK   DEFAULT   12 _ZN3fst16ImplToMutableFstINS_8internal13VectorFstImplINS_11VectorStateINS_10ReverseArcINS_6ArcTplINS_17TropicalWeightTplIfEEEEEESaIS9_EEEEENS_10MutableFstIS9_EEE8SetStartEi
  1212: 000000000010e700   231 FUNC    WEAK   DEFAULT   12 _ZN3fst8internal7FstImplINS_6ArcTplINS_23CompactLatticeWeightTplINS_16LatticeWeightTplIfEEiEEEEED1Ev
  1213: 0000000000243e90    40 OBJECT  WEAK   DEFAULT   21 _ZTVN3fst8internal15MemoryArenaImplILm56EEE
  1214: 00000000001a8da0    77 FUNC    WEAK   DEFAULT   12 _ZNK3fst9ImplToFstINS_8internal12NGramFstImplINS_6ArcTplINS_17TropicalWeightTplIfEEEEEENS_11ExpandedFstIS6_EEE7NumArcsEi
  1215: 000000000010dee0    37 FUNC    WEAK   DEFAULT   12 _ZN3fst10ComposeFstINS_6ArcTplINS_17TropicalWeightTplIfEEEENS_17DefaultCacheStoreIS4_EEED2Ev
  1216: 00000000001683e0   389 FUNC    WEAK   DEFAULT   12 _ZNSt6vectorIPN3fst11VectorStateINS0_10ReverseArcINS0_6ArcTplINS0_16LatticeWeightTplIfEEEEEESaIS7_EEESaISA_EE17_M_realloc_insertIJRKSA_EEEvN9__gnu_cxx17__normal_iteratorIPSA_SC_EEDpOT_
  1217: 00000000001d7f10    67 FUNC    WEAK   DEFAULT   12 _ZN3fst10MemoryPoolINS_8internal8DfsStateINS_3FstINS_10ReverseArcINS_6ArcTplINS_17TropicalWeightTplIfEEEEEEEEEEED0Ev
  1218: 00000000001e1cc0  1833 FUNC    WEAK   DEFAULT   12 _ZN3fst8internal14ComposeFstImplINS_17DefaultCacheStoreINS_6ArcTplINS_17TropicalWeightTplIfEEEEEENS_17NullComposeFilterINS_7MatcherINS_3FstIS6_EEEESC_EENS_24GenericComposeStateTableIS6_NS_18TrivialFilterStateENS_24DefaultComposeStateTupleIiSF_EENS_21CompactHashStateTableISH_NS_11ComposeHashISH_EEEEEEEC1ISC_SC_EERKSB_SQ_RKNS_21ComposeFstImplOptionsIT_T0_SD_SM_S7_EE
  1219: 000000000023feb0    24 OBJECT  WEAK   DEFAULT   21 _ZTIN3fst18MutableArcIteratorINS_9VectorFstINS_10ReverseArcINS_6ArcTplINS_23CompactLatticeWeightTplINS_16LatticeWeightTplIfEEiEEEEEENS_11VectorStateIS9_SaIS9_EEEEEEE
  1220: 000000000011af00    67 FUNC    WEAK   DEFAULT   12 _ZN3fst10MemoryPoolINS_13PoolAllocatorINSt8__detail10_Hash_nodeIiLb1EEEE2TNILi1EEEED0Ev
  1221: 00000000001aa110    72 FUNC    WEAK   DEFAULT   12 _ZN3fst15NGramFstMatcherINS_6ArcTplINS_17TropicalWeightTplIfEEEEED1Ev
  1222: 00000000000fdfc0    11 FUNC    WEAK   DEFAULT   12 _ZNK3fst9ImplToFstINS_8internal13VectorFstImplINS_11VectorStateINS_10ReverseArcINS_6ArcTplINS_23CompactLatticeWeightTplINS_16LatticeWeightTplIfEEiEEEEEESaISB_EEEEENS_10MutableFstISB_EEE12InputSymbolsEv
  1223: 00000000001e64e0   600 FUNC    WEAK   DEFAULT   12 _ZN3fst10SccVisitorINS_10ReverseArcINS_6ArcTplINS_17TropicalWeightTplIfEEEEEEE11FinishVisitEv
  1224: 00000000001d14a0    16 FUNC    WEAK   DEFAULT   12 _ZNSt23_Sp_counted_ptr_inplaceIN3fst8internal18DeterminizeFsaImplINS0_10ReverseArcINS0_6ArcTplINS0_17TropicalWeightTplIfEEEEEENS0_20DefaultCommonDivisorIS6_EENS0_24DefaultDeterminizeFilterIS8_EENS0_28DefaultDeterminizeStateTableIS8_NS0_18IntegerFilterStateIaEEEEEESaIvELN9__gnu_cxx12_Lock_policyE2EE10_M_disposeEv
  1225: 0000000000117dd0  1785 FUNC    WEAK   DEFAULT   12 _ZNSt6vectorIbSaIbEE6resizeEmb
  1226: 0000000000101510    42 FUNC    WEAK   DEFAULT   12 _ZNK3fst18MutableArcIteratorINS_9VectorFstINS_10ReverseArcINS_6ArcTplINS_23CompactLatticeWeightTplINS_16LatticeWeightTplIfEEiEEEEEENS_11VectorStateIS9_SaIS9_EEEEEE4DoneEv
  1227: 000000000020a9e0    57 OBJECT  WEAK   DEFAULT   14 _ZTSN3fst8NGramFstINS_6ArcTplINS_17TropicalWeightTplIfEEEEEE
  1228: 00000000001ba160   233 FUNC    WEAK   DEFAULT   12 _ZN3fst7ArcSortINS_6ArcTplINS_17TropicalWeightTplIfEEEENS_13ILabelCompareIS4_EEEEvPNS_10MutableFstIT_EET0_
  1229: 00000000001df7a0   795 FUNC    WEAK   DEFAULT   12 _ZN3fst8internal13CacheBaseImplINS_10CacheStateINS_10ReverseArcINS_6ArcTplINS_17TropicalWeightTplIfEEEEEENS_13PoolAllocatorIS8_EEEENS_17DefaultCacheStoreIS8_EEED2Ev
  1230: 0000000000114f50    39 FUNC    WEAK   DEFAULT   12 _ZNSt6vectorIN3fst16LatticeWeightTplIfEESaIS2_EED1Ev
  1231: 0000000000241160    24 OBJECT  WEAK   DEFAULT   21 _ZTIN3fst8internal22DeterminizeFstImplBaseINS_10ReverseArcINS_6ArcTplINS_16LatticeWeightTplIfEEEEEEEE
  1232: 0000000000133ae0   119 FUNC    WEAK   DEFAULT   12 _ZN3fst17ComposeFstMatcherINS_17DefaultCacheStoreINS_6ArcTplINS_16LatticeWeightTplIfEEEEEENS_24AltSequenceComposeFilterINS_7MatcherINS_3FstIS5_EEEESB_EENS_24GenericComposeStateTableIS5_NS_18IntegerFilterStateIaEENS_24DefaultComposeStateTupleIiSF_EENS_21CompactHashStateTableISH_NS_11ComposeHashISH_EEEEEEED0Ev
  1233: 0000000000161080   493 FUNC    WEAK   DEFAULT   12 _ZNSt6vectorIPN3fst11VectorStateINS0_10ReverseArcINS0_6ArcTplINS0_23CompactLatticeWeightTplINS0_16LatticeWeightTplIfEEiEEEEEESaIS9_EEESaISC_EE17_M_default_appendEm
  1234: 0000000000109880   119 FUNC    WEAK   DEFAULT   12 _ZN3fst18ShortestFirstQueueIiNS_8internal18StateWeightCompareIiNS_11NaturalLessINS_23CompactLatticeWeightTplINS_16LatticeWeightTplIfEEiEEEEEELb0EED0Ev
  1235: 0000000000135770   258 FUNC    WEAK   DEFAULT   12 _ZN3fst16ImplToMutableFstINS_8internal13VectorFstImplINS_11VectorStateINS_6ArcTplINS_16LatticeWeightTplIfEEEESaIS7_EEEEENS_10MutableFstIS7_EEE8SetStartEi
  1236: 0000000000201f80    89 OBJECT  WEAK   DEFAULT   14 _ZTSN3fst22MutableArcIteratorBaseINS_10ReverseArcINS_6ArcTplINS_16LatticeWeightTplIfEEEEEEEE
  1237: 0000000000204800   104 OBJECT  WEAK   DEFAULT   14 _ZTSN3fst9VectorFstINS_10ReverseArcINS_6ArcTplINS_16LatticeWeightTplIfEEEEEENS_11VectorStateIS6_SaIS6_EEEEE
  1238: 00000000000ff1f0    21 FUNC    WEAK   DEFAULT   12 _ZNK3fst17ImplToExpandedFstINS_8internal13VectorFstImplINS_11VectorStateINS_6ArcTplINS_17TropicalWeightTplIfEEEESaIS7_EEEEENS_10MutableFstIS7_EEE9NumStatesEv
  1239: 0000000000107fd0    55 FUNC    WEAK   DEFAULT   12 _ZN3fst15StateOrderQueueIiED1Ev
  1240: 0000000000205080    66 OBJECT  WEAK   DEFAULT   14 _ZTSN3fst17StateIteratorBaseINS_6ArcTplINS_16LatticeWeightTplIfEEEEEE
  1241: 0000000000244b30    88 OBJECT  WEAK   DEFAULT   21 _ZTVN3fst8internal14ComposeFstImplINS_17DefaultCacheStoreINS_6ArcTplINS_16LatticeWeightTplIfEEEEEENS_22LookAheadComposeFilterINS_21SequenceComposeFilterINS_16LookAheadMatcherINS_3FstIS6_EEEESD_EESD_SD_LNS_9MatchTypeE3EEENS_24GenericComposeStateTableIS6_NS_18IntegerFilterStateIaEENS_24DefaultComposeStateTupleIiSJ_EENS_21CompactHashStateTableISL_NS_11ComposeHashISL_EEEEEEEE
  1242: 000000000017b660   299 FUNC    WEAK   DEFAULT   12 _ZN3fst9VectorFstINS_6ArcTplINS_23CompactLatticeWeightTplINS_16LatticeWeightTplIfEEiEEEENS_11VectorStateIS6_SaIS6_EEEE22InitMutableArcIteratorEiPNS_22MutableArcIteratorDataIS6_EE
  1243: 00000000000fde90     1 FUNC    WEAK   DEFAULT   12 _ZNSt23_Sp_counted_ptr_inplaceIN3fst8internal13VectorFstImplINS0_11VectorStateINS0_6ArcTplINS0_16LatticeWeightTplIfEEEESaIS7_EEEEESaIvELN9__gnu_cxx12_Lock_policyE2EED2Ev
  1244: 00000000001d20f0    10 FUNC    WEAK   DEFAULT   12 _ZNSt15_Sp_counted_ptrIPN3fst8internal22DeterminizeFstImplBaseINS0_10ReverseArcINS0_6ArcTplINS0_17TropicalWeightTplIfEEEEEEEELN9__gnu_cxx12_Lock_policyE2EE10_M_destroyEv
  1245: 00000000001d1960   113 FUNC    WEAK   DEFAULT   12 _ZN3fst17ComposeFstMatcherINS_17DefaultCacheStoreINS_6ArcTplINS_17TropicalWeightTplIfEEEEEENS_24AltSequenceComposeFilterINS_7MatcherINS_3FstIS5_EEEESB_EENS_24GenericComposeStateTableIS5_NS_18IntegerFilterStateIaEENS_24DefaultComposeStateTupleIiSF_EENS_21CompactHashStateTableISH_NS_11ComposeHashISH_EEEEEEE8SetStateEi
  1246: 00000000001953a0   873 FUNC    WEAK   DEFAULT   12 _ZN3fst8internal22DeterminizeFstImplBaseINS_10ReverseArcINS_6ArcTplINS_16LatticeWeightTplIfEEEEEEEC1ERKS8_
  1247: 0000000000245a08    24 OBJECT  WEAK   DEFAULT   21 _ZTIN3fst10MatcherFstINS_8ConstFstINS_6ArcTplINS_17TropicalWeightTplIfEEEEjEENS_21LabelLookAheadMatcherINS_13SortedMatcherIS6_EELj1760ENS_18FastLogAccumulatorIS5_EENS_14LabelReachableIS5_SB_NS_18LabelReachableDataIiEEEEEEXadL_ZNS_25olabel_lookahead_fst_typeEEENS_23LabelLookAheadRelabelerIS5_SE_EENS_9AddOnPairISE_SE_EEEE
  1248: 00000000000fdcc0     1 FUNC    WEAK   DEFAULT   12 _ZNSt23_Sp_counted_ptr_inplaceIN3fst8internal14ComposeFstImplINS0_17DefaultCacheStoreINS0_6ArcTplINS0_17TropicalWeightTplIfEEEEEENS0_21SequenceComposeFilterINS0_7MatcherINS0_3FstIS7_EEEESD_EENS0_24GenericComposeStateTableIS7_NS0_18IntegerFilterStateIaEENS0_24DefaultComposeStateTupleIiSH_EENS0_21CompactHashStateTableISJ_NS0_11ComposeHashISJ_EEEEEEEESaIvELN9__gnu_cxx12_Lock_policyE2EED2Ev
  1249: 0000000000246a10    64 OBJECT  WEAK   DEFAULT   21 _ZTVN3fst18CacheStateIteratorINS_14DeterminizeFstINS_10ReverseArcINS_6ArcTplINS_17TropicalWeightTplIfEEEEEEEEEE
  1250: 00000000001d2780    10 FUNC    WEAK   DEFAULT   12 _ZNSt23_Sp_counted_ptr_inplaceIN3fst8internal14ComposeFstImplINS0_17DefaultCacheStoreINS0_6ArcTplINS0_17TropicalWeightTplIfEEEEEENS0_24AltSequenceComposeFilterINS0_7MatcherINS0_3FstIS7_EEEESD_EENS0_24GenericComposeStateTableIS7_NS0_18IntegerFilterStateIaEENS0_24DefaultComposeStateTupleIiSH_EENS0_21CompactHashStateTableISJ_NS0_11ComposeHashISJ_EEEEEEEESaIvELN9__gnu_cxx12_Lock_policyE2EE10_M_destroyEv
  1251: 00000000001205a0   722 FUNC    WEAK   DEFAULT   12 _ZN3fst11make_uniqueINS_13SortedMatcherINS_3FstINS_6ArcTplINS_17TropicalWeightTplIfEEEEEEEEJPKS7_RNS_9MatchTypeEEEESt10unique_ptrIT_St14default_deleteISE_EEDpOT0_
  1252: 00000000001d46a0   173 FUNC    WEAK   DEFAULT   12 _ZN3fst17ComposeFstMatcherINS_17DefaultCacheStoreINS_6ArcTplINS_17TropicalWeightTplIfEEEEEENS_20TrivialComposeFilterINS_7MatcherINS_3FstIS5_EEEESB_EENS_24GenericComposeStateTableIS5_NS_18TrivialFilterStateENS_24DefaultComposeStateTupleIiSE_EENS_21CompactHashStateTableISG_NS_11ComposeHashISG_EEEEEEED2Ev
  1253: 0000000000241c70    24 OBJECT  WEAK   DEFAULT   21 _ZTIN3fst10MemoryPoolINS_13PoolAllocatorINS_10ReverseArcINS_6ArcTplINS_16LatticeWeightTplIfEEEEEEE2TNILi8EEEEE
  1254: 000000000014fc00  3066 FUNC    WEAK   DEFAULT   12 _ZN3fst8internal17ComputePropertiesINS_6ArcTplINS_23CompactLatticeWeightTplINS_16LatticeWeightTplIfEEiEEEEEEmRKNS_3FstIT_EEmPm
  1255: 000000000023ff28    24 OBJECT  WEAK   DEFAULT   21 _ZTIN3fst17ComposeFstMatcherINS_17DefaultCacheStoreINS_6ArcTplINS_16LatticeWeightTplIfEEEEEENS_24AltSequenceComposeFilterINS_7MatcherINS_3FstIS5_EEEESB_EENS_24GenericComposeStateTableIS5_NS_18IntegerFilterStateIaEENS_24DefaultComposeStateTupleIiSF_EENS_21CompactHashStateTableISH_NS_11ComposeHashISH_EEEEEEEE
  1256: 0000000000101c30    10 FUNC    WEAK   DEFAULT   12 _ZN3fst13StateIteratorINS_10ComposeFstINS_6ArcTplINS_16LatticeWeightTplIfEEEENS_17DefaultCacheStoreIS5_EEEEED0Ev
  1257: 0000000000242648   312 OBJECT  WEAK   DEFAULT   21 _ZTVN3fst16ImplToMutableFstINS_8internal13VectorFstImplINS_11VectorStateINS_6ArcTplINS_23CompactLatticeWeightTplINS_16LatticeWeightTplIfEEiEEEESaIS9_EEEEENS_10MutableFstIS9_EEEE
  1258: 00000000001a7e20     3 FUNC    WEAK   DEFAULT   12 _ZNSt15_Sp_counted_ptrIPN3fst9AddOnPairINS0_18LabelReachableDataIiEES3_EELN9__gnu_cxx12_Lock_policyE2EE14_M_get_deleterERKSt9type_info
  1259: 000000000010ad40   117 FUNC    WEAK   DEFAULT   12 _ZN3fst10MemoryPoolINS_13PoolAllocatorINS_6ArcTplINS_16LatticeWeightTplIfEEEEE2TNILi1EEEED2Ev
  1260: 00000000001dd060  1224 FUNC    WEAK   DEFAULT   12 _ZN3fst8internal14ComposeFstImplINS_17DefaultCacheStoreINS_6ArcTplINS_17TropicalWeightTplIfEEEEEENS_20NoMatchComposeFilterINS_7MatcherINS_3FstIS6_EEEESC_EENS_24GenericComposeStateTableIS6_NS_18TrivialFilterStateENS_24DefaultComposeStateTupleIiSF_EENS_21CompactHashStateTableISH_NS_11ComposeHashISH_EEEEEEE12SetMatchTypeEv
  1261: 000000000010d8d0   473 FUNC    WEAK   DEFAULT   12 _ZN5kaldi16MinimumBayesRiskD1Ev
  1262: 0000000000138df0   398 FUNC    WEAK   DEFAULT   12 _ZNSt6vectorISt10unique_ptrIN3fst14MemoryPoolBaseESt14default_deleteIS2_EESaIS5_EE17_M_default_appendEm
  1263: 0000000000159ea0  4578 FUNC    WEAK   DEFAULT   12 _ZN3fst8internal21ShortestDistanceStateINS_10ReverseArcINS_6ArcTplINS_23CompactLatticeWeightTplINS_16LatticeWeightTplIfEEiEEEEEENS_9AutoQueueIiEENS_12AnyArcFilterIS9_EENS_17WeightApproxEqualEE16ShortestDistanceEi
  1264: 0000000000241548    24 OBJECT  WEAK   DEFAULT   21 _ZTISt23_Sp_counted_ptr_inplaceIN3fst8internal13VectorFstImplINS0_11VectorStateINS0_6ArcTplINS0_16LatticeWeightTplIfEEEESaIS7_EEEEESaIvELN9__gnu_cxx12_Lock_policyE2EE
  1265: 00000000001e1a50   201 FUNC    WEAK   DEFAULT   12 _ZNSt23_Sp_counted_ptr_inplaceIN3fst8internal14ComposeFstImplINS0_17DefaultCacheStoreINS0_6ArcTplINS0_17TropicalWeightTplIfEEEEEENS0_17NullComposeFilterINS0_7MatcherINS0_3FstIS7_EEEESD_EENS0_24GenericComposeStateTableIS7_NS0_18TrivialFilterStateENS0_24DefaultComposeStateTupleIiSG_EENS0_21CompactHashStateTableISI_NS0_11ComposeHashISI_EEEEEEEESaIvELN9__gnu_cxx12_Lock_policyE2EE10_M_disposeEv
  1266: 00000000000fee50    10 FUNC    WEAK   DEFAULT   12 _ZNK3fst9ImplToFstINS_8internal13VectorFstImplINS_11VectorStateINS_6ArcTplINS_16LatticeWeightTplIfEEEESaIS7_EEEEENS_10MutableFstIS7_EEE5StartEv
  1267: 000000000020bb40    83 OBJECT  WEAK   DEFAULT   14 _ZTSN3fst8internal7FstImplINS_10ReverseArcINS_6ArcTplINS_17TropicalWeightTplIfEEEEEEEE
  1268: 00000000000fdbd0     6 FUNC    WEAK   DEFAULT   12 _ZNK3fst8internal15MemoryArenaImplILm520EE4SizeEv
  1269: 00000000001a83a0     6 FUNC    WEAK   DEFAULT   12 _ZNK3fst15NGramFstMatcherINS_6ArcTplINS_17TropicalWeightTplIfEEEEE4TypeEb
  1270: 00000000001a85b0    96 FUNC    WEAK   DEFAULT   12 _ZNK3fst9ImplToFstINS_8internal12NGramFstImplINS_6ArcTplINS_17TropicalWeightTplIfEEEEEENS_11ExpandedFstIS6_EEE5FinalEi
  1271: 00000000001a8d80    10 FUNC    WEAK   DEFAULT   12 _ZNSt23_Sp_counted_ptr_inplaceIN3fst8internal12NGramFstImplINS0_6ArcTplINS0_17TropicalWeightTplIfEEEEEESaIvELN9__gnu_cxx12_Lock_policyE2EE10_M_destroyEv
  1272: 00000000000fed80    11 FUNC    WEAK   DEFAULT   12 _ZNK3fst9ImplToFstINS_8internal18ComposeFstImplBaseINS_6ArcTplINS_17TropicalWeightTplIfEEEENS_17DefaultCacheStoreIS6_EENS_10ComposeFstIS6_S8_EEEENS_3FstIS6_EEE4TypeB5cxx11Ev
  1273: 0000000000115620   187 FUNC    WEAK   DEFAULT   12 _ZN3fst10SccVisitorINS_6ArcTplINS_23CompactLatticeWeightTplINS_16LatticeWeightTplIfEEiEEEEED2Ev
  1274: 0000000000109450   115 FUNC    WEAK   DEFAULT   12 _ZN3fst9LifoQueueIiED2Ev
  1275: 0000000000240c70    16 OBJECT  WEAK   DEFAULT   21 _ZTIN3fst3FstINS_6ArcTplINS_23CompactLatticeWeightTplINS_16LatticeWeightTplIfEEiEEEEEE
  1276: 0000000000242510   312 OBJECT  WEAK   DEFAULT   21 _ZTVN3fst17ImplToExpandedFstINS_8internal13VectorFstImplINS_11VectorStateINS_6ArcTplINS_23CompactLatticeWeightTplINS_16LatticeWeightTplIfEEiEEEESaIS9_EEEEENS_10MutableFstIS9_EEEE
  1277: 000000000024b050     8 OBJECT  <OS specific>: 10 DEFAULT   25 _ZZN3fst6ArcTplINS_16LatticeWeightTplIfEEE4TypeB5cxx11EvE4type
  1278: 0000000000241778    24 OBJECT  WEAK   DEFAULT   21 _ZTIN3fst8internal15MemoryArenaImplILm16EEE
  1279: 000000000018e3d0   845 FUNC    WEAK   DEFAULT   12 _ZN3fst8internal14ComposeFstImplINS_17DefaultCacheStoreINS_6ArcTplINS_16LatticeWeightTplIfEEEEEENS_22LookAheadComposeFilterINS_24AltSequenceComposeFilterINS_16LookAheadMatcherINS_3FstIS6_EEEESD_EESD_SD_LNS_9MatchTypeE3EEENS_24GenericComposeStateTableIS6_NS_18IntegerFilterStateIaEENS_24DefaultComposeStateTupleIiSJ_EENS_21CompactHashStateTableISL_NS_11ComposeHashISL_EEEEEEE6ExpandEi
  1280: 0000000000115f80   450 FUNC    WEAK   DEFAULT   12 _ZN3fst5TimesINS_16LatticeWeightTplIfEEiEENS_23CompactLatticeWeightTplIT_T0_EERKS6_S8_
  1281: 00000000001d0c70     1 FUNC    WEAK   DEFAULT   12 _ZNSt23_Sp_counted_ptr_inplaceIN3fst8internal14ComposeFstImplINS0_17DefaultCacheStoreINS0_6ArcTplINS0_17TropicalWeightTplIfEEEEEENS0_18MatchComposeFilterINS0_7MatcherINS0_3FstIS7_EEEESD_EENS0_24GenericComposeStateTableIS7_NS0_18IntegerFilterStateIaEENS0_24DefaultComposeStateTupleIiSH_EENS0_21CompactHashStateTableISJ_NS0_11ComposeHashISJ_EEEEEEEESaIvELN9__gnu_cxx12_Lock_policyE2EED1Ev
  1282: 00000000001ed530     5 FUNC    WEAK   DEFAULT   12 _ZNK3fst9VectorFstINS_10ReverseArcINS_6ArcTplINS_17TropicalWeightTplIfEEEEEENS_11VectorStateIS6_SaIS6_EEEE5WriteERSoRKNS_15FstWriteOptionsE
  1283: 0000000000100e60    17 FUNC    WEAK   DEFAULT   12 _ZNK3fst17ComposeFstMatcherINS_17DefaultCacheStoreINS_6ArcTplINS_16LatticeWeightTplIfEEEEEENS_18MatchComposeFilterINS_7MatcherINS_3FstIS5_EEEESB_EENS_24GenericComposeStateTableIS5_NS_18IntegerFilterStateIaEENS_24DefaultComposeStateTupleIiSF_EENS_21CompactHashStateTableISH_NS_11ComposeHashISH_EEEEEEE5ValueEv
  1284: 00000000001d5340   362 FUNC    WEAK   DEFAULT   12 _ZN3fst8internal17VectorFstBaseImplINS_11VectorStateINS_10ReverseArcINS_6ArcTplINS_17TropicalWeightTplIfEEEEEESaIS8_EEEED0Ev
  1285: 00000000000e4300    12 FUNC    GLOBAL DEFAULT   12 _ZN10Recognizer8SetWordsEb
  1286: 000000000013c160    19 FUNC    WEAK   DEFAULT   12 _ZN3fst8internal9CacheImplINS_6ArcTplINS_16LatticeWeightTplIfEEEEED1Ev
  1287: 00000000001a8410     6 FUNC    WEAK   DEFAULT   12 _ZNK3fst15NGramFstMatcherINS_6ArcTplINS_17TropicalWeightTplIfEEEEE10PropertiesEm
  1288: 0000000000100210    28 FUNC    WEAK   DEFAULT   12 _ZNK3fst18MutableArcIteratorINS_9VectorFstINS_6ArcTplINS_17TropicalWeightTplIfEEEENS_11VectorStateIS5_SaIS5_EEEEEE4DoneEv
  1289: 0000000000209ee0    50 OBJECT  WEAK   DEFAULT   14 _ZTSSt14default_deleteIN3fst18LabelReachableDataIiEEE
  1290: 00000000001b9d20    99 FUNC    WEAK   DEFAULT   12 _ZNSt11_Deque_baseISt4pairIiiESaIS1_EED1Ev
  1291: 0000000000246bf0    24 OBJECT  WEAK   DEFAULT   21 _ZTIN3fst9ImplToFstINS_8internal13VectorFstImplINS_11VectorStateINS_10ReverseArcINS_6ArcTplINS_17TropicalWeightTplIfEEEEEESaIS9_EEEEENS_10MutableFstIS9_EEEE
  1292: 0000000000246bb0    16 OBJECT  WEAK   DEFAULT   21 _ZTIN3fst3FstINS_10ReverseArcINS_6ArcTplINS_17TropicalWeightTplIfEEEEEEEE
  1293: 000000000010f440   362 FUNC    WEAK   DEFAULT   12 _ZN3fst8internal17VectorFstBaseImplINS_11VectorStateINS_6ArcTplINS_16LatticeWeightTplIfEEEESaIS6_EEEED0Ev
  1294: 0000000000244650   312 OBJECT  WEAK   DEFAULT   21 _ZTVN3fst17ImplToExpandedFstINS_8internal13VectorFstImplINS_11VectorStateINS_10ReverseArcINS_6ArcTplINS_23CompactLatticeWeightTplINS_16LatticeWeightTplIfEEiEEEEEESaISB_EEEEENS_10MutableFstISB_EEEE
  1295: 000000000015f220   312 FUNC    WEAK   DEFAULT   12 _ZN3fst8internal7FstImplINS_6ArcTplINS_23CompactLatticeWeightTplINS_16LatticeWeightTplIfEEiEEEEE14WriteFstHeaderERKNS_3FstIS7_EERSoRKNS_15FstWriteOptionsEiRKNSt7__cxx1112basic_stringIcSt11char_traitsIcESaIcEEEmPNS_9FstHeaderE
  1296: 0000000000240fb0    24 OBJECT  WEAK   DEFAULT   21 _ZTIN3fst15StateOrderQueueIiEE
  1297: 0000000000137610   309 FUNC    WEAK   DEFAULT   12 _ZNK3fst8internal14ComposeFstImplINS_17DefaultCacheStoreINS_6ArcTplINS_16LatticeWeightTplIfEEEEEENS_22LookAheadComposeFilterINS_21SequenceComposeFilterINS_16LookAheadMatcherINS_3FstIS6_EEEESD_EESD_SD_LNS_9MatchTypeE3EEENS_24GenericComposeStateTableIS6_NS_18IntegerFilterStateIaEENS_24DefaultComposeStateTupleIiSJ_EENS_21CompactHashStateTableISL_NS_11ComposeHashISL_EEEEEEE11InitMatcherERKNS_10ComposeFstIS6_S7_EESF_
  1298: 0000000000240f50    24 OBJECT  WEAK   DEFAULT   21 _ZTIN3fst8internal18ComposeFstImplBaseINS_6ArcTplINS_16LatticeWeightTplIfEEEENS_17DefaultCacheStoreIS5_EENS_10ComposeFstIS5_S7_EEEE
  1299: 00000000001108f0   451 FUNC    WEAK   DEFAULT   12 _ZN3fst8internal17VectorFstBaseImplINS_11VectorStateINS_10ReverseArcINS_6ArcTplINS_23CompactLatticeWeightTplINS_16LatticeWeightTplIfEEiEEEEEESaISA_EEEED0Ev
  1300: 00000000001019e0    17 FUNC    WEAK   DEFAULT   12 _ZNK3fst17ComposeFstMatcherINS_17DefaultCacheStoreINS_6ArcTplINS_16LatticeWeightTplIfEEEEEENS_22LookAheadComposeFilterINS_21SequenceComposeFilterINS_16LookAheadMatcherINS_3FstIS5_EEEESC_EESC_SC_LNS_9MatchTypeE3EEENS_24GenericComposeStateTableIS5_NS_18IntegerFilterStateIaEENS_24DefaultComposeStateTupleIiSI_EENS_21CompactHashStateTableISK_NS_11ComposeHashISK_EEEEEEE5ValueEv
  1301: 0000000000199fa0   140 FUNC    GLOBAL DEFAULT   12 _ZN22LanguageModelEstimator15AssignFstStatesEv
  1302: 00000000001096b0   120 FUNC    WEAK   DEFAULT   12 _ZN3fst18ShortestFirstQueueIiNS_8internal18StateWeightCompareIiNS_11NaturalLessINS_16LatticeWeightTplIfEEEEEELb0EED1Ev
  1303: 000000000016fa60   144 FUNC    WEAK   DEFAULT   12 _ZN3fst16ImplToMutableFstINS_8internal13VectorFstImplINS_11VectorStateINS_10ReverseArcINS_6ArcTplINS_16LatticeWeightTplIfEEEEEESaIS9_EEEEENS_10MutableFstIS9_EEE11MutateCheckEv
  1304: 0000000000104680    10 FUNC    WEAK   DEFAULT   12 _ZNSt23_Sp_counted_ptr_inplaceIN3fst8internal14ComposeFstImplINS0_17DefaultCacheStoreINS0_6ArcTplINS0_16LatticeWeightTplIfEEEEEENS0_20NoMatchComposeFilterINS0_7MatcherINS0_3FstIS7_EEEESD_EENS0_24GenericComposeStateTableIS7_NS0_18TrivialFilterStateENS0_24DefaultComposeStateTupleIiSG_EENS0_21CompactHashStateTableISI_NS0_11ComposeHashISI_EEEEEEEESaIvELN9__gnu_cxx12_Lock_policyE2EE10_M_destroyEv
  1305: 0000000000240bb8    24 OBJECT  WEAK   DEFAULT   21 _ZTIN3fst10MutableFstINS_6ArcTplINS_17TropicalWeightTplIfEEEEEE
  1306: 0000000000164c50   600 FUNC    WEAK   DEFAULT   12 _ZN3fst10SccVisitorINS_10ReverseArcINS_6ArcTplINS_16LatticeWeightTplIfEEEEEEE11FinishVisitEv
  1307: 0000000000240ba0    24 OBJECT  WEAK   DEFAULT   21 _ZTIN3fst8internal13VectorFstImplINS_11VectorStateINS_6ArcTplINS_17TropicalWeightTplIfEEEESaIS6_EEEEE
  1308: 00000000000e4480   418 FUNC    GLOBAL DEFAULT   12 _ZN10Recognizer14AcceptWaveformEPKci
  1309: 000000000013c390   160 FUNC    WEAK   DEFAULT   12 _ZN3fst8internal14ComposeFstImplINS_17DefaultCacheStoreINS_6ArcTplINS_16LatticeWeightTplIfEEEEEENS_18MatchComposeFilterINS_7MatcherINS_3FstIS6_EEEESC_EENS_24GenericComposeStateTableIS6_NS_18IntegerFilterStateIaEENS_24DefaultComposeStateTupleIiSG_EENS_21CompactHashStateTableISI_NS_11ComposeHashISI_EEEEEEED1Ev
  1310: 0000000000240010    24 OBJECT  WEAK   DEFAULT   21 _ZTIN3fst18CacheStateIteratorINS_10ComposeFstINS_6ArcTplINS_17TropicalWeightTplIfEEEENS_17DefaultCacheStoreIS5_EEEEEE
  1311: 0000000000174de0   359 FUNC    WEAK   DEFAULT   12 _ZN3fst10MutableFstINS_6ArcTplINS_23CompactLatticeWeightTplINS_16LatticeWeightTplIfEEiEEEEE6AddArcEiOS6_
  1312: 00000000000fdb70     6 FUNC    WEAK   DEFAULT   12 _ZNK3fst8internal15MemoryArenaImplILm328EE4SizeEv
  1313: 0000000000132ef0   125 FUNC    WEAK   DEFAULT   12 _ZN3fst17ComposeFstMatcherINS_17DefaultCacheStoreINS_6ArcTplINS_16LatticeWeightTplIfEEEEEENS_17NullComposeFilterINS_7MatcherINS_3FstIS5_EEEESB_EENS_24GenericComposeStateTableIS5_NS_18TrivialFilterStateENS_24DefaultComposeStateTupleIiSE_EENS_21CompactHashStateTableISG_NS_11ComposeHashISG_EEEEEEED2Ev
  1314: 00000000001e49c0   588 FUNC    WEAK   DEFAULT   12 _ZNK3fst17ComposeFstMatcherINS_17DefaultCacheStoreINS_6ArcTplINS_17TropicalWeightTplIfEEEEEENS_20TrivialComposeFilterINS_7MatcherINS_3FstIS5_EEEESB_EENS_24GenericComposeStateTableIS5_NS_18TrivialFilterStateENS_24DefaultComposeStateTupleIiSE_EENS_21CompactHashStateTableISG_NS_11ComposeHashISG_EEEEEEE4CopyEb
  1315: 00000000001a8400     7 FUNC    WEAK   DEFAULT   12 _ZNK3fst15NGramFstMatcherINS_6ArcTplINS_17TropicalWeightTplIfEEEEE6GetFstEv
  1316: 00000000000fdd10     1 FUNC    WEAK   DEFAULT   12 _ZNSt23_Sp_counted_ptr_inplaceIN3fst8internal14ComposeFstImplINS0_17DefaultCacheStoreINS0_6ArcTplINS0_16LatticeWeightTplIfEEEEEENS0_21SequenceComposeFilterINS0_7MatcherINS0_3FstIS7_EEEESD_EENS0_24GenericComposeStateTableIS7_NS0_18IntegerFilterStateIaEENS0_24DefaultComposeStateTupleIiSH_EENS0_21CompactHashStateTableISJ_NS0_11ComposeHashISJ_EEEEEEEESaIvELN9__gnu_cxx12_Lock_policyE2EED1Ev
  1317: 0000000000145400   375 FUNC    WEAK   DEFAULT   12 _ZN3fst8internal9CacheImplINS_10ReverseArcINS_6ArcTplINS_16LatticeWeightTplIfEEEEEEED1Ev
  1318: 00000000001e8110   338 FUNC    WEAK   DEFAULT   12 _ZN3fst16ImplToMutableFstINS_8internal13VectorFstImplINS_11VectorStateINS_10ReverseArcINS_6ArcTplINS_17TropicalWeightTplIfEEEEEESaIS9_EEEEENS_10MutableFstIS9_EEE13ReserveStatesEm
  1319: 00000000001072f0    53 FUNC    WEAK   DEFAULT   12 _ZN3fst8SccQueueIiNS_9QueueBaseIiEEED0Ev
  1320: 0000000000181630  2543 FUNC    WEAK   DEFAULT   12 _ZNK3fst8internal14ComposeFstImplINS_17DefaultCacheStoreINS_6ArcTplINS_17TropicalWeightTplIfEEEEEENS_23PushLabelsComposeFilterINS_24PushWeightsComposeFilterINS_22LookAheadComposeFilterINS_24AltSequenceComposeFilterINS_16LookAheadMatcherINS_3FstIS6_EEEESF_EESF_SF_LNS_9MatchTypeE3EEESF_SF_LSH_3EEESF_SF_LSH_3EEENS_24GenericComposeStateTableIS6_NS_15PairFilterStateINSM_INS_18IntegerFilterStateIaEENS_17WeightFilterStateIS5_EEEENSN_IiEEEENS_24DefaultComposeStateTupleIiST_EENS_21CompactHashStateTableISV_NS_11ComposeHashISV_EEEEEEE4CopyEv
  1321: 00000000001d54b0   362 FUNC    WEAK   DEFAULT   12 _ZN3fst8internal13VectorFstImplINS_11VectorStateINS_10ReverseArcINS_6ArcTplINS_17TropicalWeightTplIfEEEEEESaIS8_EEEED0Ev
  1322: 00000000002435b0    80 OBJECT  WEAK   DEFAULT   21 _ZTVN3fst13TopOrderQueueIiEE
  1323: 00000000001153b0    67 FUNC    WEAK   DEFAULT   12 _ZNSt13_Bvector_baseISaIbEE13_M_deallocateEv
  1324: 000000000016bdb0  9027 FUNC    WEAK   DEFAULT   12 _ZN3fst16ShortestDistanceINS_6ArcTplINS_23CompactLatticeWeightTplINS_16LatticeWeightTplIfEEiEEEEEEvRKNS_3FstIT_EEPSt6vectorINS8_6WeightESaISD_EEbf
  1325: 0000000000100170     1 FUNC    WEAK   DEFAULT   12 _ZNSt15_Sp_counted_ptrIPN3fst8internal22DeterminizeFstImplBaseINS0_10ReverseArcINS0_6ArcTplINS0_16LatticeWeightTplIfEEEEEEEELN9__gnu_cxx12_Lock_policyE2EED2Ev
  1326: 0000000000116750    94 FUNC    WEAK   DEFAULT   12 _ZN3fst11ArcIteratorINS_3FstINS_6ArcTplINS_17TropicalWeightTplIfEEEEEEEC1ERKS6_i
  1327: 0000000000244f48    40 OBJECT  WEAK   DEFAULT   21 _ZTVN3fst8internal15MemoryArenaImplILm24EEE
  1328: 0000000000241d20    48 OBJECT  WEAK   DEFAULT   21 _ZTVN3fst8internal7FstImplINS_6ArcTplINS_17TropicalWeightTplIfEEEEEE
  1329: 000000000016fb90   150 FUNC    WEAK   DEFAULT   12 _ZN3fst16ImplToMutableFstINS_8internal13VectorFstImplINS_11VectorStateINS_10ReverseArcINS_6ArcTplINS_16LatticeWeightTplIfEEEEEESaIS9_EEEEENS_10MutableFstIS9_EEE20MutableOutputSymbolsEv
  1330: 00000000001b99c0   389 FUNC    WEAK   DEFAULT   12 _ZNSt6vectorIlSaIlEE17_M_realloc_insertIJlEEEvN9__gnu_cxx17__normal_iteratorIPlS1_EEDpOT_
  1331: 00000000001ac480   347 FUNC    WEAK   DEFAULT   12 _ZN5kaldi5nnet34NnetD2Ev
  1332: 00000000000fe270   356 FUNC    WEAK   DEFAULT   12 _ZN3fst8internal14ComposeFstImplINS_17DefaultCacheStoreINS_6ArcTplINS_16LatticeWeightTplIfEEEEEENS_20NoMatchComposeFilterINS_7MatcherINS_3FstIS6_EEEESC_EENS_24GenericComposeStateTableIS6_NS_18TrivialFilterStateENS_24DefaultComposeStateTupleIiSF_EENS_21CompactHashStateTableISH_NS_11ComposeHashISH_EEEEEEE12ComputeFinalEi
  1333: 00000000001d0f90    34 FUNC    WEAK   DEFAULT   12 _ZNK3fst9ImplToFstINS_8internal13VectorFstImplINS_11VectorStateINS_10ReverseArcINS_6ArcTplINS_17TropicalWeightTplIfEEEEEESaIS9_EEEEENS_10MutableFstIS9_EEE7NumArcsEi
  1334: 0000000000244be8    56 OBJECT  WEAK   DEFAULT   21 _ZTVSt23_Sp_counted_ptr_inplaceIN3fst8internal13VectorFstImplINS0_11VectorStateINS0_10ReverseArcINS0_6ArcTplINS0_16LatticeWeightTplIfEEEEEESaIS9_EEEEESaIvELN9__gnu_cxx12_Lock_policyE2EE
  1335: 00000000001edf60   296 FUNC    WEAK   DEFAULT   12 _ZN3fst8internal14ComposeFstImplINS_17DefaultCacheStoreINS_6ArcTplINS_17TropicalWeightTplIfEEEEEENS_24AltSequenceComposeFilterINS_7MatcherINS_3FstIS6_EEEESC_EENS_24GenericComposeStateTableIS6_NS_18IntegerFilterStateIaEENS_24DefaultComposeStateTupleIiSG_EENS_21CompactHashStateTableISI_NS_11ComposeHashISI_EEEEEEE12ComputeStartEv
  1336: 00000000001d4800   161 FUNC    WEAK   DEFAULT   12 _ZN3fst17ComposeFstMatcherINS_17DefaultCacheStoreINS_6ArcTplINS_17TropicalWeightTplIfEEEEEENS_24AltSequenceComposeFilterINS_7MatcherINS_3FstIS5_EEEESB_EENS_24GenericComposeStateTableIS5_NS_18IntegerFilterStateIaEENS_24DefaultComposeStateTupleIiSF_EENS_21CompactHashStateTableISH_NS_11ComposeHashISH_EEEEEEED0Ev
  1337: 0000000000193cb0  1145 FUNC    WEAK   DEFAULT   12 _ZNK3fst8internal14ComposeFstImplINS_17DefaultCacheStoreINS_6ArcTplINS_16LatticeWeightTplIfEEEEEENS_20TrivialComposeFilterINS_7MatcherINS_3FstIS6_EEEESC_EENS_24GenericComposeStateTableIS6_NS_18TrivialFilterStateENS_24DefaultComposeStateTupleIiSF_EENS_21CompactHashStateTableISH_NS_11ComposeHashISH_EEEEEEE4CopyEv
  1338: 00000000001122a0   135 FUNC    WEAK   DEFAULT   12 _ZNSt10_HashtableIiiSaIiENSt8__detail9_IdentityESt8equal_toIiESt4hashIiENS1_18_Mod_range_hashingENS1_20_Default_ranged_hashENS1_20_Prime_rehash_policyENS1_17_Hashtable_traitsILb0ELb1ELb1EEEED2Ev
  1339: 00000000001000f0    37 FUNC    WEAK   DEFAULT   12 _ZN3fst13StateIteratorINS_9ArcMapFstINS_6ArcTplINS_17TropicalWeightTplIfEEEES5_NS_28RemoveSomeInputSymbolsMapperIS5_iEEEEED1Ev
  1340: 00000000001e5550   187 FUNC    WEAK   DEFAULT   12 _ZN3fst10SccVisitorINS_10ReverseArcINS_6ArcTplINS_17TropicalWeightTplIfEEEEEEED2Ev
  1341: 0000000000154190  7856 FUNC    WEAK   DEFAULT   12 _ZN3fst9AutoQueueIiEC1INS_6ArcTplINS_23CompactLatticeWeightTplINS_16LatticeWeightTplIfEEiEEEENS_12AnyArcFilterIS8_EEEERKNS_3FstIT_EEPKSt6vectorINSC_6WeightESaISH_EET0_
  1342: 00000000001db5e0  1522 FUNC    WEAK   DEFAULT   12 _ZN3fst8internal13VectorFstImplINS_11VectorStateINS_6ArcTplINS_17TropicalWeightTplIfEEEESaIS6_EEEE4ReadERSiRKNS_14FstReadOptionsE
  1343: 0000000000100e10    70 FUNC    WEAK   DEFAULT   12 _ZNK3fst17ComposeFstMatcherINS_17DefaultCacheStoreINS_6ArcTplINS_16LatticeWeightTplIfEEEEEENS_18MatchComposeFilterINS_7MatcherINS_3FstIS5_EEEESB_EENS_24GenericComposeStateTableIS5_NS_18IntegerFilterStateIaEENS_24DefaultComposeStateTupleIiSF_EENS_21CompactHashStateTableISH_NS_11ComposeHashISH_EEEEEEE4DoneEv
  1344: 00000000001b5260   209 FUNC    WEAK   DEFAULT   12 _ZN3fst21LabelLookAheadMatcherINS_13SortedMatcherINS_8ConstFstINS_6ArcTplINS_17TropicalWeightTplIfEEEEjEEEELj1760ENS_18FastLogAccumulatorIS6_EENS_14LabelReachableIS6_SA_NS_18LabelReachableDataIiEEEEED2Ev
  1345: 00000000001d0f50     3 FUNC    WEAK   DEFAULT   12 _ZNK3fst3FstINS_10ReverseArcINS_6ArcTplINS_17TropicalWeightTplIfEEEEEEE11InitMatcherENS_9MatchTypeE
  1346: 000000000010a940   117 FUNC    WEAK   DEFAULT   12 _ZN3fst8internal14MemoryPoolImplILm512EED1Ev
  1347: 0000000000145280   375 FUNC    WEAK   DEFAULT   12 _ZN3fst8internal13CacheBaseImplINS_10CacheStateINS_10ReverseArcINS_6ArcTplINS_16LatticeWeightTplIfEEEEEENS_13PoolAllocatorIS8_EEEENS_17DefaultCacheStoreIS8_EEED2Ev
  1348: 000000000016f440  1416 FUNC    WEAK   DEFAULT   12 _ZN3fst8internal13VectorFstImplINS_11VectorStateINS_10ReverseArcINS_6ArcTplINS_16LatticeWeightTplIfEEEEEESaIS8_EEEEC1ERKNS_3FstIS8_EE
  1349: 0000000000194b60  1145 FUNC    WEAK   DEFAULT   12 _ZNK3fst8internal14ComposeFstImplINS_17DefaultCacheStoreINS_6ArcTplINS_16LatticeWeightTplIfEEEEEENS_17NullComposeFilterINS_7MatcherINS_3FstIS6_EEEESC_EENS_24GenericComposeStateTableIS6_NS_18TrivialFilterStateENS_24DefaultComposeStateTupleIiSF_EENS_21CompactHashStateTableISH_NS_11ComposeHashISH_EEEEEEE4CopyEv
  1350: 00000000001ae4f0    37 FUNC    WEAK   DEFAULT   12 _ZN3fst8ConstFstINS_6ArcTplINS_17TropicalWeightTplIfEEEEjED1Ev
  1351: 00000000000fe6f0    11 FUNC    WEAK   DEFAULT   12 _ZNK3fst9ImplToFstINS_8internal13VectorFstImplINS_11VectorStateINS_10ReverseArcINS_6ArcTplINS_16LatticeWeightTplIfEEEEEESaIS9_EEEEENS_10MutableFstIS9_EEE13OutputSymbolsEv
  1352: 00000000000ff280   357 FUNC    WEAK   DEFAULT   12 _ZN3fst8internal14ComposeFstImplINS_17DefaultCacheStoreINS_6ArcTplINS_17TropicalWeightTplIfEEEEEENS_21SequenceComposeFilterINS_7MatcherINS_3FstIS6_EEEESC_EENS_24GenericComposeStateTableIS6_NS_18IntegerFilterStateIaEENS_24DefaultComposeStateTupleIiSG_EENS_21CompactHashStateTableISI_NS_11ComposeHashISI_EEEEEEE12ComputeFinalEi
  1353: 0000000000244d00    56 OBJECT  WEAK   DEFAULT   21 _ZTVSt23_Sp_counted_ptr_inplaceIN3fst8internal14ComposeFstImplINS0_17DefaultCacheStoreINS0_6ArcTplINS0_17TropicalWeightTplIfEEEEEENS0_23PushLabelsComposeFilterINS0_24PushWeightsComposeFilterINS0_22LookAheadComposeFilterINS0_21SequenceComposeFilterINS0_16LookAheadMatcherINS0_3FstIS7_EEEESG_EESG_SG_LNS0_9MatchTypeE3EEESG_SG_LSI_3EEESG_SG_LSI_3EEENS0_24GenericComposeStateTableIS7_NS0_15PairFilterStateINSN_INS0_18IntegerFilterStateIaEENS0_17WeightFilterStateIS6_EEEENSO_IiEEEENS0_24DefaultComposeStateTupleIiSU_EENS0_21CompactHashStateTableISW_NS0_11ComposeHashISW_EEEEEEEESaIvELN9__gnu_cxx12_Lock_policyE2EE
  1354: 0000000000133ce0    39 FUNC    WEAK   DEFAULT   12 _ZNSt6vectorIN3fst24DefaultComposeStateTupleIiNS0_18TrivialFilterStateEEESaIS3_EED1Ev
  1355: 0000000000136b20   471 FUNC    WEAK   DEFAULT   12 _ZN3fst10MutableFstINS_6ArcTplINS_16LatticeWeightTplIfEEEEE6AddArcEiOS4_
  1356: 00000000001d7ec0    67 FUNC    WEAK   DEFAULT   12 _ZN3fst10MemoryPoolINS_13PoolAllocatorINS_10CacheStateINS_10ReverseArcINS_6ArcTplINS_17TropicalWeightTplIfEEEEEENS1_IS8_EEEEE2TNILi1EEEED0Ev
  1357: 00000000001ef880  1128 FUNC    WEAK   DEFAULT   12 _ZNK3fst8internal14ComposeFstImplINS_17DefaultCacheStoreINS_6ArcTplINS_17TropicalWeightTplIfEEEEEENS_17NullComposeFilterINS_7MatcherINS_3FstIS6_EEEESC_EENS_24GenericComposeStateTableIS6_NS_18TrivialFilterStateENS_24DefaultComposeStateTupleIiSF_EENS_21CompactHashStateTableISH_NS_11ComposeHashISH_EEEEEEE4CopyEv
  1358: 00000000001c9c00     5 FUNC    GLOBAL DEFAULT   12 vosk_model_find_word
  1359: 0000000000105210   157 FUNC    WEAK   DEFAULT   12 _ZNK3fst13SortedMatcherINS_3FstINS_6ArcTplINS_16LatticeWeightTplIfEEEEEEE5ValueEv
  1360: 0000000000241a90    24 OBJECT  WEAK   DEFAULT   21 _ZTIN3fst8internal14MemoryPoolImplILm320EEE
  1361: 000000000013b140   379 FUNC    WEAK   DEFAULT   12 _ZN3fst20MemoryPoolCollection4PoolINS_13PoolAllocatorINS_6ArcTplINS_16LatticeWeightTplIfEEEEE2TNILi8EEEEEPNS_10MemoryPoolIT_EEv
  1362: 00000000001c9d80     5 FUNC    GLOBAL DEFAULT   12 vosk_recognizer_set_max_alternatives
  1363: 00000000001aaba0   703 FUNC    WEAK   DEFAULT   12 _ZN3fst13SortedMatcherINS_8ConstFstINS_6ArcTplINS_17TropicalWeightTplIfEEEEjEEE8SetStateEi
  1364: 000000000011a720    42 FUNC    WEAK   DEFAULT   12 _ZN3fst8internal15MemoryArenaImplILm1288EED0Ev
  1365: 000000000014f4d0  1837 FUNC    WEAK   DEFAULT   12 _ZN3fst8internal27SingleShortestPathBacktraceINS_6ArcTplINS_16LatticeWeightTplIfEEEEEEvRKNS_3FstIT_EEPNS_10MutableFstIS7_EERKSt6vectorISt4pairINS7_7StateIdEmESaISH_EESG_
  1366: 000000000010aac0   117 FUNC    WEAK   DEFAULT   12 _ZN3fst8internal14MemoryPoolImplILm640EED1Ev
  1367: 000000000010de50    46 FUNC    WEAK   DEFAULT   12 _ZN3fst9VectorFstINS_6ArcTplINS_16LatticeWeightTplIfEEEENS_11VectorStateIS4_SaIS4_EEEED0Ev
  1368: 0000000000246c08    24 OBJECT  WEAK   DEFAULT   21 _ZTIN3fst17ImplToExpandedFstINS_8internal13VectorFstImplINS_11VectorStateINS_10ReverseArcINS_6ArcTplINS_17TropicalWeightTplIfEEEEEESaIS9_EEEEENS_10MutableFstIS9_EEEE
  1369: 00000000000fdb60     6 FUNC    WEAK   DEFAULT   12 _ZNK3fst8internal15MemoryArenaImplILm648EE4SizeEv
  1370: 0000000000185bf0     9 FUNC    WEAK   DEFAULT   12 _ZNK3fst9ImplToFstINS_8internal13ArcMapFstImplINS_6ArcTplINS_17TropicalWeightTplIfEEEES6_NS_28RemoveSomeInputSymbolsMapperIS6_iEEEENS_3FstIS6_EEE5FinalEi
  1371: 0000000000136f60    91 FUNC    WEAK   DEFAULT   12 _ZNSt10unique_ptrIN3fst22LookAheadComposeFilterINS0_21SequenceComposeFilterINS0_16LookAheadMatcherINS0_3FstINS0_6ArcTplINS0_16LatticeWeightTplIfEEEEEEEESA_EESA_SA_LNS0_9MatchTypeE3EEESt14default_deleteISD_EED2Ev
  1372: 00000000001b3cb0  1033 FUNC    WEAK   DEFAULT   12 _ZNK3fst21LabelLookAheadMatcherINS_13SortedMatcherINS_8ConstFstINS_6ArcTplINS_17TropicalWeightTplIfEEEEjEEEELj1760ENS_18FastLogAccumulatorIS6_EENS_14LabelReachableIS6_SA_NS_18LabelReachableDataIiEEEEE4CopyEb
  1373: 0000000000201ba0   302 OBJECT  WEAK   DEFAULT   14 _ZTSN3fst17ComposeFstMatcherINS_17DefaultCacheStoreINS_6ArcTplINS_16LatticeWeightTplIfEEEEEENS_21SequenceComposeFilterINS_7MatcherINS_3FstIS5_EEEESB_EENS_24GenericComposeStateTableIS5_NS_18IntegerFilterStateIaEENS_24DefaultComposeStateTupleIiSF_EENS_21CompactHashStateTableISH_NS_11ComposeHashISH_EEEEEEEE
  1374: 000000000010e360   214 FUNC    WEAK   DEFAULT   12 _ZNK3fst9VectorFstINS_6ArcTplINS_16LatticeWeightTplIfEEEENS_11VectorStateIS4_SaIS4_EEEE4CopyEb
  1375: 00000000001d1e30    70 FUNC    WEAK   DEFAULT   12 _ZNK3fst17ComposeFstMatcherINS_17DefaultCacheStoreINS_6ArcTplINS_17TropicalWeightTplIfEEEEEENS_20NoMatchComposeFilterINS_7MatcherINS_3FstIS5_EEEESB_EENS_24GenericComposeStateTableIS5_NS_18TrivialFilterStateENS_24DefaultComposeStateTupleIiSE_EENS_21CompactHashStateTableISG_NS_11ComposeHashISG_EEEEEEE4DoneEv
  1376: 0000000000119cf0   406 FUNC    WEAK   DEFAULT   12 _ZNSt6vectorIN3fst6ArcTplINS0_17TropicalWeightTplIfEEEESaIS4_EE17_M_realloc_insertIJRKS4_EEEvN9__gnu_cxx17__normal_iteratorIPS4_S6_EEDpOT_
  1377: 00000000002043e0   119 OBJECT  WEAK   DEFAULT   14 _ZTSN3fst8internal17VectorFstBaseImplINS_11VectorStateINS_10ReverseArcINS_6ArcTplINS_16LatticeWeightTplIfEEEEEESaIS8_EEEEE
  1378: 00000000001b4310   347 FUNC    WEAK   DEFAULT   12 _ZNK3fst18LabelReachableDataIiE11Label2IndexEv
  1379: 0000000000203400   118 OBJECT  WEAK   DEFAULT   14 _ZTSN3fst9VectorFstINS_6ArcTplINS_23CompactLatticeWeightTplINS_16LatticeWeightTplIfEEiEEEENS_11VectorStateIS6_SaIS6_EEEEE
  1380: 000000000013a930   534 FUNC    WEAK   DEFAULT   12 _ZNSt10_HashtableIiiN3fst13PoolAllocatorIiEENSt8__detail9_IdentityENS0_18CompactHashBiTableIiNS0_24DefaultComposeStateTupleIiNS0_15PairFilterStateINS7_INS0_18IntegerFilterStateIaEENS0_17WeightFilterStateINS0_17TropicalWeightTplIfEEEEEENS8_IiEEEEEENS0_11ComposeHashISH_EESt8equal_toISH_ELNS0_6HSTypeE3EE9HashEqualENSN_8HashFuncENS3_18_Mod_range_hashingENS3_20_Default_ranged_hashENS3_20_Prime_rehash_policyENS3_17_Hashtable_traitsILb1ELb1ELb1EEEED1Ev
  1381: 0000000000203f80    20 OBJECT  WEAK   DEFAULT   14 _ZTSN3fst9QueueBaseIiEE
  1382: 0000000000192e40   211 FUNC    WEAK   DEFAULT   12 _ZNK3fst9ImplToFstINS_8internal13ArcMapFstImplINS_6ArcTplINS_17TropicalWeightTplIfEEEENS3_INS_16LatticeWeightTplIfEEEENS_18StdToLatticeMapperIfEEEENS_3FstIS9_EEE7NumArcsEi
  1383: 0000000000201fe0   130 OBJECT  WEAK   DEFAULT   14 _ZTSN3fst18MutableArcIteratorINS_9VectorFstINS_10ReverseArcINS_6ArcTplINS_16LatticeWeightTplIfEEEEEENS_11VectorStateIS7_SaIS7_EEEEEEE
  1384: 0000000000104670    10 FUNC    WEAK   DEFAULT   12 _ZNSt23_Sp_counted_ptr_inplaceIN3fst8internal14ComposeFstImplINS0_17DefaultCacheStoreINS0_6ArcTplINS0_16LatticeWeightTplIfEEEEEENS0_20TrivialComposeFilterINS0_7MatcherINS0_3FstIS7_EEEESD_EENS0_24GenericComposeStateTableIS7_NS0_18TrivialFilterStateENS0_24DefaultComposeStateTupleIiSG_EENS0_21CompactHashStateTableISI_NS0_11ComposeHashISI_EEEEEEEESaIvELN9__gnu_cxx12_Lock_policyE2EE10_M_destroyEv
  1385: 0000000000117500   533 FUNC    WEAK   DEFAULT   12 _ZN3fst10SccVisitorINS_6ArcTplINS_23CompactLatticeWeightTplINS_16LatticeWeightTplIfEEiEEEEE9InitVisitERKNS_3FstIS6_EE
  1386: 00000000000fd8f0     6 FUNC    WEAK   DEFAULT   12 _ZNK5kaldi18OnlinePitchFeature3DimEv
  1387: 0000000000126480   389 FUNC    WEAK   DEFAULT   12 _ZNSt6vectorIPN3fst11VectorStateINS0_6ArcTplINS0_16LatticeWeightTplIfEEEESaIS5_EEESaIS8_EE17_M_realloc_insertIJRKS8_EEEvN9__gnu_cxx17__normal_iteratorIPS8_SA_EEDpOT_
  1388: 0000000000117bd0   147 FUNC    WEAK   DEFAULT   12 _ZNSt6vectorISt10unique_ptrIN3fst9QueueBaseIiEESt14default_deleteIS3_EESaIS6_EE6resizeEm
  1389: 00000000001a82c0    53 FUNC    WEAK   DEFAULT   12 _ZNK3fst8ConstFstINS_6ArcTplINS_17TropicalWeightTplIfEEEEjE17InitStateIteratorEPNS_17StateIteratorDataIS4_EE
  1390: 00000000002410b8    24 OBJECT  WEAK   DEFAULT   21 _ZTIN3fst10MutableFstINS_10ReverseArcINS_6ArcTplINS_16LatticeWeightTplIfEEEEEEEE
  1391: 0000000000138960  1156 FUNC    WEAK   DEFAULT   12 _ZN3fst22LookAheadComposeFilterINS_24AltSequenceComposeFilterINS_16LookAheadMatcherINS_3FstINS_6ArcTplINS_17TropicalWeightTplIfEEEEEEEES9_EES9_S9_LNS_9MatchTypeE3EEC2ERKS8_SE_PS9_SF_
  1392: 00000000000fdc80     1 FUNC    WEAK   DEFAULT   12 _ZNSt23_Sp_counted_ptr_inplaceIN3fst8internal14ComposeFstImplINS0_17DefaultCacheStoreINS0_6ArcTplINS0_16LatticeWeightTplIfEEEEEENS0_22LookAheadComposeFilterINS0_21SequenceComposeFilterINS0_16LookAheadMatcherINS0_3FstIS7_EEEESE_EESE_SE_LNS0_9MatchTypeE3EEENS0_24GenericComposeStateTableIS7_NS0_18IntegerFilterStateIaEENS0_24DefaultComposeStateTupleIiSK_EENS0_21CompactHashStateTableISM_NS0_11ComposeHashISM_EEEEEEEESaIvELN9__gnu_cxx12_Lock_policyE2EED2Ev
  1393: 0000000000109180    75 FUNC    WEAK   DEFAULT   12 _ZNSt23_Sp_counted_ptr_inplaceIN3fst8internal14ComposeFstImplINS0_17DefaultCacheStoreINS0_6ArcTplINS0_17TropicalWeightTplIfEEEEEENS0_23PushLabelsComposeFilterINS0_24PushWeightsComposeFilterINS0_22LookAheadComposeFilterINS0_21SequenceComposeFilterINS0_16LookAheadMatcherINS0_3FstIS7_EEEESG_EESG_SG_LNS0_9MatchTypeE3EEESG_SG_LSI_3EEESG_SG_LSI_3EEENS0_24GenericComposeStateTableIS7_NS0_15PairFilterStateINSN_INS0_18IntegerFilterStateIaEENS0_17WeightFilterStateIS6_EEEENSO_IiEEEENS0_24DefaultComposeStateTupleIiSU_EENS0_21CompactHashStateTableISW_NS0_11ComposeHashISW_EEEEEEEESaIvELN9__gnu_cxx12_Lock_policyE2EE14_M_get_deleterERKSt9type_info
  1394: 000000000024b0f8     8 OBJECT  <OS specific>: 10 DEFAULT   25 _ZGVZN3fst15GenericRegisterINSt7__cxx1112basic_stringIcSt11char_traitsIcESaIcEEENS_16FstRegisterEntryINS_6ArcTplINS_17TropicalWeightTplIfEEEEEENS_11FstRegisterISB_EEE11GetRegisterEvE3reg
  1395: 0000000000113ac0   135 FUNC    WEAK   DEFAULT   12 _ZNSt10_HashtableISt4pairIiiES0_IKS1_iESaIS3_ENSt8__detail10_Select1stESt8equal_toIS1_EN5kaldi10PairHasherIiiEENS5_18_Mod_range_hashingENS5_20_Default_ranged_hashENS5_20_Prime_rehash_policyENS5_17_Hashtable_traitsILb0ELb0ELb1EEEED1Ev
  1396: 00000000000fe0e0     1 FUNC    WEAK   DEFAULT   12 _ZNSt23_Sp_counted_ptr_inplaceIN3fst8internal13VectorFstImplINS0_11VectorStateINS0_6ArcTplINS0_23CompactLatticeWeightTplINS0_16LatticeWeightTplIfEEiEEEESaIS9_EEEEESaIvELN9__gnu_cxx12_Lock_policyE2EED2Ev
  1397: 00000000002449f8    56 OBJECT  WEAK   DEFAULT   21 _ZTVSt23_Sp_counted_ptr_inplaceIN3fst8internal13VectorFstImplINS0_11VectorStateINS0_6ArcTplINS0_16LatticeWeightTplIfEEEESaIS7_EEEEESaIvELN9__gnu_cxx12_Lock_policyE2EE
  1398: 00000000001330f0   125 FUNC    WEAK   DEFAULT   12 _ZN3fst17ComposeFstMatcherINS_17DefaultCacheStoreINS_6ArcTplINS_16LatticeWeightTplIfEEEEEENS_20NoMatchComposeFilterINS_7MatcherINS_3FstIS5_EEEESB_EENS_24GenericComposeStateTableIS5_NS_18TrivialFilterStateENS_24DefaultComposeStateTupleIiSE_EENS_21CompactHashStateTableISG_NS_11ComposeHashISG_EEEEEEED1Ev
  1399: 00000000001d0f60    10 FUNC    WEAK   DEFAULT   12 _ZNK3fst9ImplToFstINS_8internal13VectorFstImplINS_11VectorStateINS_10ReverseArcINS_6ArcTplINS_17TropicalWeightTplIfEEEEEESaIS9_EEEEENS_10MutableFstIS9_EEE5StartEv
  1400: 00000000001c9f70     3 FUNC    GLOBAL DEFAULT   12 vosk_batch_recognizer_new
  1401: 0000000000104c20   149 FUNC    WEAK   DEFAULT   12 _ZNK3fst13SortedMatcherINS_3FstINS_6ArcTplINS_17TropicalWeightTplIfEEEEEEE5ValueEv
  1402: 00000000001ecb40   322 FUNC    WEAK   DEFAULT   12 _ZNK3fst9ImplToFstINS_8internal13VectorFstImplINS_11VectorStateINS_10ReverseArcINS_6ArcTplINS_17TropicalWeightTplIfEEEEEESaIS9_EEEEENS_10MutableFstIS9_EEE10PropertiesEmb
  1403: 00000000000feb70   189 FUNC    WEAK   DEFAULT   12 _ZN3fst15StateOrderQueueIiE7DequeueEv
  1404: 0000000000240c00    24 OBJECT  WEAK   DEFAULT   21 _ZTIN3fst16ImplToMutableFstINS_8internal13VectorFstImplINS_11VectorStateINS_6ArcTplINS_17TropicalWeightTplIfEEEESaIS7_EEEEENS_10MutableFstIS7_EEEE
  1405: 00000000001cd1a0  1029 FUNC    GLOBAL DEFAULT   12 _ZN9ProcessorC1ERKNSt7__cxx1112basic_stringIcSt11char_traitsIcESaIcEEES7_
  1406: 0000000000202b40    38 OBJECT  WEAK   DEFAULT   14 _ZTSN3fst29ScaleDeterministicOnDemandFstE
  1407: 000000000011bc80   175 FUNC    WEAK   DEFAULT   12 _ZN3fst13SortedMatcherINS_3FstINS_6ArcTplINS_16LatticeWeightTplIfEEEEEEED1Ev
  1408: 00000000001da550   415 FUNC    WEAK   DEFAULT   12 _ZNSt6vectorIN3fst17TropicalWeightTplIfEESaIS2_EE17_M_realloc_insertIJS2_EEEvN9__gnu_cxx17__normal_iteratorIPS2_S4_EEDpOT_
  1409: 000000000015b090  8571 FUNC    WEAK   DEFAULT   12 _ZN3fst9AutoQueueIiEC1INS_10ReverseArcINS_6ArcTplINS_23CompactLatticeWeightTplINS_16LatticeWeightTplIfEEiEEEEEENS_12AnyArcFilterISA_EEEERKNS_3FstIT_EEPKSt6vectorINSE_6WeightESaISJ_EET0_
  1410: 0000000000191f80   845 FUNC    WEAK   DEFAULT   12 _ZN3fst8internal14ComposeFstImplINS_17DefaultCacheStoreINS_6ArcTplINS_16LatticeWeightTplIfEEEEEENS_24AltSequenceComposeFilterINS_7MatcherINS_3FstIS6_EEEESC_EENS_24GenericComposeStateTableIS6_NS_18IntegerFilterStateIaEENS_24DefaultComposeStateTupleIiSG_EENS_21CompactHashStateTableISI_NS_11ComposeHashISI_EEEEEEE6ExpandEi
  1411: 00000000000fef90    11 FUNC    WEAK   DEFAULT   12 _ZNK3fst9ImplToFstINS_8internal13VectorFstImplINS_11VectorStateINS_6ArcTplINS_16LatticeWeightTplIfEEEESaIS7_EEEEENS_10MutableFstIS7_EEE12InputSymbolsEv
  1412: 00000000001a7ca0     6 FUNC    WEAK   DEFAULT   12 _ZNK3fst29MutableFastLogAccumulatorData9IsMutableEv
  1413: 00000000001d0fe0    24 FUNC    WEAK   DEFAULT   12 _ZNK3fst9ImplToFstINS_8internal13VectorFstImplINS_11VectorStateINS_10ReverseArcINS_6ArcTplINS_17TropicalWeightTplIfEEEEEESaIS9_EEEEENS_10MutableFstIS9_EEE17NumOutputEpsilonsEi
  1414: 00000000001d1100   445 FUNC    WEAK   DEFAULT   12 _ZN3fst8internal14ComposeFstImplINS_17DefaultCacheStoreINS_6ArcTplINS_17TropicalWeightTplIfEEEEEENS_18MatchComposeFilterINS_7MatcherINS_3FstIS6_EEEESC_EENS_24GenericComposeStateTableIS6_NS_18IntegerFilterStateIaEENS_24DefaultComposeStateTupleIiSG_EENS_21CompactHashStateTableISI_NS_11ComposeHashISI_EEEEEEE12ComputeFinalEi
  1415: 0000000000112080   214 FUNC    WEAK   DEFAULT   12 _ZN3fst7CompareINS_16LatticeWeightTplIfEEiEEiRKNS_23CompactLatticeWeightTplIT_T0_EES8_
  1416: 0000000000105750   258 FUNC    WEAK   DEFAULT   12 _ZN3fst17ComposeFstMatcherINS_17DefaultCacheStoreINS_6ArcTplINS_16LatticeWeightTplIfEEEEEENS_22LookAheadComposeFilterINS_24AltSequenceComposeFilterINS_16LookAheadMatcherINS_3FstIS5_EEEESC_EESC_SC_LNS_9MatchTypeE3EEENS_24GenericComposeStateTableIS5_NS_18IntegerFilterStateIaEENS_24DefaultComposeStateTupleIiSI_EENS_21CompactHashStateTableISK_NS_11ComposeHashISK_EEEEEEE8PriorityEi
  1417: 000000000011a290   382 FUNC    WEAK   DEFAULT   12 _ZNSt6vectorIbSaIbEE7reserveEm
  1418: 000000000010a2c0    89 FUNC    WEAK   DEFAULT   12 _ZN3fst8internal15MemoryArenaImplILm16EED1Ev
  1419: 0000000000241300    24 OBJECT  WEAK   DEFAULT   21 _ZTIN3fst8internal14ComposeFstImplINS_17DefaultCacheStoreINS_6ArcTplINS_16LatticeWeightTplIfEEEEEENS_21SequenceComposeFilterINS_7MatcherINS_3FstIS6_EEEESC_EENS_24GenericComposeStateTableIS6_NS_18IntegerFilterStateIaEENS_24DefaultComposeStateTupleIiSG_EENS_21CompactHashStateTableISI_NS_11ComposeHashISI_EEEEEEEE
  1420: 000000000010f2d0   367 FUNC    WEAK   DEFAULT   12 _ZN3fst8internal13VectorFstImplINS_11VectorStateINS_6ArcTplINS_17TropicalWeightTplIfEEEESaIS6_EEEED1Ev
  1421: 0000000000100120     1 FUNC    WEAK   DEFAULT   12 _ZN3fst18MutableArcIteratorINS_9VectorFstINS_6ArcTplINS_16LatticeWeightTplIfEEEENS_11VectorStateIS5_SaIS5_EEEEEED2Ev
  1422: 000000000010c440   117 FUNC    WEAK   DEFAULT   12 _ZN3fst10MemoryPoolINS_13PoolAllocatorIPNSt8__detail15_Hash_node_baseEE2TNILi1EEEED1Ev
  1423: 000000000010ba40   117 FUNC    WEAK   DEFAULT   12 _ZN3fst10MemoryPoolINS_13PoolAllocatorINS_10CacheStateINS_10ReverseArcINS_6ArcTplINS_16LatticeWeightTplIfEEEEEENS1_IS8_EEEEE2TNILi1EEEED2Ev
  1424: 0000000000246ce0    24 OBJECT  WEAK   DEFAULT   21 _ZTISt15_Sp_counted_ptrIPN3fst9VectorFstINS0_6ArcTplINS0_17TropicalWeightTplIfEEEENS0_11VectorStateIS5_SaIS5_EEEEELN9__gnu_cxx12_Lock_policyE2EE
  1425: 000000000011ab00    67 FUNC    WEAK   DEFAULT   12 _ZN3fst10MemoryPoolINS_13PoolAllocatorINS_10ReverseArcINS_6ArcTplINS_16LatticeWeightTplIfEEEEEEE2TNILi4EEEED0Ev
  1426: 00000000001699f0  1222 FUNC    WEAK   DEFAULT   12 _ZNSt6vectorIPN3fst10CacheStateINS0_6ArcTplINS0_17TropicalWeightTplIfEEEENS0_13PoolAllocatorIS5_EEEESaIS9_EE14_M_fill_insertEN9__gnu_cxx17__normal_iteratorIPS9_SB_EEmRKS9_
  1427: 000000000011cb50   296 FUNC    WEAK   DEFAULT   12 _ZNSt5dequeIN4json4JSONESaIS1_EE23_M_new_elements_at_backEm
  1428: 0000000000241130    24 OBJECT  WEAK   DEFAULT   21 _ZTIN3fst8internal13CacheBaseImplINS_10CacheStateINS_10ReverseArcINS_6ArcTplINS_16LatticeWeightTplIfEEEEEENS_13PoolAllocatorIS8_EEEENS_17DefaultCacheStoreIS8_EEEE
  1429: 000000000020c100    85 OBJECT  WEAK   DEFAULT   14 _ZTSN3fst8internal9CacheImplINS_10ReverseArcINS_6ArcTplINS_17TropicalWeightTplIfEEEEEEEE
  1430: 00000000000fe8b0   114 FUNC    WEAK   DEFAULT   12 _ZNK3fst8SccQueueIiNS_9QueueBaseIiEEE5EmptyEv
  1431: 000000000013c570   160 FUNC    WEAK   DEFAULT   12 _ZN3fst8internal14ComposeFstImplINS_17DefaultCacheStoreINS_6ArcTplINS_16LatticeWeightTplIfEEEEEENS_20TrivialComposeFilterINS_7MatcherINS_3FstIS6_EEEESC_EENS_24GenericComposeStateTableIS6_NS_18TrivialFilterStateENS_24DefaultComposeStateTupleIiSF_EENS_21CompactHashStateTableISH_NS_11ComposeHashISH_EEEEEEED1Ev
  1432: 00000000000ffb30   618 FUNC    WEAK   DEFAULT   12 _ZN3fst8internal14ComposeFstImplINS_17DefaultCacheStoreINS_6ArcTplINS_16LatticeWeightTplIfEEEEEENS_22LookAheadComposeFilterINS_21SequenceComposeFilterINS_16LookAheadMatcherINS_3FstIS6_EEEESD_EESD_SD_LNS_9MatchTypeE3EEENS_24GenericComposeStateTableIS6_NS_18IntegerFilterStateIaEENS_24DefaultComposeStateTupleIiSJ_EENS_21CompactHashStateTableISL_NS_11ComposeHashISL_EEEEEEE12ComputeFinalEi
  1433: 0000000000140ca0    37 FUNC    WEAK   DEFAULT   12 _ZN3fst8internal9CacheImplINS_6ArcTplINS_17TropicalWeightTplIfEEEEED0Ev
  1434: 000000000010ab40   117 FUNC    WEAK   DEFAULT   12 _ZN3fst10MemoryPoolINS_8internal8DfsStateINS_3FstINS_6ArcTplINS_16LatticeWeightTplIfEEEEEEEEED2Ev
  1435: 000000000019ddd0  8450 FUNC    WEAK   DEFAULT   12 _ZN3fst7ConnectINS_6ArcTplINS_17TropicalWeightTplIfEEEEEEvPNS_10MutableFstIT_EE
  1436: 00000000001b59a0    39 FUNC    WEAK   DEFAULT   12 _ZNSt6vectorIN3fst11IntIntervalIiEESaIS2_EED1Ev
  1437: 0000000000142a20  1889 FUNC    WEAK   DEFAULT   12 _ZN3fst8internal14ComposeFstImplINS_17DefaultCacheStoreINS_6ArcTplINS_17TropicalWeightTplIfEEEEEENS_23PushLabelsComposeFilterINS_24PushWeightsComposeFilterINS_22LookAheadComposeFilterINS_24AltSequenceComposeFilterINS_16LookAheadMatcherINS_3FstIS6_EEEESF_EESF_SF_LNS_9MatchTypeE3EEESF_SF_LSH_3EEESF_SF_LSH_3EEENS_24GenericComposeStateTableIS6_NS_15PairFilterStateINSM_INS_18IntegerFilterStateIaEENS_17WeightFilterStateIS5_EEEENSN_IiEEEENS_24DefaultComposeStateTupleIiST_EENS_21CompactHashStateTableISV_NS_11ComposeHashISV_EEEEEEEC2ISF_SF_EERKSE_S14_RKNS_21ComposeFstImplOptionsIT_T0_SK_S10_S7_EE
  1438: 0000000000240a00    56 OBJECT  WEAK   DEFAULT   21 _ZTVSt15_Sp_counted_ptrIPN3fst8internal18ComposeFstImplBaseINS0_6ArcTplINS0_16LatticeWeightTplIfEEEENS0_17DefaultCacheStoreIS6_EENS0_10ComposeFstIS6_S8_EEEELN9__gnu_cxx12_Lock_policyE2EE
  1439: 00000000001a8270    31 FUNC    WEAK   DEFAULT   12 _ZNK3fst9ImplToFstINS_8internal12ConstFstImplINS_6ArcTplINS_17TropicalWeightTplIfEEEEjEENS_11ExpandedFstIS6_EEE16NumInputEpsilonsEi
  1440: 0000000000246718    24 OBJECT  WEAK   DEFAULT   21 _ZTIN3fst13StateIteratorINS_14DeterminizeFstINS_10ReverseArcINS_6ArcTplINS_17TropicalWeightTplIfEEEEEEEEEE
  1441: 00000000001485c0  1034 FUNC    WEAK   DEFAULT   12 _ZNK3fst3FstINS_6ArcTplINS_23CompactLatticeWeightTplINS_16LatticeWeightTplIfEEiEEEEE9WriteFileERKNSt7__cxx1112basic_stringIcSt11char_traitsIcESaIcEEE
  1442: 000000000020a8e0   109 OBJECT  WEAK   DEFAULT   14 _ZTSN3fst9ImplToFstINS_8internal12NGramFstImplINS_6ArcTplINS_17TropicalWeightTplIfEEEEEENS_11ExpandedFstIS6_EEEE
  1443: 0000000000240938   104 OBJECT  WEAK   DEFAULT   21 _ZTVN3fst18MutableArcIteratorINS_9VectorFstINS_6ArcTplINS_17TropicalWeightTplIfEEEENS_11VectorStateIS5_SaIS5_EEEEEEE
  1444: 0000000000247ab8    56 OBJECT  WEAK   DEFAULT   21 _ZTVSt23_Sp_counted_ptr_inplaceIN3fst8internal14ComposeFstImplINS0_17DefaultCacheStoreINS0_6ArcTplINS0_17TropicalWeightTplIfEEEEEENS0_20TrivialComposeFilterINS0_7MatcherINS0_3FstIS7_EEEESD_EENS0_24GenericComposeStateTableIS7_NS0_18TrivialFilterStateENS0_24DefaultComposeStateTupleIiSG_EENS0_21CompactHashStateTableISI_NS0_11ComposeHashISI_EEEEEEEESaIvELN9__gnu_cxx12_Lock_policyE2EE
  1445: 000000000012a510   294 FUNC    WEAK   DEFAULT   12 _ZSt18__do_uninit_fill_nIPN3fst23CompactLatticeWeightTplINS0_16LatticeWeightTplIfEEiEEmS4_ET_S6_T0_RKT1_
  1446: 000000000020c720   312 OBJECT  WEAK   DEFAULT   14 _ZTSN3fst8internal14ComposeFstImplINS_17DefaultCacheStoreINS_6ArcTplINS_17TropicalWeightTplIfEEEEEENS_24AltSequenceComposeFilterINS_7MatcherINS_3FstIS6_EEEESC_EENS_24GenericComposeStateTableIS6_NS_18IntegerFilterStateIaEENS_24DefaultComposeStateTupleIiSG_EENS_21CompactHashStateTableISI_NS_11ComposeHashISI_EEEEEEEE
  1447: 0000000000109360    75 FUNC    WEAK   DEFAULT   12 _ZNSt23_Sp_counted_ptr_inplaceIN3fst8internal14ComposeFstImplINS0_17DefaultCacheStoreINS0_6ArcTplINS0_17TropicalWeightTplIfEEEEEENS0_21SequenceComposeFilterINS0_7MatcherINS0_3FstIS7_EEEESD_EENS0_24GenericComposeStateTableIS7_NS0_18IntegerFilterStateIaEENS0_24DefaultComposeStateTupleIiSH_EENS0_21CompactHashStateTableISJ_NS0_11ComposeHashISJ_EEEEEEEESaIvELN9__gnu_cxx12_Lock_policyE2EE14_M_get_deleterERKSt9type_info
  1448: 00000000001d4160   117 FUNC    WEAK   DEFAULT   12 _ZN3fst10MemoryPoolINS_8internal8DfsStateINS_3FstINS_10ReverseArcINS_6ArcTplINS_17TropicalWeightTplIfEEEEEEEEEEED2Ev
  1449: 0000000000204b80   103 OBJECT  WEAK   DEFAULT   14 _ZTSN3fst22MutableArcIteratorBaseINS_6ArcTplINS_23CompactLatticeWeightTplINS_16LatticeWeightTplIfEEiEEEEEE
  1450: 00000000001e6160   493 FUNC    WEAK   DEFAULT   12 _ZNSt6vectorIPN3fst11VectorStateINS0_10ReverseArcINS0_6ArcTplINS0_17TropicalWeightTplIfEEEEEESaIS7_EEESaISA_EE17_M_default_appendEm
  1451: 0000000000139020   375 FUNC    WEAK   DEFAULT   12 _ZN3fst20MemoryPoolCollection4PoolINS_13PoolAllocatorINS_10CacheStateINS_6ArcTplINS_17TropicalWeightTplIfEEEENS2_IS7_EEEEE2TNILi1EEEEEPNS_10MemoryPoolIT_EEv
  1452: 000000000010df40    37 FUNC    WEAK   DEFAULT   12 _ZN3fst9VectorFstINS_6ArcTplINS_23CompactLatticeWeightTplINS_16LatticeWeightTplIfEEiEEEENS_11VectorStateIS6_SaIS6_EEEED1Ev
  1453: 00000000001158a0   365 FUNC    WEAK   DEFAULT   12 _ZNSt6vectorIN3fst9QueueTypeESaIS1_EEC1EmRKS2_
  1454: 0000000000203b60    66 OBJECT  WEAK   DEFAULT   14 _ZTSN3fst8internal9CacheImplINS_6ArcTplINS_16LatticeWeightTplIfEEEEEE
  1455: 00000000001a3310    39 FUNC    GLOBAL DEFAULT   12 _ZN5Model5UnrefEv
  1456: 00000000002040e0    87 OBJECT  WEAK   DEFAULT   14 _ZTSN3fst10ComposeFstINS_6ArcTplINS_16LatticeWeightTplIfEEEENS_17DefaultCacheStoreIS4_EEEE
  1457: 00000000001a8570    10 FUNC    WEAK   DEFAULT   12 _ZNSt23_Sp_counted_ptr_inplaceIN3fst8internal12ConstFstImplINS0_6ArcTplINS0_17TropicalWeightTplIfEEEEjEESaIvELN9__gnu_cxx12_Lock_policyE2EED0Ev
  1458: 00000000001c3120     5 FUNC    WEAK   DEFAULT   12 _ZNK3fst8NGramFstINS_6ArcTplINS_17TropicalWeightTplIfEEEEE5WriteERKNSt7__cxx1112basic_stringIcSt11char_traitsIcESaIcEEE
  1459: 00000000001277d0   191 FUNC    WEAK   DEFAULT   12 _ZN3fst11ArcIteratorINS_3FstINS_10ReverseArcINS_6ArcTplINS_23CompactLatticeWeightTplINS_16LatticeWeightTplIfEEiEEEEEEEEEC1ERKSA_i
  1460: 00000000001d7e20    67 FUNC    WEAK   DEFAULT   12 _ZN3fst10MemoryPoolINS_13PoolAllocatorINS_10ReverseArcINS_6ArcTplINS_17TropicalWeightTplIfEEEEEEE2TNILi2EEEED0Ev
  1461: 00000000001009b0    70 FUNC    WEAK   DEFAULT   12 _ZNK3fst17ComposeFstMatcherINS_17DefaultCacheStoreINS_6ArcTplINS_16LatticeWeightTplIfEEEEEENS_21SequenceComposeFilterINS_7MatcherINS_3FstIS5_EEEESB_EENS_24GenericComposeStateTableIS5_NS_18IntegerFilterStateIaEENS_24DefaultComposeStateTupleIiSF_EENS_21CompactHashStateTableISH_NS_11ComposeHashISH_EEEEEEE4DoneEv
  1462: 00000000001003e0     9 FUNC    WEAK   DEFAULT   12 _ZN3fst18MutableArcIteratorINS_9VectorFstINS_6ArcTplINS_16LatticeWeightTplIfEEEENS_11VectorStateIS5_SaIS5_EEEEEE4SeekEm
  1463: 000000000010b540   117 FUNC    WEAK   DEFAULT   12 _ZN3fst10MemoryPoolINS_13PoolAllocatorINSt8__detail10_Hash_nodeIiLb1EEEE2TNILi1EEEED2Ev
  1464: 0000000000114cb0   113 FUNC    WEAK   DEFAULT   12 _ZNSt6vectorIN3fst23CompactLatticeWeightTplINS0_16LatticeWeightTplIfEEiEESaIS4_EED1Ev
  1465: 00000000000e4310    12 FUNC    GLOBAL DEFAULT   12 _ZN10Recognizer15SetPartialWordsEb
  1466: 000000000013c6b0   160 FUNC    WEAK   DEFAULT   12 _ZN3fst8internal14ComposeFstImplINS_17DefaultCacheStoreINS_6ArcTplINS_16LatticeWeightTplIfEEEEEENS_17NullComposeFilterINS_7MatcherINS_3FstIS6_EEEESC_EENS_24GenericComposeStateTableIS6_NS_18TrivialFilterStateENS_24DefaultComposeStateTupleIiSF_EENS_21CompactHashStateTableISH_NS_11ComposeHashISH_EEEEEEED1Ev
  1467: 0000000000245cc8   160 OBJECT  WEAK   DEFAULT   21 _ZTVN3fst17ImplToExpandedFstINS_8internal12ConstFstImplINS_6ArcTplINS_17TropicalWeightTplIfEEEEjEENS_11ExpandedFstIS6_EEEE
  1468: 000000000010a3e0    89 FUNC    WEAK   DEFAULT   12 _ZN3fst8internal15MemoryArenaImplILm1032EED1Ev
  1469: 0000000000197d20   660 FUNC    WEAK   DEFAULT   12 _ZN3fst17ComposeFstMatcherINS_17DefaultCacheStoreINS_6ArcTplINS_16LatticeWeightTplIfEEEEEENS_24AltSequenceComposeFilterINS_7MatcherINS_3FstIS5_EEEESB_EENS_24GenericComposeStateTableIS5_NS_18IntegerFilterStateIaEENS_24DefaultComposeStateTupleIiSF_EENS_21CompactHashStateTableISH_NS_11ComposeHashISH_EEEEEEE8FindNextISB_SB_EEbPT_PT0_
  1470: 000000000010bac0   117 FUNC    WEAK   DEFAULT   12 _ZN3fst8internal14MemoryPoolImplILm48EED1Ev
  1471: 00000000002453e0    40 OBJECT  WEAK   DEFAULT   21 _ZTVN3fst8internal15MemoryArenaImplILm328EEE
  1472: 0000000000113880   466 FUNC    WEAK   DEFAULT   12 _ZN3fst9VectorFstINS_6ArcTplINS_16LatticeWeightTplIfEEEENS_11VectorStateIS4_SaIS4_EEEEC1Ev
  1473: 000000000020926e     1 OBJECT  <OS specific>: 10 DEFAULT   14 _ZZN3fst8DfsVisitINS_3FstINS_10ReverseArcINS_6ArcTplINS_23CompactLatticeWeightTplINS_16LatticeWeightTplIfEEiEEEEEEEENS_10SccVisitorIS9_EENS_12AnyArcFilterIS9_EEEEvRKT_PT0_T1_bE9kDfsWhite
  1474: 000000000010b840   117 FUNC    WEAK   DEFAULT   12 _ZN3fst10MemoryPoolINS_13PoolAllocatorINS_6ArcTplINS_17TropicalWeightTplIfEEEEE2TNILi1EEEED1Ev
  1475: 0000000000110550   464 FUNC    WEAK   DEFAULT   12 _ZN3fst8internal13VectorFstImplINS_11VectorStateINS_10ReverseArcINS_6ArcTplINS_23CompactLatticeWeightTplINS_16LatticeWeightTplIfEEiEEEEEESaISA_EEEED1Ev
  1476: 0000000000132b90   228 FUNC    WEAK   DEFAULT   12 _ZN3fst7MatcherINS_3FstINS_6ArcTplINS_16LatticeWeightTplIfEEEEEEEC2ERKS6_NS_9MatchTypeE
  1477: 00000000001375a0   107 FUNC    WEAK   DEFAULT   12 _ZNK3fst16LookAheadMatcherINS_3FstINS_6ArcTplINS_16LatticeWeightTplIfEEEEEEE4CopyEb
  1478: 0000000000241100    24 OBJECT  WEAK   DEFAULT   21 _ZTIN3fst16ImplToMutableFstINS_8internal13VectorFstImplINS_11VectorStateINS_10ReverseArcINS_6ArcTplINS_16LatticeWeightTplIfEEEEEESaIS9_EEEEENS_10MutableFstIS9_EEEE
  1479: 00000000001acf70  1125 FUNC    WEAK   DEFAULT   12 _ZN5kaldi22FrameExtractionOptions8RegisterEPNS_10OptionsItfE
  1480: 0000000000132ff0   125 FUNC    WEAK   DEFAULT   12 _ZN3fst17ComposeFstMatcherINS_17DefaultCacheStoreINS_6ArcTplINS_16LatticeWeightTplIfEEEEEENS_24AltSequenceComposeFilterINS_7MatcherINS_3FstIS5_EEEESB_EENS_24GenericComposeStateTableIS5_NS_18IntegerFilterStateIaEENS_24DefaultComposeStateTupleIiSF_EENS_21CompactHashStateTableISH_NS_11ComposeHashISH_EEEEEEED2Ev
  1481: 0000000000109630   120 FUNC    WEAK   DEFAULT   12 _ZN3fst18ShortestFirstQueueIiNS_8internal18StateWeightCompareIiNS_11NaturalLessINS_23CompactLatticeWeightTplINS_16LatticeWeightTplIfEEiEEEEEELb0EED2Ev
  1482: 000000000017b790   391 FUNC    WEAK   DEFAULT   12 _ZN3fst16ImplToMutableFstINS_8internal13VectorFstImplINS_11VectorStateINS_6ArcTplINS_23CompactLatticeWeightTplINS_16LatticeWeightTplIfEEiEEEESaIS9_EEEEENS_10MutableFstIS9_EEE16SetOutputSymbolsEPKNS_11SymbolTableE
  1483: 00000000001975f0   557 FUNC    WEAK   DEFAULT   12 _ZN3fst17ComposeFstMatcherINS_17DefaultCacheStoreINS_6ArcTplINS_16LatticeWeightTplIfEEEEEENS_17NullComposeFilterINS_7MatcherINS_3FstIS5_EEEESB_EENS_24GenericComposeStateTableIS5_NS_18TrivialFilterStateENS_24DefaultComposeStateTupleIiSE_EENS_21CompactHashStateTableISG_NS_11ComposeHashISG_EEEEEEE8FindNextISB_SB_EEbPT_PT0_
  1484: 0000000000245088    40 OBJECT  WEAK   DEFAULT   21 _ZTVN3fst10MemoryPoolINS_13PoolAllocatorIPNSt8__detail15_Hash_node_baseEE2TNILi8EEEEE
  1485: 00000000001c24b0  2473 FUNC    WEAK   DEFAULT   12 _ZN3fst13FstRegistererINS_10MatcherFstINS_8ConstFstINS_6ArcTplINS_17TropicalWeightTplIfEEEEjEENS_21LabelLookAheadMatcherINS_13SortedMatcherIS7_EELj1760ENS_18FastLogAccumulatorIS6_EENS_14LabelReachableIS6_SC_NS_18LabelReachableDataIiEEEEEEXadL_ZNS_25olabel_lookahead_fst_typeEEENS_23LabelLookAheadRelabelerIS6_SF_EENS_9AddOnPairISF_SF_EEEEE7ConvertERKNS_3FstIS6_EE
  1486: 00000000001a7d80     1 FUNC    WEAK   DEFAULT   12 _ZNSt15_Sp_counted_ptrIPN3fst8internal12ConstFstImplINS0_6ArcTplINS0_17TropicalWeightTplIfEEEEjEELN9__gnu_cxx12_Lock_policyE2EED1Ev
  1487: 00000000001c9d90    15 FUNC    GLOBAL DEFAULT   12 vosk_recognizer_set_words
  1488: 0000000000247268   312 OBJECT  WEAK   DEFAULT   21 _ZTVN3fst16ImplToMutableFstINS_8internal13VectorFstImplINS_11VectorStateINS_10ReverseArcINS_6ArcTplINS_17TropicalWeightTplIfEEEEEESaIS9_EEEEENS_10MutableFstIS9_EEEE
  1489: 00000000001a84d0    10 FUNC    WEAK   DEFAULT   12 _ZNSt23_Sp_counted_ptr_inplaceIN3fst9AddOnPairINS0_18LabelReachableDataIiEES3_EESaIvELN9__gnu_cxx12_Lock_policyE2EED0Ev
  1490: 000000000010afc0   117 FUNC    WEAK   DEFAULT   12 _ZN3fst8internal14MemoryPoolImplILm160EED1Ev
  1491: 000000000013ed60  1578 FUNC    WEAK   DEFAULT   12 _ZN3fst8internal14ComposeFstImplINS_17DefaultCacheStoreINS_6ArcTplINS_16LatticeWeightTplIfEEEEEENS_22LookAheadComposeFilterINS_24AltSequenceComposeFilterINS_16LookAheadMatcherINS_3FstIS6_EEEESD_EESD_SD_LNS_9MatchTypeE3EEENS_24GenericComposeStateTableIS6_NS_18IntegerFilterStateIaEENS_24DefaultComposeStateTupleIiSJ_EENS_21CompactHashStateTableISL_NS_11ComposeHashISL_EEEEEEEC1ISD_SD_EERKSC_SU_RKNS_21ComposeFstImplOptionsIT_T0_SG_SQ_S7_EE
  1492: 000000000010a5c0    89 FUNC    WEAK   DEFAULT   12 _ZN3fst8internal15MemoryArenaImplILm136EED1Ev
  1493: 00000000001074f0   211 FUNC    WEAK   DEFAULT   12 _ZNK3fst9ImplToFstINS_8internal18ComposeFstImplBaseINS_6ArcTplINS_16LatticeWeightTplIfEEEENS_17DefaultCacheStoreIS6_EENS_10ComposeFstIS6_S8_EEEENS_3FstIS6_EEE17NumOutputEpsilonsEi
  1494: 0000000000133d10   228 FUNC    WEAK   DEFAULT   12 _ZN3fst7MatcherINS_3FstINS_6ArcTplINS_17TropicalWeightTplIfEEEEEEEC2ERKS6_NS_9MatchTypeE
  1495: 00000000001d20c0     7 FUNC    WEAK   DEFAULT   12 _ZNK3fst17ComposeFstMatcherINS_17DefaultCacheStoreINS_6ArcTplINS_17TropicalWeightTplIfEEEEEENS_20TrivialComposeFilterINS_7MatcherINS_3FstIS5_EEEESB_EENS_24GenericComposeStateTableIS5_NS_18TrivialFilterStateENS_24DefaultComposeStateTupleIiSE_EENS_21CompactHashStateTableISG_NS_11ComposeHashISG_EEEEEEE6GetFstEv
  1496: 0000000000114da0   249 FUNC    WEAK   DEFAULT   12 _ZN3fst8internal21ShortestDistanceStateINS_6ArcTplINS_23CompactLatticeWeightTplINS_16LatticeWeightTplIfEEiEEEENS_9AutoQueueIiEENS_16EpsilonArcFilterIS7_EENS_17WeightApproxEqualEED1Ev
  1497: 0000000000100090     1 FUNC    WEAK   DEFAULT   12 _ZN3fst13StateIteratorINS_10ComposeFstINS_6ArcTplINS_16LatticeWeightTplIfEEEENS_17DefaultCacheStoreIS5_EEEEED2Ev
  1498: 00000000000fea30   125 FUNC    WEAK   DEFAULT   12 _ZN3fst13TopOrderQueueIiE7EnqueueEi
  1499: 000000000010a380    89 FUNC    WEAK   DEFAULT   12 _ZN3fst8internal15MemoryArenaImplILm56EED1Ev
  1500: 0000000000111e30   170 FUNC    WEAK   DEFAULT   12 _ZN3fst13StateIteratorINS_9ArcMapFstINS_6ArcTplINS_17TropicalWeightTplIfEEEES5_NS_28RemoveSomeInputSymbolsMapperIS5_iEEEEE4NextEv
  1501: 00000000002419a0    24 OBJECT  WEAK   DEFAULT   21 _ZTIN3fst8internal14MemoryPoolImplILm20EEE
  1502: 00000000001a8380    16 FUNC    WEAK   DEFAULT   12 _ZNSt23_Sp_counted_ptr_inplaceIN3fst8internal12ConstFstImplINS0_6ArcTplINS0_17TropicalWeightTplIfEEEEjEESaIvELN9__gnu_cxx12_Lock_policyE2EE10_M_disposeEv
  1503: 0000000000164ac0   389 FUNC    WEAK   DEFAULT   12 _ZNSt6vectorIPN3fst8internal21DeterminizeStateTupleINS0_10ReverseArcINS0_6ArcTplINS0_16LatticeWeightTplIfEEEEEENS0_18IntegerFilterStateIaEEEESaISC_EE17_M_realloc_insertIJRKSC_EEEvN9__gnu_cxx17__normal_iteratorIPSC_SE_EEDpOT_
  1504: 00000000001b2120   291 FUNC    WEAK   DEFAULT   12 _ZNSt8_Rb_treeINSt7__cxx1112basic_stringIcSt11char_traitsIcESaIcEEESt4pairIKS5_N3fst16FstRegisterEntryINS8_6ArcTplINS8_17TropicalWeightTplIfEEEEEEESt10_Select1stISF_ESt4lessIS5_ESaISF_EE22_M_emplace_hint_uniqueIJRS7_RKSE_EEESt17_Rb_tree_iteratorISF_ESt23_Rb_tree_const_iteratorISF_EDpOT_
  1505: 00000000000e47c0   324 FUNC    GLOBAL DEFAULT   12 _ZN10Recognizer14AcceptWaveformEPKfi
  1506: 00000000001d1eb0     6 FUNC    WEAK   DEFAULT   12 _ZNK3fst17ComposeFstMatcherINS_17DefaultCacheStoreINS_6ArcTplINS_17TropicalWeightTplIfEEEEEENS_20NoMatchComposeFilterINS_7MatcherINS_3FstIS5_EEEESB_EENS_24GenericComposeStateTableIS5_NS_18TrivialFilterStateENS_24DefaultComposeStateTupleIiSE_EENS_21CompactHashStateTableISG_NS_11ComposeHashISG_EEEEEEE10PropertiesEm
  1507: 000000000019cca0   487 FUNC    WEAK   DEFAULT   12 _ZSt11__make_heapIN9__gnu_cxx17__normal_iteratorIPN3fst6ArcTplINS2_17TropicalWeightTplIfEEEESt6vectorIS6_SaIS6_EEEENS0_5__ops15_Iter_comp_iterINS2_13ILabelCompareIS6_EEEEEvT_SH_RT0_
  1508: 00000000001b7370   237 FUNC    WEAK   DEFAULT   12 _ZNSt10_HashtableIiSt4pairIKiiESaIS2_ENSt8__detail10_Select1stESt8equal_toIiESt4hashIiENS4_18_Mod_range_hashingENS4_20_Default_ranged_hashENS4_20_Prime_rehash_policyENS4_17_Hashtable_traitsILb0ELb0ELb1EEEE21_M_insert_unique_nodeEmmPNS4_10_Hash_nodeIS2_Lb0EEEm
  1509: 0000000000199060   629 FUNC    WEAK   DEFAULT   12 _ZN3fst17ComposeFstMatcherINS_17DefaultCacheStoreINS_6ArcTplINS_16LatticeWeightTplIfEEEEEENS_22LookAheadComposeFilterINS_24AltSequenceComposeFilterINS_16LookAheadMatcherINS_3FstIS5_EEEESC_EESC_SC_LNS_9MatchTypeE3EEENS_24GenericComposeStateTableIS5_NS_18IntegerFilterStateIaEENS_24DefaultComposeStateTupleIiSI_EENS_21CompactHashStateTableISK_NS_11ComposeHashISK_EEEEEEE8FindNextISC_SC_EEbPT_PT0_
  1510: 000000000010e520   231 FUNC    WEAK   DEFAULT   12 _ZN3fst8internal7FstImplINS_10ReverseArcINS_6ArcTplINS_16LatticeWeightTplIfEEEEEEED1Ev
  1511: 00000000001350f0   150 FUNC    WEAK   DEFAULT   12 _ZN3fst16ImplToMutableFstINS_8internal13VectorFstImplINS_11VectorStateINS_6ArcTplINS_16LatticeWeightTplIfEEEESaIS7_EEEEENS_10MutableFstIS7_EEE20MutableOutputSymbolsEv
  1512: 00000000001a8370    16 FUNC    WEAK   DEFAULT   12 _ZNSt23_Sp_counted_ptr_inplaceIN3fst29MutableFastLogAccumulatorDataESaIvELN9__gnu_cxx12_Lock_policyE2EE10_M_disposeEv
  1513: 00000000002461c8    48 OBJECT  WEAK   DEFAULT   21 _ZTVN3fst8internal12NGramFstImplINS_6ArcTplINS_17TropicalWeightTplIfEEEEEE
  1514: 000000000010a680    89 FUNC    WEAK   DEFAULT   12 _ZN3fst8internal15MemoryArenaImplILm264EED1Ev
  1515: 0000000000108510   258 FUNC    WEAK   DEFAULT   12 _ZN3fst17ComposeFstMatcherINS_17DefaultCacheStoreINS_6ArcTplINS_16LatticeWeightTplIfEEEEEENS_22LookAheadComposeFilterINS_21SequenceComposeFilterINS_16LookAheadMatcherINS_3FstIS5_EEEESC_EESC_SC_LNS_9MatchTypeE3EEENS_24GenericComposeStateTableIS5_NS_18IntegerFilterStateIaEENS_24DefaultComposeStateTupleIiSI_EENS_21CompactHashStateTableISK_NS_11ComposeHashISK_EEEEEEE8PriorityEi
  1516: 000000000014e370  2745 FUNC    WEAK   DEFAULT   12 _ZN3fst8internal17ComputePropertiesINS_6ArcTplINS_16LatticeWeightTplIfEEEEEEmRKNS_3FstIT_EEmPm
  1517: 00000000001352f0   174 FUNC    WEAK   DEFAULT   12 _ZN3fst16ImplToMutableFstINS_8internal13VectorFstImplINS_11VectorStateINS_6ArcTplINS_16LatticeWeightTplIfEEEESaIS7_EEEEENS_10MutableFstIS7_EEE11ReserveArcsEim
  1518: 0000000000109980   381 FUNC    WEAK   DEFAULT   12 _ZN3fst9LifoQueueIiE5ClearEv
  1519: 00000000000fdad0     6 FUNC    WEAK   DEFAULT   12 _ZNK3fst8internal14MemoryPoolImplILm1024EE4SizeEv
  1520: 000000000011a680    67 FUNC    WEAK   DEFAULT   12 _ZN3fst10MemoryPoolINS_13PoolAllocatorINS_10ReverseArcINS_6ArcTplINS_16LatticeWeightTplIfEEEEEEE2TNILi64EEEED0Ev
  1521: 00000000001400b0  1559 FUNC    WEAK   DEFAULT   12 _ZN3fst13PoolAllocatorINS_6ArcTplINS_17TropicalWeightTplIfEEEEE10deallocateEPS4_m
  1522: 000000000010b640   117 FUNC    WEAK   DEFAULT   12 _ZN3fst10MemoryPoolINS_13PoolAllocatorIPNSt8__detail15_Hash_node_baseEE2TNILi64EEEED1Ev
  1523: 0000000000116cf0   813 FUNC    WEAK   DEFAULT   12 _ZN4json4JSONC1ERKS0_
  1524: 0000000000100a30     6 FUNC    WEAK   DEFAULT   12 _ZNK3fst17ComposeFstMatcherINS_17DefaultCacheStoreINS_6ArcTplINS_16LatticeWeightTplIfEEEEEENS_21SequenceComposeFilterINS_7MatcherINS_3FstIS5_EEEESB_EENS_24GenericComposeStateTableIS5_NS_18IntegerFilterStateIaEENS_24DefaultComposeStateTupleIiSF_EENS_21CompactHashStateTableISH_NS_11ComposeHashISH_EEEEEEE10PropertiesEm
  1525: 0000000000246b20    56 OBJECT  WEAK   DEFAULT   21 _ZTVSt15_Sp_counted_ptrIPN3fst8internal22DeterminizeFstImplBaseINS0_10ReverseArcINS0_6ArcTplINS0_17TropicalWeightTplIfEEEEEEEELN9__gnu_cxx12_Lock_policyE2EE
  1526: 000000000010e7f0   231 FUNC    WEAK   DEFAULT   12 _ZN3fst8internal7FstImplINS_10ReverseArcINS_6ArcTplINS_23CompactLatticeWeightTplINS_16LatticeWeightTplIfEEiEEEEEEED1Ev
  1527: 00000000001d5060   367 FUNC    WEAK   DEFAULT   12 _ZN3fst8internal17VectorFstBaseImplINS_11VectorStateINS_10ReverseArcINS_6ArcTplINS_17TropicalWeightTplIfEEEEEESaIS8_EEEED2Ev
  1528: 000000000023fff8    24 OBJECT  WEAK   DEFAULT   21 _ZTIN3fst13StateIteratorINS_10ComposeFstINS_6ArcTplINS_16LatticeWeightTplIfEEEENS_17DefaultCacheStoreIS5_EEEEEE
  1529: 00000000001d14e0     1 FUNC    WEAK   DEFAULT   12 _ZN3fst18CacheStateIteratorINS_14DeterminizeFstINS_10ReverseArcINS_6ArcTplINS_17TropicalWeightTplIfEEEEEEEEED1Ev
  1530: 0000000000246de0    24 OBJECT  WEAK   DEFAULT   21 _ZTISt23_Sp_counted_ptr_inplaceIN3fst8internal14ComposeFstImplINS0_17DefaultCacheStoreINS0_6ArcTplINS0_17TropicalWeightTplIfEEEEEENS0_17NullComposeFilterINS0_7MatcherINS0_3FstIS7_EEEESD_EENS0_24GenericComposeStateTableIS7_NS0_18TrivialFilterStateENS0_24DefaultComposeStateTupleIiSG_EENS0_21CompactHashStateTableISI_NS0_11ComposeHashISI_EEEEEEEESaIvELN9__gnu_cxx12_Lock_policyE2EE
  1531: 00000000001d21f0    10 FUNC    WEAK   DEFAULT   12 _ZN3fst13StateIteratorINS_14DeterminizeFstINS_10ReverseArcINS_6ArcTplINS_17TropicalWeightTplIfEEEEEEEEED0Ev
  1532: 0000000000100030    16 FUNC    WEAK   DEFAULT   12 _ZNSt23_Sp_counted_ptr_inplaceIN3fst8internal13VectorFstImplINS0_11VectorStateINS0_6ArcTplINS0_23CompactLatticeWeightTplINS0_16LatticeWeightTplIfEEiEEEESaIS9_EEEEESaIvELN9__gnu_cxx12_Lock_policyE2EE10_M_disposeEv
  1533: 00000000001c9e80    31 FUNC    GLOBAL DEFAULT   12 vosk_recognizer_accept_waveform_f
  1534: 000000000013da00   478 FUNC    WEAK   DEFAULT   12 _ZN3fst8internal13CacheBaseImplINS_10CacheStateINS_6ArcTplINS_16LatticeWeightTplIfEEEENS_13PoolAllocatorIS6_EEEENS_17DefaultCacheStoreIS6_EEEC2ERKNS_16CacheImplOptionsISB_EE
  1535: 00000000001c9be0    19 FUNC    GLOBAL DEFAULT   12 vosk_model_free
  1536: 0000000000120ed0    85 FUNC    WEAK   DEFAULT   12 _ZN3fst9LifoQueueIiE7EnqueueEi
  1537: 00000000001d21d0    10 FUNC    WEAK   DEFAULT   12 _ZN3fst18MutableArcIteratorINS_9VectorFstINS_10ReverseArcINS_6ArcTplINS_17TropicalWeightTplIfEEEEEENS_11VectorStateIS7_SaIS7_EEEEEED0Ev
  1538: 0000000000110ec0    54 FUNC    WEAK   DEFAULT   12 _ZNSt14__shared_countILN9__gnu_cxx12_Lock_policyE2EEC2ERKS2_
  1539: 0000000000241468    16 OBJECT  WEAK   DEFAULT   21 _ZTIN3fst8internal7FstImplINS_10ReverseArcINS_6ArcTplINS_23CompactLatticeWeightTplINS_16LatticeWeightTplIfEEiEEEEEEEE
  1540: 000000000011b8f0    67 FUNC    WEAK   DEFAULT   12 _ZN3fst10MemoryPoolINS_13PoolAllocatorINS_10CacheStateINS_6ArcTplINS_16LatticeWeightTplIfEEEENS1_IS6_EEEEE2TNILi1EEEED0Ev
  1541: 00000000001bdc60   499 FUNC    WEAK   DEFAULT   12 _ZN3fst11IntervalSetIiNS_19VectorIntervalStoreIiEEE9NormalizeEv
  1542: 000000000010eff0   367 FUNC    WEAK   DEFAULT   12 _ZN3fst8internal17VectorFstBaseImplINS_11VectorStateINS_6ArcTplINS_16LatticeWeightTplIfEEEESaIS6_EEEED2Ev
  1543: 00000000001003d0    11 FUNC    WEAK   DEFAULT   12 _ZN3fst18MutableArcIteratorINS_9VectorFstINS_6ArcTplINS_16LatticeWeightTplIfEEEENS_11VectorStateIS5_SaIS5_EEEEEE5ResetEv
  1544: 0000000000241670    24 OBJECT  WEAK   DEFAULT   21 _ZTISt23_Sp_counted_ptr_inplaceIN3fst8internal14ComposeFstImplINS0_17DefaultCacheStoreINS0_6ArcTplINS0_17TropicalWeightTplIfEEEEEENS0_23PushLabelsComposeFilterINS0_24PushWeightsComposeFilterINS0_22LookAheadComposeFilterINS0_24AltSequenceComposeFilterINS0_16LookAheadMatcherINS0_3FstIS7_EEEESG_EESG_SG_LNS0_9MatchTypeE3EEESG_SG_LSI_3EEESG_SG_LSI_3EEENS0_24GenericComposeStateTableIS7_NS0_15PairFilterStateINSN_INS0_18IntegerFilterStateIaEENS0_17WeightFilterStateIS6_EEEENSO_IiEEEENS0_24DefaultComposeStateTupleIiSU_EENS0_21CompactHashStateTableISW_NS0_11ComposeHashISW_EEEEEEEESaIvELN9__gnu_cxx12_Lock_policyE2EE
  1545: 00000000001d2750    10 FUNC    WEAK   DEFAULT   12 _ZNSt23_Sp_counted_ptr_inplaceIN3fst13StringPrinterINS0_6ArcTplINS0_17TropicalWeightTplIfEEEEEESaIvELN9__gnu_cxx12_Lock_policyE2EE10_M_destroyEv
  1546: 0000000000102f40    74 FUNC    WEAK   DEFAULT   12 _ZNK3fst8internal14ComposeFstImplINS_17DefaultCacheStoreINS_6ArcTplINS_17TropicalWeightTplIfEEEEEENS_23PushLabelsComposeFilterINS_24PushWeightsComposeFilterINS_22LookAheadComposeFilterINS_21SequenceComposeFilterINS_16LookAheadMatcherINS_3FstIS6_EEEESF_EESF_SF_LNS_9MatchTypeE3EEESF_SF_LSH_3EEESF_SF_LSH_3EEENS_24GenericComposeStateTableIS6_NS_15PairFilterStateINSM_INS_18IntegerFilterStateIaEENS_17WeightFilterStateIS5_EEEENSN_IiEEEENS_24DefaultComposeStateTupleIiST_EENS_21CompactHashStateTableISV_NS_11ComposeHashISV_EEEEEEE11InitMatcherERKNS_10ComposeFstIS6_S7_EESH_
  1547: 00000000000fdc20     6 FUNC    WEAK   DEFAULT   12 _ZNK3fst8internal15MemoryArenaImplILm24EE4SizeEv
  1548: 000000000017df90   351 FUNC    WEAK   DEFAULT   12 _ZN3fst16ImplToMutableFstINS_8internal13VectorFstImplINS_11VectorStateINS_6ArcTplINS_17TropicalWeightTplIfEEEESaIS7_EEEEENS_10MutableFstIS7_EEE11ReserveArcsEim
  1549: 00000000001b0ec0    99 FUNC    WEAK   DEFAULT   12 _ZNSt11_Deque_baseIPN3fst8internal8DfsStateINS0_3FstINS0_6ArcTplINS0_17TropicalWeightTplIfEEEEEEEESaISA_EED1Ev
  1550: 000000000024b060     8 OBJECT  <OS specific>: 10 DEFAULT   25 _ZZN3fst10ReverseArcINS_6ArcTplINS_16LatticeWeightTplIfEEEEE4TypeB5cxx11EvE4type
  1551: 00000000000fdc60     6 FUNC    WEAK   DEFAULT   12 _ZNK3fst8internal15MemoryArenaImplILm80EE4SizeEv
  1552: 0000000000110370   472 FUNC    WEAK   DEFAULT   12 _ZN3fst8internal17VectorFstBaseImplINS_11VectorStateINS_10ReverseArcINS_6ArcTplINS_23CompactLatticeWeightTplINS_16LatticeWeightTplIfEEiEEEEEESaISA_EEEED2Ev
  1553: 000000000011aa30    67 FUNC    WEAK   DEFAULT   12 _ZN3fst10MemoryPoolINS_13PoolAllocatorINS_6ArcTplINS_16LatticeWeightTplIfEEEEE2TNILi8EEEED0Ev
  1554: 00000000001f26b0   447 FUNC    WEAK   DEFAULT   12 _ZNK3fst9ImplToFstINS_8internal22DeterminizeFstImplBaseINS_10ReverseArcINS_6ArcTplINS_17TropicalWeightTplIfEEEEEEEENS_3FstIS8_EEE5FinalEi
  1555: 0000000000208860    41 OBJECT  WEAK   DEFAULT   14 _ZTSN3fst8internal15MemoryArenaImplILm168EEE
  1556: 0000000000116930   435 FUNC    WEAK   DEFAULT   12 _ZNSt8_Rb_treeINSt7__cxx1112basic_stringIcSt11char_traitsIcESaIcEEESt4pairIKS5_N4json4JSONEESt10_Select1stISA_ESt4lessIS5_ESaISA_EE29_M_get_insert_hint_unique_posESt23_Rb_tree_const_iteratorISA_ERS7_
  1557: 000000000017c430  1732 FUNC    WEAK   DEFAULT   12 _ZN3fst8internal13VectorFstImplINS_11VectorStateINS_6ArcTplINS_17TropicalWeightTplIfEEEESaIS6_EEEEC2ERKNS_3FstIS6_EE
  1558: 0000000000108fa0    75 FUNC    WEAK   DEFAULT   12 _ZNSt23_Sp_counted_ptr_inplaceIN3fst8internal14ComposeFstImplINS0_17DefaultCacheStoreINS0_6ArcTplINS0_16LatticeWeightTplIfEEEEEENS0_24AltSequenceComposeFilterINS0_7MatcherINS0_3FstIS7_EEEESD_EENS0_24GenericComposeStateTableIS7_NS0_18IntegerFilterStateIaEENS0_24DefaultComposeStateTupleIiSH_EENS0_21CompactHashStateTableISJ_NS0_11ComposeHashISJ_EEEEEEEESaIvELN9__gnu_cxx12_Lock_policyE2EE14_M_get_deleterERKSt9type_info
  1559: 0000000000245a30    24 OBJECT  WEAK   DEFAULT   21 _ZTIN3fst11FstRegisterINS_6ArcTplINS_17TropicalWeightTplIfEEEEEE
  1560: 0000000000207260   383 OBJECT  WEAK   DEFAULT   14 _ZTSSt23_Sp_counted_ptr_inplaceIN3fst8internal14ComposeFstImplINS0_17DefaultCacheStoreINS0_6ArcTplINS0_17TropicalWeightTplIfEEEEEENS0_21SequenceComposeFilterINS0_7MatcherINS0_3FstIS7_EEEESD_EENS0_24GenericComposeStateTableIS7_NS0_18IntegerFilterStateIaEENS0_24DefaultComposeStateTupleIiSH_EENS0_21CompactHashStateTableISJ_NS0_11ComposeHashISJ_EEEEEEEESaIvELN9__gnu_cxx12_Lock_policyE2EE
  1561: 00000000001a7d90     1 FUNC    WEAK   DEFAULT   12 _ZNSt15_Sp_counted_ptrIPN3fst9AddOnPairINS0_18LabelReachableDataIiEES3_EELN9__gnu_cxx12_Lock_policyE2EED1Ev
  1562: 00000000001e1bf0   201 FUNC    WEAK   DEFAULT   12 _ZNSt23_Sp_counted_ptr_inplaceIN3fst8internal14ComposeFstImplINS0_17DefaultCacheStoreINS0_6ArcTplINS0_17TropicalWeightTplIfEEEEEENS0_18MatchComposeFilterINS0_7MatcherINS0_3FstIS7_EEEESD_EENS0_24GenericComposeStateTableIS7_NS0_18IntegerFilterStateIaEENS0_24DefaultComposeStateTupleIiSH_EENS0_21CompactHashStateTableISJ_NS0_11ComposeHashISJ_EEEEEEEESaIvELN9__gnu_cxx12_Lock_policyE2EE10_M_disposeEv
  1563: 00000000001c9e60    31 FUNC    GLOBAL DEFAULT   12 vosk_recognizer_accept_waveform_s
  1564: 0000000000112330   466 FUNC    WEAK   DEFAULT   12 _ZN3fst9VectorFstINS_6ArcTplINS_23CompactLatticeWeightTplINS_16LatticeWeightTplIfEEiEEEENS_11VectorStateIS6_SaIS6_EEEEC2Ev
  1565: 00000000000fedf0    11 FUNC    WEAK   DEFAULT   12 _ZNK3fst9ImplToFstINS_8internal13ArcMapFstImplINS_6ArcTplINS_17TropicalWeightTplIfEEEENS3_INS_16LatticeWeightTplIfEEEENS_18StdToLatticeMapperIfEEEENS_3FstIS9_EEE4TypeB5cxx11Ev
  1566: 00000000002419b8    24 OBJECT  WEAK   DEFAULT   21 _ZTIN3fst10MemoryPoolINS_13PoolAllocatorINS_6ArcTplINS_16LatticeWeightTplIfEEEEE2TNILi1EEEEE
  1567: 0000000000246cf8    24 OBJECT  WEAK   DEFAULT   21 _ZTISt23_Sp_counted_ptr_inplaceIN3fst14StringCompilerINS0_6ArcTplINS0_17TropicalWeightTplIfEEEEEESaIvELN9__gnu_cxx12_Lock_policyE2EE
  1568: 0000000000208be0    42 OBJECT  WEAK   DEFAULT   14 _ZTSN3fst8internal15MemoryArenaImplILm1032EEE
  1569: 000000000010dd30    46 FUNC    WEAK   DEFAULT   12 _ZN3fst9ArcMapFstINS_6ArcTplINS_17TropicalWeightTplIfEEEENS1_INS_16LatticeWeightTplIfEEEENS_18StdToLatticeMapperIfEEED0Ev
  1570: 0000000000101480    70 FUNC    WEAK   DEFAULT   12 _ZNK3fst17ComposeFstMatcherINS_17DefaultCacheStoreINS_6ArcTplINS_17TropicalWeightTplIfEEEEEENS_21SequenceComposeFilterINS_7MatcherINS_3FstIS5_EEEESB_EENS_24GenericComposeStateTableIS5_NS_18IntegerFilterStateIaEENS_24DefaultComposeStateTupleIiSF_EENS_21CompactHashStateTableISH_NS_11ComposeHashISH_EEEEEEE4DoneEv
  1571: 00000000002030a0    83 OBJECT  WEAK   DEFAULT   14 _ZTSN3fst3FstINS_6ArcTplINS_23CompactLatticeWeightTplINS_16LatticeWeightTplIfEEiEEEEEE
  1572: 000000000020d5c0   108 OBJECT  WEAK   DEFAULT   14 _ZTSN3fst10MemoryPoolINS_13PoolAllocatorINS_10ReverseArcINS_6ArcTplINS_17TropicalWeightTplIfEEEEEEE2TNILi1EEEEE
  1573: 00000000001ab050  1132 FUNC    WEAK   DEFAULT   12 _ZN5kaldi12ParseOptionsC1EPKc
  1574: 00000000000fe590     3 FUNC    WEAK   DEFAULT   12 _ZNK3fst3FstINS_10ReverseArcINS_6ArcTplINS_16LatticeWeightTplIfEEEEEEE11InitMatcherENS_9MatchTypeE
  1575: 00000000001072b0    55 FUNC    WEAK   DEFAULT   12 _ZN3fst8SccQueueIiNS_9QueueBaseIiEEED2Ev
  1576: 000000000020a340   199 OBJECT  WEAK   DEFAULT   14 _ZTSN3fst21LabelLookAheadMatcherINS_13SortedMatcherINS_8ConstFstINS_6ArcTplINS_17TropicalWeightTplIfEEEEjEEEELj1760ENS_18FastLogAccumulatorIS6_EENS_14LabelReachableIS6_SA_NS_18LabelReachableDataIiEEEEEE
  1577: 000000000010a740   117 FUNC    WEAK   DEFAULT   12 _ZN3fst10MemoryPoolINS_13PoolAllocatorINS_6ArcTplINS_16LatticeWeightTplIfEEEEE2TNILi32EEEED1Ev
  1578: 00000000001c3140   469 FUNC    WEAK   DEFAULT   12 _ZN3fst11make_uniqueINS_11ArcIteratorINS_8NGramFstINS_6ArcTplINS_17TropicalWeightTplIfEEEEEEEEJRKS7_RiEEESt10unique_ptrIT_St14default_deleteISD_EEDpOT0_
  1579: 000000000020cc20   152 OBJECT  WEAK   DEFAULT   14 _ZTSSt15_Sp_counted_ptrIPN3fst8internal13VectorFstImplINS0_11VectorStateINS0_6ArcTplINS0_17TropicalWeightTplIfEEEESaIS7_EEEEELN9__gnu_cxx12_Lock_policyE2EE
  1580: 00000000001d51d0   367 FUNC    WEAK   DEFAULT   12 _ZN3fst8internal13VectorFstImplINS_11VectorStateINS_10ReverseArcINS_6ArcTplINS_17TropicalWeightTplIfEEEEEESaIS8_EEEED2Ev
  1581: 000000000010bf40   117 FUNC    WEAK   DEFAULT   12 _ZN3fst10MemoryPoolINS_13PoolAllocatorINS_6ArcTplINS_16LatticeWeightTplIfEEEEE2TNILi2EEEED1Ev
  1582: 00000000001b8320  2650 FUNC    WEAK   DEFAULT   12 _ZN3fst8internal9AddOnImplINS_8ConstFstINS_6ArcTplINS_17TropicalWeightTplIfEEEEjEENS_9AddOnPairINS_18LabelReachableDataIiEESA_EEE4ReadERSiRKNS_14FstReadOptionsE
  1583: 00000000000fe9c0     1 FUNC    WEAK   DEFAULT   12 _ZN3fst9FifoQueueIiE6UpdateEi
  1584: 0000000000240b48    24 OBJECT  WEAK   DEFAULT   21 _ZTIN3fst8internal14MemoryPoolImplILm24EEE
  1585: 0000000000241240    24 OBJECT  WEAK   DEFAULT   21 _ZTIN3fst10MemoryPoolINS_8internal8DfsStateINS_10MutableFstINS_6ArcTplINS_23CompactLatticeWeightTplINS_16LatticeWeightTplIfEEiEEEEEEEEEE
  1586: 0000000000168cd0  1222 FUNC    WEAK   DEFAULT   12 _ZNSt6vectorIPN3fst10CacheStateINS0_10ReverseArcINS0_6ArcTplINS0_16LatticeWeightTplIfEEEEEENS0_13PoolAllocatorIS7_EEEESaISB_EE14_M_fill_insertEN9__gnu_cxx17__normal_iteratorIPSB_SD_EEmRKSB_
  1587: 0000000000188060  2421 FUNC    WEAK   DEFAULT   12 _ZN3fst8internal14ComposeFstImplINS_17DefaultCacheStoreINS_6ArcTplINS_17TropicalWeightTplIfEEEEEENS_23PushLabelsComposeFilterINS_24PushWeightsComposeFilterINS_22LookAheadComposeFilterINS_21SequenceComposeFilterINS_16LookAheadMatcherINS_3FstIS6_EEEESF_EESF_SF_LNS_9MatchTypeE3EEESF_SF_LSH_3EEESF_SF_LSH_3EEENS_24GenericComposeStateTableIS6_NS_15PairFilterStateINSM_INS_18IntegerFilterStateIaEENS_17WeightFilterStateIS5_EEEENSN_IiEEEENS_24DefaultComposeStateTupleIiST_EENS_21CompactHashStateTableISV_NS_11ComposeHashISV_EEEEEEE8MatchArcINS_15MultiEpsMatcherISF_EEEEviPT_RKS6_b
  1588: 00000000001e0390   771 FUNC    WEAK   DEFAULT   12 _ZN3fst8internal9CacheImplINS_10ReverseArcINS_6ArcTplINS_17TropicalWeightTplIfEEEEEEED0Ev
  1589: 00000000001d45f0   173 FUNC    WEAK   DEFAULT   12 _ZN3fst17ComposeFstMatcherINS_17DefaultCacheStoreINS_6ArcTplINS_17TropicalWeightTplIfEEEEEENS_24AltSequenceComposeFilterINS_7MatcherINS_3FstIS5_EEEESB_EENS_24GenericComposeStateTableIS5_NS_18IntegerFilterStateIaEENS_24DefaultComposeStateTupleIiSF_EENS_21CompactHashStateTableISH_NS_11ComposeHashISH_EEEEEEED2Ev
  1590: 00000000001a8050    57 FUNC    WEAK   DEFAULT   12 _ZNK3fst10MatcherFstINS_8ConstFstINS_6ArcTplINS_17TropicalWeightTplIfEEEEjEENS_21LabelLookAheadMatcherINS_13SortedMatcherIS6_EELj1760ENS_18FastLogAccumulatorIS5_EENS_14LabelReachableIS5_SB_NS_18LabelReachableDataIiEEEEEEXadL_ZNS_25olabel_lookahead_fst_typeEEENS_23LabelLookAheadRelabelerIS5_SE_EENS_9AddOnPairISE_SE_EEE17InitStateIteratorEPNS_17StateIteratorDataIS5_EE
  1591: 00000000001700b0   174 FUNC    WEAK   DEFAULT   12 _ZN3fst16ImplToMutableFstINS_8internal13VectorFstImplINS_11VectorStateINS_10ReverseArcINS_6ArcTplINS_16LatticeWeightTplIfEEEEEESaIS9_EEEEENS_10MutableFstIS9_EEE11ReserveArcsEim
  1592: 0000000000245e08    40 OBJECT  WEAK   DEFAULT   21 _ZTVN3fst10MemoryPoolINS_11ArcIteratorINS_8ConstFstINS_6ArcTplINS_17TropicalWeightTplIfEEEEjEEEEEE
  1593: 0000000000245990    24 OBJECT  WEAK   DEFAULT   21 _ZTIN3fst20LookAheadMatcherBaseINS_6ArcTplINS_17TropicalWeightTplIfEEEEEE
  1594: 00000000001c9ff0   219 FUNC    GLOBAL DEFAULT   12 vosk_text_processor_new
  1595: 00000000002454f8    40 OBJECT  WEAK   DEFAULT   21 _ZTVN3fst8internal14MemoryPoolImplILm1280EEE
  1596: 00000000001b1ea0   157 FUNC    WEAK   DEFAULT   12 _ZN3fst8internal15MemoryArenaImplILm56EEC2Em
  1597: 0000000000180770   531 FUNC    WEAK   DEFAULT   12 _ZNK3fst9ArcMapFstINS_6ArcTplINS_17TropicalWeightTplIfEEEES4_NS_28RemoveSomeInputSymbolsMapperIS4_iEEE4CopyEb
  1598: 0000000000246db0    24 OBJECT  WEAK   DEFAULT   21 _ZTISt15_Sp_counted_ptrIPN3fst8internal13VectorFstImplINS0_11VectorStateINS0_6ArcTplINS0_17TropicalWeightTplIfEEEESaIS7_EEEEELN9__gnu_cxx12_Lock_policyE2EE
  1599: 00000000001de930   351 FUNC    WEAK   DEFAULT   12 _ZN3fst20MemoryPoolCollection4PoolINS_13PoolAllocatorINS_10ReverseArcINS_6ArcTplINS_17TropicalWeightTplIfEEEEEEE2TNILi8EEEEEPNS_10MemoryPoolIT_EEv
  1600: 0000000000101d40    12 FUNC    WEAK   DEFAULT   12 _ZNK3fst8internal7FstImplINS_10ReverseArcINS_6ArcTplINS_16LatticeWeightTplIfEEEEEEE10PropertiesEm
  1601: 000000000020a840    61 OBJECT  WEAK   DEFAULT   14 _ZTSN3fst11FstRegisterINS_6ArcTplINS_17TropicalWeightTplIfEEEEEE
  1602: 00000000001d75a0  1769 FUNC    WEAK   DEFAULT   12 _ZN3fst8internal21LabelsToNumericStringIiEEbRKSt6vectorIT_SaIS3_EEPNSt7__cxx1112basic_stringIcSt11char_traitsIcESaIcEEERKSD_b
  1603: 00000000001c9da0    15 FUNC    GLOBAL DEFAULT   12 vosk_recognizer_set_partial_words
  1604: 0000000000205780   304 OBJECT  WEAK   DEFAULT   14 _ZTSN3fst8internal14ComposeFstImplINS_17DefaultCacheStoreINS_6ArcTplINS_16LatticeWeightTplIfEEEEEENS_20TrivialComposeFilterINS_7MatcherINS_3FstIS6_EEEESC_EENS_24GenericComposeStateTableIS6_NS_18TrivialFilterStateENS_24DefaultComposeStateTupleIiSF_EENS_21CompactHashStateTableISH_NS_11ComposeHashISH_EEEEEEEE
  1605: 0000000000115810   134 FUNC    WEAK   DEFAULT   12 _ZN3fst11make_uniqueINS_9LifoQueueIiEEJEEESt10unique_ptrIT_St14default_deleteIS4_EEDpOT0_
  1606: 00000000001c6ae0   690 FUNC    WEAK   DEFAULT   12 _ZNK3fst11ArcIteratorINS_8NGramFstINS_6ArcTplINS_17TropicalWeightTplIfEEEEEEE5ValueEv
  1607: 00000000001de190   422 FUNC    WEAK   DEFAULT   12 _ZNK3fst8internal14ComposeFstImplINS_17DefaultCacheStoreINS_6ArcTplINS_17TropicalWeightTplIfEEEEEENS_17NullComposeFilterINS_7MatcherINS_3FstIS6_EEEESC_EENS_24GenericComposeStateTableIS6_NS_18TrivialFilterStateENS_24DefaultComposeStateTupleIiSF_EENS_21CompactHashStateTableISH_NS_11ComposeHashISH_EEEEEEE11InitMatcherERKNS_10ComposeFstIS6_S7_EENS_9MatchTypeE
  1608: 00000000001ee090  1741 FUNC    WEAK   DEFAULT   12 _ZN3fst8internal18ComposeFstImplBaseINS_6ArcTplINS_17TropicalWeightTplIfEEEENS_17DefaultCacheStoreIS5_EENS_10ComposeFstIS5_S7_EEEC1ERKSA_
  1609: 00000000001d4260   117 FUNC    WEAK   DEFAULT   12 _ZN3fst10MemoryPoolINS_13PoolAllocatorINS_10CacheStateINS_10ReverseArcINS_6ArcTplINS_17TropicalWeightTplIfEEEEEENS1_IS8_EEEEE2TNILi1EEEED2Ev
  1610: 0000000000244130    88 OBJECT  WEAK   DEFAULT   21 _ZTVN3fst8internal14ComposeFstImplINS_17DefaultCacheStoreINS_6ArcTplINS_16LatticeWeightTplIfEEEEEENS_20NoMatchComposeFilterINS_7MatcherINS_3FstIS6_EEEESC_EENS_24GenericComposeStateTableIS6_NS_18TrivialFilterStateENS_24DefaultComposeStateTupleIiSF_EENS_21CompactHashStateTableISH_NS_11ComposeHashISH_EEEEEEEE
  1611: 0000000000241b50    24 OBJECT  WEAK   DEFAULT   21 _ZTIN3fst8internal15MemoryArenaImplILm1032EEE
  1612: 00000000001af360   951 FUNC    WEAK   DEFAULT   12 _ZN5kaldi18ReadConfigFromFileINS_11MfccOptionsEEEvRKNSt7__cxx1112basic_stringIcSt11char_traitsIcESaIcEEEPT_
  1613: 0000000000100330     9 FUNC    WEAK   DEFAULT   12 _ZN3fst18MutableArcIteratorINS_9VectorFstINS_6ArcTplINS_23CompactLatticeWeightTplINS_16LatticeWeightTplIfEEiEEEENS_11VectorStateIS7_SaIS7_EEEEEE4SeekEm
  1614: 00000000001311e0  1105 FUNC    WEAK   DEFAULT   12 _ZN3fst8internal14ComposeFstImplINS_17DefaultCacheStoreINS_6ArcTplINS_17TropicalWeightTplIfEEEEEENS_21SequenceComposeFilterINS_7MatcherINS_3FstIS6_EEEESC_EENS_24GenericComposeStateTableIS6_NS_18IntegerFilterStateIaEENS_24DefaultComposeStateTupleIiSG_EENS_21CompactHashStateTableISI_NS_11ComposeHashISI_EEEEEEE12SetMatchTypeEv
  1615: 00000000001261f0   646 FUNC    WEAK   DEFAULT   12 _ZNK3fst8internal19ShortestPathCompareIiNS_16LatticeWeightTplIfEEEclEii
  1616: 00000000001a9fe0    75 FUNC    WEAK   DEFAULT   12 _ZNSt23_Sp_counted_ptr_inplaceIN3fst9AddOnPairINS0_18LabelReachableDataIiEES3_EESaIvELN9__gnu_cxx12_Lock_policyE2EE14_M_get_deleterERKSt9type_info
  1617: 000000000010de20    37 FUNC    WEAK   DEFAULT   12 _ZN3fst9VectorFstINS_6ArcTplINS_16LatticeWeightTplIfEEEENS_11VectorStateIS4_SaIS4_EEEED2Ev
  1618: 000000000010a140    89 FUNC    WEAK   DEFAULT   12 _ZN3fst8internal15MemoryArenaImplILm1288EED2Ev
  1619: 00000000001489d0     5 FUNC    WEAK   DEFAULT   12 _ZNK3fst9VectorFstINS_6ArcTplINS_23CompactLatticeWeightTplINS_16LatticeWeightTplIfEEiEEEENS_11VectorStateIS6_SaIS6_EEEE5WriteERKNSt7__cxx1112basic_stringIcSt11char_traitsIcESaIcEEE
  1620: 0000000000101d50     7 FUNC    WEAK   DEFAULT   12 _ZNK3fst8internal7FstImplINS_10ReverseArcINS_6ArcTplINS_16LatticeWeightTplIfEEEEEEE10PropertiesEv
  1621: 00000000000feb20    54 FUNC    WEAK   DEFAULT   12 _ZN3fst13TopOrderQueueIiE5ClearEv
  1622: 000000000014adf0   197 FUNC    WEAK   DEFAULT   12 _ZNSt6vectorIPN3fst11VectorStateINS0_10ReverseArcINS0_6ArcTplINS0_16LatticeWeightTplIfEEEEEESaIS7_EEESaISA_EE7reserveEm
  1623: 0000000000101ab0    10 FUNC    WEAK   DEFAULT   12 _ZNSt15_Sp_counted_ptrIPN3fst8internal22DeterminizeFstImplBaseINS0_10ReverseArcINS0_6ArcTplINS0_16LatticeWeightTplIfEEEEEEEELN9__gnu_cxx12_Lock_policyE2EE10_M_destroyEv
  1624: 00000000001012a0    17 FUNC    WEAK   DEFAULT   12 _ZNK3fst17ComposeFstMatcherINS_17DefaultCacheStoreINS_6ArcTplINS_16LatticeWeightTplIfEEEEEENS_20TrivialComposeFilterINS_7MatcherINS_3FstIS5_EEEESB_EENS_24GenericComposeStateTableIS5_NS_18TrivialFilterStateENS_24DefaultComposeStateTupleIiSE_EENS_21CompactHashStateTableISG_NS_11ComposeHashISG_EEEEEEE5ValueEv
  1625: 000000000016f9d0   141 FUNC    WEAK   DEFAULT   12 _ZN3fst9VectorFstINS_10ReverseArcINS_6ArcTplINS_16LatticeWeightTplIfEEEEEENS_11VectorStateIS6_SaIS6_EEEEaSERKNS_3FstIS6_EE
  1626: 00000000002064c0   109 OBJECT  WEAK   DEFAULT   14 _ZTSN3fst10MutableFstINS_10ReverseArcINS_6ArcTplINS_23CompactLatticeWeightTplINS_16LatticeWeightTplIfEEiEEEEEEEE
  1627: 00000000001c6860   639 FUNC    WEAK   DEFAULT   12 _ZNK3fst8internal12NGramFstImplINS_6ArcTplINS_17TropicalWeightTplIfEEEEE10TransitionERKSt6vectorIiSaIiEEi
  1628: 0000000000130b50    39 FUNC    WEAK   DEFAULT   12 _ZNSt6vectorIPN3fst8internal21DeterminizeStateTupleINS0_10ReverseArcINS0_6ArcTplINS0_16LatticeWeightTplIfEEEEEENS0_18IntegerFilterStateIaEEEESaISC_EED2Ev
  1629: 000000000014a6e0   588 FUNC    WEAK   DEFAULT   12 _ZNK3fst17ComposeFstMatcherINS_17DefaultCacheStoreINS_6ArcTplINS_16LatticeWeightTplIfEEEEEENS_18MatchComposeFilterINS_7MatcherINS_3FstIS5_EEEESB_EENS_24GenericComposeStateTableIS5_NS_18IntegerFilterStateIaEENS_24DefaultComposeStateTupleIiSF_EENS_21CompactHashStateTableISH_NS_11ComposeHashISH_EEEEEEE4CopyEb
  1630: 00000000001002b0    42 FUNC    WEAK   DEFAULT   12 _ZNK3fst18MutableArcIteratorINS_9VectorFstINS_6ArcTplINS_23CompactLatticeWeightTplINS_16LatticeWeightTplIfEEiEEEENS_11VectorStateIS7_SaIS7_EEEEEE4DoneEv
  1631: 0000000000100310     7 FUNC    WEAK   DEFAULT   12 _ZNK3fst18MutableArcIteratorINS_9VectorFstINS_6ArcTplINS_23CompactLatticeWeightTplINS_16LatticeWeightTplIfEEiEEEENS_11VectorStateIS7_SaIS7_EEEEEE8PositionEv
  1632: 0000000000206200   114 OBJECT  WEAK   DEFAULT   14 _ZTSN3fst8internal7FstImplINS_10ReverseArcINS_6ArcTplINS_23CompactLatticeWeightTplINS_16LatticeWeightTplIfEEiEEEEEEEE
  1633: 000000000011db30   769 FUNC    WEAK   DEFAULT   12 _ZSt11__push_heapIN9__gnu_cxx17__normal_iteratorIPiSt6vectorIiSaIiEEEEliNS0_5__ops14_Iter_comp_valIN3fst8internal19ShortestPathCompareIiNS9_16LatticeWeightTplIfEEEEEEEvT_T0_SH_T1_RT2_
  1634: 0000000000240fc8    24 OBJECT  WEAK   DEFAULT   21 _ZTIN3fst13TopOrderQueueIiEE
  1635: 00000000001962e0   281 FUNC    WEAK   DEFAULT   12 _ZNSt10_HashtableIiiN3fst13PoolAllocatorIiEENSt8__detail9_IdentityENS0_18CompactHashBiTableIiPNS0_8internal21DeterminizeStateTupleINS0_10ReverseArcINS0_6ArcTplINS0_16LatticeWeightTplIfEEEEEENS0_18IntegerFilterStateIaEEEENS0_28DefaultDeterminizeStateTableISD_SF_E13StateTupleKeyENSJ_15StateTupleEqualELNS0_6HSTypeE0EE9HashEqualENSN_8HashFuncENS3_18_Mod_range_hashingENS3_20_Default_ranged_hashENS3_20_Prime_rehash_policyENS3_17_Hashtable_traitsILb1ELb1ELb1EEEE9_M_rehashEmRKm
  1636: 000000000019a6e0   552 FUNC    GLOBAL DEFAULT   12 _ZN22LanguageModelEstimator9AddCountsERKSt6vectorIiSaIiEE
  1637: 00000000001e16a0   173 FUNC    WEAK   DEFAULT   12 _ZN3fst8internal14ComposeFstImplINS_17DefaultCacheStoreINS_6ArcTplINS_17TropicalWeightTplIfEEEEEENS_17NullComposeFilterINS_7MatcherINS_3FstIS6_EEEESC_EENS_24GenericComposeStateTableIS6_NS_18TrivialFilterStateENS_24DefaultComposeStateTupleIiSF_EENS_21CompactHashStateTableISH_NS_11ComposeHashISH_EEEEEEED0Ev
  1638: 000000000011dfe0   269 FUNC    WEAK   DEFAULT   12 _ZNSt10_HashtableIPKSt6vectorIN3fst19LatticeDeterminizerINS1_16LatticeWeightTplIfEEiE7ElementESaIS6_EESt4pairIKSA_iESaISD_ENSt8__detail10_Select1stENS5_11SubsetEqualENS5_9SubsetKeyENSF_18_Mod_range_hashingENSF_20_Default_ranged_hashENSF_20_Prime_rehash_policyENSF_17_Hashtable_traitsILb1ELb0ELb1EEEE4swapERSO_
  1639: 00000000001161c0   135 FUNC    WEAK   DEFAULT   12 _ZNSt10_HashtableIPKSt6vectorIN3fst19LatticeDeterminizerINS1_16LatticeWeightTplIfEEiE7ElementESaIS6_EESt4pairIKSA_iESaISD_ENSt8__detail10_Select1stENS5_11SubsetEqualENS5_9SubsetKeyENSF_18_Mod_range_hashingENSF_20_Default_ranged_hashENSF_20_Prime_rehash_policyENSF_17_Hashtable_traitsILb1ELb0ELb1EEEED1Ev
  1640: 00000000002451a0    40 OBJECT  WEAK   DEFAULT   21 _ZTVN3fst8internal15MemoryArenaImplILm520EEE
  1641: 000000000013cbe0   173 FUNC    WEAK   DEFAULT   12 _ZN3fst8internal14ComposeFstImplINS_17DefaultCacheStoreINS_6ArcTplINS_16LatticeWeightTplIfEEEEEENS_21SequenceComposeFilterINS_7MatcherINS_3FstIS6_EEEESC_EENS_24GenericComposeStateTableIS6_NS_18IntegerFilterStateIaEENS_24DefaultComposeStateTupleIiSG_EENS_21CompactHashStateTableISI_NS_11ComposeHashISI_EEEEEEED0Ev
  1642: 0000000000246528    56 OBJECT  WEAK   DEFAULT   21 _ZTVSt19_Sp_counted_deleterIPN3fst18LabelReachableDataIiEESt14default_deleteIS2_ESaIvELN9__gnu_cxx12_Lock_policyE2EE
  1643: 00000000001b1d50   326 FUNC    WEAK   DEFAULT   12 _ZNSt11_Deque_baseIPN3fst8internal8DfsStateINS0_3FstINS0_6ArcTplINS0_17TropicalWeightTplIfEEEEEEEESaISA_EE17_M_initialize_mapEm
  1644: 00000000001476c0   451 FUNC    WEAK   DEFAULT   12 _ZN3fst8internal13VectorFstImplINS_11VectorStateINS_10ReverseArcINS_6ArcTplINS_16LatticeWeightTplIfEEEEEESaIS8_EEEE8SetFinalEiS6_
  1645: 0000000000138f80   146 FUNC    WEAK   DEFAULT   12 _ZNSt6vectorISt10unique_ptrIN3fst14MemoryPoolBaseESt14default_deleteIS2_EESaIS5_EE6resizeEm
  1646: 000000000020a780   163 OBJECT  WEAK   DEFAULT   14 _ZTSN3fst15GenericRegisterINSt7__cxx1112basic_stringIcSt11char_traitsIcESaIcEEENS_16FstRegisterEntryINS_6ArcTplINS_17TropicalWeightTplIfEEEEEENS_11FstRegisterISB_EEEE
  1647: 000000000020c860   306 OBJECT  WEAK   DEFAULT   14 _ZTSN3fst8internal14ComposeFstImplINS_17DefaultCacheStoreINS_6ArcTplINS_17TropicalWeightTplIfEEEEEENS_18MatchComposeFilterINS_7MatcherINS_3FstIS6_EEEESC_EENS_24GenericComposeStateTableIS6_NS_18IntegerFilterStateIaEENS_24DefaultComposeStateTupleIiSG_EENS_21CompactHashStateTableISI_NS_11ComposeHashISI_EEEEEEEE
  1648: 00000000001a8450     7 FUNC    WEAK   DEFAULT   12 _ZNK3fst11ArcIteratorINS_8NGramFstINS_6ArcTplINS_17TropicalWeightTplIfEEEEEEE8PositionEv
  1649: 0000000000101bb0    10 FUNC    WEAK   DEFAULT   12 _ZNSt15_Sp_counted_ptrIPN3fst8internal18ComposeFstImplBaseINS0_6ArcTplINS0_17TropicalWeightTplIfEEEENS0_17DefaultCacheStoreIS6_EENS0_10ComposeFstIS6_S8_EEEELN9__gnu_cxx12_Lock_policyE2EED0Ev
  1650: 0000000000202080   113 OBJECT  WEAK   DEFAULT   14 _ZTSN3fst18CacheStateIteratorINS_10ComposeFstINS_6ArcTplINS_16LatticeWeightTplIfEEEENS_17DefaultCacheStoreIS5_EEEEEE
  1651: 00000000001e1400   160 FUNC    WEAK   DEFAULT   12 _ZN3fst8internal14ComposeFstImplINS_17DefaultCacheStoreINS_6ArcTplINS_17TropicalWeightTplIfEEEEEENS_18MatchComposeFilterINS_7MatcherINS_3FstIS6_EEEESC_EENS_24GenericComposeStateTableIS6_NS_18IntegerFilterStateIaEENS_24DefaultComposeStateTupleIiSG_EENS_21CompactHashStateTableISI_NS_11ComposeHashISI_EEEEEEED1Ev
  1652: 00000000001e5300   588 FUNC    WEAK   DEFAULT   12 _ZNK3fst17ComposeFstMatcherINS_17DefaultCacheStoreINS_6ArcTplINS_17TropicalWeightTplIfEEEEEENS_20NoMatchComposeFilterINS_7MatcherINS_3FstIS5_EEEESB_EENS_24GenericComposeStateTableIS5_NS_18TrivialFilterStateENS_24DefaultComposeStateTupleIiSE_EENS_21CompactHashStateTableISG_NS_11ComposeHashISG_EEEEEEE4CopyEb
  1653: 0000000000208b80    90 OBJECT  WEAK   DEFAULT   14 _ZTSN3fst10MemoryPoolINS_13PoolAllocatorINS_6ArcTplINS_16LatticeWeightTplIfEEEEE2TNILi64EEEEE
  1654: 0000000000242348    48 OBJECT  WEAK   DEFAULT   21 _ZTVN3fst8internal7FstImplINS_6ArcTplINS_23CompactLatticeWeightTplINS_16LatticeWeightTplIfEEiEEEEEE
  1655: 00000000001015a0     6 FUNC    WEAK   DEFAULT   12 _ZNK3fst18MutableArcIteratorINS_9VectorFstINS_10ReverseArcINS_6ArcTplINS_23CompactLatticeWeightTplINS_16LatticeWeightTplIfEEiEEEEEENS_11VectorStateIS9_SaIS9_EEEEEE5FlagsEv
  1656: 00000000001a9ef0    75 FUNC    WEAK   DEFAULT   12 _ZNSt23_Sp_counted_ptr_inplaceIN3fst8internal12ConstFstImplINS0_6ArcTplINS0_17TropicalWeightTplIfEEEEjEESaIvELN9__gnu_cxx12_Lock_policyE2EE14_M_get_deleterERKSt9type_info
  1657: 00000000001a8e30   490 FUNC    WEAK   DEFAULT   12 _ZN3fst13SortedMatcherINS_8ConstFstINS_6ArcTplINS_17TropicalWeightTplIfEEEEjEEE4FindEi
  1658: 000000000011ad90    67 FUNC    WEAK   DEFAULT   12 _ZN3fst8internal14MemoryPoolImplILm20EED0Ev
  1659: 0000000000102d10    47 FUNC    WEAK   DEFAULT   12 _ZNK3fst8internal15SymbolTableImpl4FindESt17basic_string_viewIcSt11char_traitsIcEE
  1660: 00000000001d1ec0   283 FUNC    WEAK   DEFAULT   12 _ZNK3fst17ComposeFstMatcherINS_17DefaultCacheStoreINS_6ArcTplINS_17TropicalWeightTplIfEEEEEENS_20TrivialComposeFilterINS_7MatcherINS_3FstIS5_EEEESB_EENS_24GenericComposeStateTableIS5_NS_18TrivialFilterStateENS_24DefaultComposeStateTupleIiSE_EENS_21CompactHashStateTableISG_NS_11ComposeHashISG_EEEEEEE4TypeEb
  1661: 0000000000135190   338 FUNC    WEAK   DEFAULT   12 _ZN3fst16ImplToMutableFstINS_8internal13VectorFstImplINS_11VectorStateINS_6ArcTplINS_16LatticeWeightTplIfEEEESaIS7_EEEEENS_10MutableFstIS7_EEE13ReserveStatesEm
  1662: 0000000000195710  1342 FUNC    WEAK   DEFAULT   12 _ZNK3fst14DeterminizeFstINS_10ReverseArcINS_6ArcTplINS_16LatticeWeightTplIfEEEEEEE4CopyEb
  1663: 000000000011b160    42 FUNC    WEAK   DEFAULT   12 _ZN3fst8internal15MemoryArenaImplILm520EED0Ev
  1664: 00000000001e40c0  2191 FUNC    WEAK   DEFAULT   12 _ZN3fst8internal18DeterminizeFsaImplINS_10ReverseArcINS_6ArcTplINS_17TropicalWeightTplIfEEEEEENS_20DefaultCommonDivisorIS5_EENS_24DefaultDeterminizeFilterIS7_EENS_28DefaultDeterminizeStateTableIS7_NS_18IntegerFilterStateIaEEEEE11GetLabelMapEiPSt3mapIiNS0_14DeterminizeArcINS0_21DeterminizeStateTupleIS7_SE_EEEESt4lessIiESaISt4pairIKiSL_EEE
  1665: 0000000000246e88    24 OBJECT  WEAK   DEFAULT   21 _ZTIN3fst10MemoryPoolINS_13PoolAllocatorINS_10ReverseArcINS_6ArcTplINS_17TropicalWeightTplIfEEEEEEE2TNILi2EEEEE
  1666: 0000000000114d30   107 FUNC    WEAK   DEFAULT   12 _ZNSt6vectorISt10unique_ptrIN3fst9QueueBaseIiEESt14default_deleteIS3_EESaIS6_EED1Ev
  1667: 000000000011e6d0   389 FUNC    WEAK   DEFAULT   12 _ZNSt6vectorIPS_IN3fst19LatticeDeterminizerINS0_16LatticeWeightTplIfEEiE7ElementESaIS5_EESaIS8_EE17_M_realloc_insertIJRKS8_EEEvN9__gnu_cxx17__normal_iteratorIPS8_SA_EEDpOT_
  1668: 00000000001c9ea0     5 FUNC    GLOBAL DEFAULT   12 vosk_recognizer_result
  1669: 000000000017e0f0   404 FUNC    WEAK   DEFAULT   12 _ZN3fst16ImplToMutableFstINS_8internal13VectorFstImplINS_11VectorStateINS_6ArcTplINS_17TropicalWeightTplIfEEEESaIS7_EEEEENS_10MutableFstIS7_EEE8AddStateEv
  1670: 000000000020bdc0   153 OBJECT  WEAK   DEFAULT   14 _ZTSN3fst9ImplToFstINS_8internal13VectorFstImplINS_11VectorStateINS_10ReverseArcINS_6ArcTplINS_17TropicalWeightTplIfEEEEEESaIS9_EEEEENS_10MutableFstIS9_EEEE
  1671: 00000000001dcb90  1224 FUNC    WEAK   DEFAULT   12 _ZN3fst8internal14ComposeFstImplINS_17DefaultCacheStoreINS_6ArcTplINS_17TropicalWeightTplIfEEEEEENS_18MatchComposeFilterINS_7MatcherINS_3FstIS6_EEEESC_EENS_24GenericComposeStateTableIS6_NS_18IntegerFilterStateIaEENS_24DefaultComposeStateTupleIiSG_EENS_21CompactHashStateTableISI_NS_11ComposeHashISI_EEEEEEE12SetMatchTypeEv
  1672: 0000000000208ea0    91 OBJECT  WEAK   DEFAULT   14 _ZTSN3fst10MemoryPoolINS_13PoolAllocatorINS_6ArcTplINS_17TropicalWeightTplIfEEEEE2TNILi64EEEEE
  1673: 00000000001f19f0  2824 FUNC    WEAK   DEFAULT   12 _ZN3fst12GCCacheStoreINS_15FirstCacheStoreINS_16VectorCacheStoreINS_10CacheStateINS_10ReverseArcINS_6ArcTplINS_17TropicalWeightTplIfEEEEEENS_13PoolAllocatorIS9_EEEEEEEEE2GCEPKSC_bf
  1674: 0000000000115a40   262 FUNC    WEAK   DEFAULT   12 _ZN3fst11make_uniqueINS_13TopOrderQueueIiEEJRSt6vectorIiSaIiEEEEESt10unique_ptrIT_St14default_deleteIS8_EEDpOT0_
  1675: 0000000000203280   175 OBJECT  WEAK   DEFAULT   14 _ZTSN3fst17ImplToExpandedFstINS_8internal13VectorFstImplINS_11VectorStateINS_6ArcTplINS_23CompactLatticeWeightTplINS_16LatticeWeightTplIfEEiEEEESaIS9_EEEEENS_10MutableFstIS9_EEEE
  1676: 000000000010a7c0   117 FUNC    WEAK   DEFAULT   12 _ZN3fst10MemoryPoolINS_13PoolAllocatorINS_10ReverseArcINS_6ArcTplINS_16LatticeWeightTplIfEEEEEEE2TNILi4EEEED2Ev
  1677: 000000000020bc20   116 OBJECT  WEAK   DEFAULT   14 _ZTSN3fst8internal13VectorFstImplINS_11VectorStateINS_10ReverseArcINS_6ArcTplINS_17TropicalWeightTplIfEEEEEESaIS8_EEEEE
  1678: 0000000000203ac0   141 OBJECT  WEAK   DEFAULT   14 _ZTSN3fst8internal13CacheBaseImplINS_10CacheStateINS_6ArcTplINS_16LatticeWeightTplIfEEEENS_13PoolAllocatorIS6_EEEENS_17DefaultCacheStoreIS6_EEEE
  1679: 00000000001a7ea0     1 FUNC    WEAK   DEFAULT   12 _ZNSt23_Sp_counted_ptr_inplaceIN3fst8internal9AddOnImplINS0_8ConstFstINS0_6ArcTplINS0_17TropicalWeightTplIfEEEEjEENS0_9AddOnPairINS0_18LabelReachableDataIiEESB_EEEESaIvELN9__gnu_cxx12_Lock_policyE2EED1Ev
  1680: 0000000000140c80    19 FUNC    WEAK   DEFAULT   12 _ZN3fst8internal9CacheImplINS_6ArcTplINS_17TropicalWeightTplIfEEEEED2Ev
  1681: 0000000000245100    40 OBJECT  WEAK   DEFAULT   21 _ZTVN3fst10MemoryPoolINS_13PoolAllocatorIPNSt8__detail15_Hash_node_baseEE2TNILi16EEEEE
  1682: 000000000020c5e0   302 OBJECT  WEAK   DEFAULT   14 _ZTSN3fst8internal14ComposeFstImplINS_17DefaultCacheStoreINS_6ArcTplINS_17TropicalWeightTplIfEEEEEENS_17NullComposeFilterINS_7MatcherINS_3FstIS6_EEEESC_EENS_24GenericComposeStateTableIS6_NS_18TrivialFilterStateENS_24DefaultComposeStateTupleIiSF_EENS_21CompactHashStateTableISH_NS_11ComposeHashISH_EEEEEEEE
  1683: 0000000000245128    40 OBJECT  WEAK   DEFAULT   21 _ZTVN3fst8internal15MemoryArenaImplILm264EEE
  1684: 000000000011bde0   169 FUNC    WEAK   DEFAULT   12 _ZN3fst13SortedMatcherINS_3FstINS_6ArcTplINS_17TropicalWeightTplIfEEEEEEED0Ev
  1685: 0000000000208320    41 OBJECT  WEAK   DEFAULT   14 _ZTSN3fst8internal15MemoryArenaImplILm136EEE
  1686: 0000000000245570    40 OBJECT  WEAK   DEFAULT   21 _ZTVN3fst8internal14MemoryPoolImplILm1024EEE
  1687: 00000000001d7d80    67 FUNC    WEAK   DEFAULT   12 _ZN3fst10MemoryPoolINS_13PoolAllocatorINS_10ReverseArcINS_6ArcTplINS_17TropicalWeightTplIfEEEEEEE2TNILi8EEEED0Ev
  1688: 00000000001ed540  1773 FUNC    WEAK   DEFAULT   12 _ZN3fst8internal27SingleShortestPathBacktraceINS_6ArcTplINS_17TropicalWeightTplIfEEEEEEvRKNS_3FstIT_EEPNS_10MutableFstIS7_EERKSt6vectorISt4pairINS7_7StateIdEmESaISH_EESG_
  1689: 0000000000208aa0    90 OBJECT  WEAK   DEFAULT   14 _ZTSN3fst10MemoryPoolINS_13PoolAllocatorINS_6ArcTplINS_16LatticeWeightTplIfEEEEE2TNILi32EEEEE
  1690: 000000000010caa0   263 FUNC    WEAK   DEFAULT   12 _ZNK3fst3FstINS_6ArcTplINS_16LatticeWeightTplIfEEEEE5WriteERSoRKNS_15FstWriteOptionsE
  1691: 000000000010dbc0    76 FUNC    WEAK   DEFAULT   12 _ZNSt16_Sp_counted_baseILN9__gnu_cxx12_Lock_policyE2EE24_M_release_last_use_coldEv
  1692: 000000000020bca0    70 OBJECT  WEAK   DEFAULT   14 _ZTSN3fst3FstINS_10ReverseArcINS_6ArcTplINS_17TropicalWeightTplIfEEEEEEEE
  1693: 00000000001f2870  2697 FUNC    WEAK   DEFAULT   12 _ZN3fst8internal18DeterminizeFsaImplINS_10ReverseArcINS_6ArcTplINS_17TropicalWeightTplIfEEEEEENS_20DefaultCommonDivisorIS5_EENS_24DefaultDeterminizeFilterIS7_EENS_28DefaultDeterminizeStateTableIS7_NS_18IntegerFilterStateIaEEEEE6ExpandEi
  1694: 00000000001e3260  1833 FUNC    WEAK   DEFAULT   12 _ZN3fst8internal14ComposeFstImplINS_17DefaultCacheStoreINS_6ArcTplINS_17TropicalWeightTplIfEEEEEENS_20NoMatchComposeFilterINS_7MatcherINS_3FstIS6_EEEESC_EENS_24GenericComposeStateTableIS6_NS_18TrivialFilterStateENS_24DefaultComposeStateTupleIiSF_EENS_21CompactHashStateTableISH_NS_11ComposeHashISH_EEEEEEEC1ISC_SC_EERKSB_SQ_RKNS_21ComposeFstImplOptionsIT_T0_SD_SM_S7_EE
  1695: 00000000001d20d0     6 FUNC    WEAK   DEFAULT   12 _ZNK3fst17ComposeFstMatcherINS_17DefaultCacheStoreINS_6ArcTplINS_17TropicalWeightTplIfEEEEEENS_20TrivialComposeFilterINS_7MatcherINS_3FstIS5_EEEESB_EENS_24GenericComposeStateTableIS5_NS_18TrivialFilterStateENS_24DefaultComposeStateTupleIiSE_EENS_21CompactHashStateTableISG_NS_11ComposeHashISG_EEEEEEE10PropertiesEm
  1696: 00000000001d4e80   231 FUNC    WEAK   DEFAULT   12 _ZN3fst8internal7FstImplINS_10ReverseArcINS_6ArcTplINS_17TropicalWeightTplIfEEEEEEED1Ev
  1697: 0000000000197860   234 FUNC    WEAK   DEFAULT   12 _ZN3fst17ComposeFstMatcherINS_17DefaultCacheStoreINS_6ArcTplINS_16LatticeWeightTplIfEEEEEENS_17NullComposeFilterINS_7MatcherINS_3FstIS5_EEEESB_EENS_24GenericComposeStateTableIS5_NS_18TrivialFilterStateENS_24DefaultComposeStateTupleIiSE_EENS_21CompactHashStateTableISG_NS_11ComposeHashISG_EEEEEEE4FindEi
  1698: 0000000000206900    60 OBJECT  WEAK   DEFAULT   14 _ZTSN3fst11MatcherBaseINS_6ArcTplINS_16LatticeWeightTplIfEEEEEE
  1699: 000000000016b2d0   144 FUNC    WEAK   DEFAULT   12 _ZN3fst16ImplToMutableFstINS_8internal13VectorFstImplINS_11VectorStateINS_10ReverseArcINS_6ArcTplINS_23CompactLatticeWeightTplINS_16LatticeWeightTplIfEEiEEEEEESaISB_EEEEENS_10MutableFstISB_EEE11MutateCheckEv
  1700: 000000000010b6c0   117 FUNC    WEAK   DEFAULT   12 _ZN3fst8internal14MemoryPoolImplILm40EED1Ev
  1701: 000000000015d590   541 FUNC    WEAK   DEFAULT   12 _ZNK3fst22LookAheadComposeFilterINS_24AltSequenceComposeFilterINS_16LookAheadMatcherINS_3FstINS_6ArcTplINS_16LatticeWeightTplIfEEEEEEEES9_EES9_S9_LNS_9MatchTypeE3EE9FilterArcEPS7_SD_
  1702: 00000000001f87d0  1019 FUNC    WEAK   DEFAULT   12 _ZN3fst17ComposeFstMatcherINS_17DefaultCacheStoreINS_6ArcTplINS_17TropicalWeightTplIfEEEEEENS_18MatchComposeFilterINS_7MatcherINS_3FstIS5_EEEESB_EENS_24GenericComposeStateTableIS5_NS_18IntegerFilterStateIaEENS_24DefaultComposeStateTupleIiSF_EENS_21CompactHashStateTableISH_NS_11ComposeHashISH_EEEEEEE8FindNextISB_SB_EEbPT_PT0_
  1703: 000000000010dcd0    46 FUNC    WEAK   DEFAULT   12 _ZN3fst11SymbolTableD0Ev
  1704: 00000000001d1c10    70 FUNC    WEAK   DEFAULT   12 _ZNK3fst17ComposeFstMatcherINS_17DefaultCacheStoreINS_6ArcTplINS_17TropicalWeightTplIfEEEEEENS_18MatchComposeFilterINS_7MatcherINS_3FstIS5_EEEESB_EENS_24GenericComposeStateTableIS5_NS_18IntegerFilterStateIaEENS_24DefaultComposeStateTupleIiSF_EENS_21CompactHashStateTableISH_NS_11ComposeHashISH_EEEEEEE4DoneEv
  1705: 00000000000ff110    34 FUNC    WEAK   DEFAULT   12 _ZNK3fst9ImplToFstINS_8internal13VectorFstImplINS_11VectorStateINS_6ArcTplINS_17TropicalWeightTplIfEEEESaIS7_EEEEENS_10MutableFstIS7_EEE7NumArcsEi
  1706: 00000000001a7e80     1 FUNC    WEAK   DEFAULT   12 _ZNSt23_Sp_counted_ptr_inplaceIN3fst8internal12ConstFstImplINS0_6ArcTplINS0_17TropicalWeightTplIfEEEEjEESaIvELN9__gnu_cxx12_Lock_policyE2EED2Ev
  1707: 0000000000198bb0   234 FUNC    WEAK   DEFAULT   12 _ZN3fst17ComposeFstMatcherINS_17DefaultCacheStoreINS_6ArcTplINS_16LatticeWeightTplIfEEEEEENS_20TrivialComposeFilterINS_7MatcherINS_3FstIS5_EEEESB_EENS_24GenericComposeStateTableIS5_NS_18TrivialFilterStateENS_24DefaultComposeStateTupleIiSE_EENS_21CompactHashStateTableISG_NS_11ComposeHashISG_EEEEEEE4FindEi
  1708: 0000000000170160   258 FUNC    WEAK   DEFAULT   12 _ZN3fst16ImplToMutableFstINS_8internal13VectorFstImplINS_11VectorStateINS_10ReverseArcINS_6ArcTplINS_16LatticeWeightTplIfEEEEEESaIS9_EEEEENS_10MutableFstIS9_EEE8SetStartEi
  1709: 0000000000209f60    76 OBJECT  WEAK   DEFAULT   14 _ZTSN3fst11ArcIteratorINS_8NGramFstINS_6ArcTplINS_17TropicalWeightTplIfEEEEEEEE
  1710: 00000000001d42e0   117 FUNC    WEAK   DEFAULT   12 _ZN3fst10MemoryPoolINS_13PoolAllocatorINS_10ReverseArcINS_6ArcTplINS_17TropicalWeightTplIfEEEEEEE2TNILi2EEEED2Ev
  1711: 00000000001a7da0     1 FUNC    WEAK   DEFAULT   12 _ZNSt15_Sp_counted_ptrIPN3fst8internal12NGramFstImplINS0_6ArcTplINS0_17TropicalWeightTplIfEEEEEELN9__gnu_cxx12_Lock_policyE2EED1Ev
  1712: 00000000002069a0    72 OBJECT  WEAK   DEFAULT   14 _ZTSN3fst13SortedMatcherINS_3FstINS_6ArcTplINS_16LatticeWeightTplIfEEEEEEEE
  1713: 00000000001290e0    99 FUNC    WEAK   DEFAULT   12 _ZNSt11_Deque_baseIPN3fst8internal8DfsStateINS0_3FstINS0_10ReverseArcINS0_6ArcTplINS0_23CompactLatticeWeightTplINS0_16LatticeWeightTplIfEEiEEEEEEEEEESaISE_EED1Ev
  1714: 00000000001d5d30   549 FUNC    WEAK   DEFAULT   12 _ZN3fst18ShortestFirstQueueIiNS_8internal18StateWeightCompareIiNS_11NaturalLessINS_17TropicalWeightTplIfEEEEEELb0EE7EnqueueEi
  1715: 0000000000241078    24 OBJECT  WEAK   DEFAULT   21 _ZTIN3fst8internal13VectorFstImplINS_11VectorStateINS_10ReverseArcINS_6ArcTplINS_16LatticeWeightTplIfEEEEEESaIS8_EEEEE
  1716: 00000000000f9650  5540 FUNC    GLOBAL DEFAULT   12 _ZN10Recognizer11NbestResultERN3fst9VectorFstINS0_6ArcTplINS0_23CompactLatticeWeightTplINS0_16LatticeWeightTplIfEEiEEEENS0_11VectorStateIS7_SaIS7_EEEEE
  1717: 0000000000245b20    24 OBJECT  WEAK   DEFAULT   21 _ZTISt15_Sp_counted_ptrIPN3fst8internal12NGramFstImplINS0_6ArcTplINS0_17TropicalWeightTplIfEEEEEELN9__gnu_cxx12_Lock_policyE2EE
  1718: 0000000000208d80    90 OBJECT  WEAK   DEFAULT   14 _ZTSN3fst10MemoryPoolINS_13PoolAllocatorINS_6ArcTplINS_17TropicalWeightTplIfEEEEE2TNILi8EEEEE
  1719: 0000000000208e40    91 OBJECT  WEAK   DEFAULT   14 _ZTSN3fst10MemoryPoolINS_13PoolAllocatorINS_6ArcTplINS_17TropicalWeightTplIfEEEEE2TNILi32EEEEE
  1720: 00000000001b2550  1332 FUNC    WEAK   DEFAULT   12 _ZN3fst8internal12ConstFstImplINS_6ArcTplINS_17TropicalWeightTplIfEEEEjE4ReadERSiRKNS_14FstReadOptionsE
  1721: 0000000000202f00    96 OBJECT  WEAK   DEFAULT   14 _ZTSN3fst8internal7FstImplINS_6ArcTplINS_23CompactLatticeWeightTplINS_16LatticeWeightTplIfEEiEEEEEE
  1722: 0000000000115d10   113 FUNC    WEAK   DEFAULT   12 _ZNSt6vectorIN3fst5AdderINS0_23CompactLatticeWeightTplINS0_16LatticeWeightTplIfEEiEEEESaIS6_EED2Ev
  1723: 00000000001b5dc0   290 FUNC    WEAK   DEFAULT   12 _ZNK3fst21LabelLookAheadMatcherINS_13SortedMatcherINS_8ConstFstINS_6ArcTplINS_17TropicalWeightTplIfEEEEjEEEELj1760ENS_18FastLogAccumulatorIS6_EENS_14LabelReachableIS6_SA_NS_18LabelReachableDataIiEEEEE4TypeEb
  1724: 0000000000137890   396 FUNC    WEAK   DEFAULT   12 _ZNK3fst16LookAheadMatcherINS_3FstINS_6ArcTplINS_16LatticeWeightTplIfEEEEEEE14LookAheadCheckEv
  1725: 0000000000100060     1 FUNC    WEAK   DEFAULT   12 _ZN3fst13StateIteratorINS_14DeterminizeFstINS_10ReverseArcINS_6ArcTplINS_16LatticeWeightTplIfEEEEEEEEED1Ev
  1726: 000000000020a640   318 OBJECT  WEAK   DEFAULT   14 _ZTSN3fst10MatcherFstINS_8ConstFstINS_6ArcTplINS_17TropicalWeightTplIfEEEEjEENS_21LabelLookAheadMatcherINS_13SortedMatcherIS6_EELj1760ENS_18FastLogAccumulatorIS5_EENS_14LabelReachableIS5_SB_NS_18LabelReachableDataIiEEEEEEXadL_ZNS_25olabel_lookahead_fst_typeEEENS_23LabelLookAheadRelabelerIS5_SE_EENS_9AddOnPairISE_SE_EEEE
  1727: 00000000001b97d0   488 FUNC    WEAK   DEFAULT   12 _ZN3fst8internal9AddOnImplINS_8ConstFstINS_6ArcTplINS_17TropicalWeightTplIfEEEEjEENS_9AddOnPairINS_18LabelReachableDataIiEESA_EEEC1ERKNS_3FstIS6_EERKNSt7__cxx1112basic_stringIcSt11char_traitsIcESaIcEEESt10shared_ptrISB_E
  1728: 0000000000244d38    56 OBJECT  WEAK   DEFAULT   21 _ZTVSt23_Sp_counted_ptr_inplaceIN3fst8internal14ComposeFstImplINS0_17DefaultCacheStoreINS0_6ArcTplINS0_16LatticeWeightTplIfEEEEEENS0_22LookAheadComposeFilterINS0_24AltSequenceComposeFilterINS0_16LookAheadMatcherINS0_3FstIS7_EEEESE_EESE_SE_LNS0_9MatchTypeE3EEENS0_24GenericComposeStateTableIS7_NS0_18IntegerFilterStateIaEENS0_24DefaultComposeStateTupleIiSK_EENS0_21CompactHashStateTableISM_NS0_11ComposeHashISM_EEEEEEEESaIvELN9__gnu_cxx12_Lock_policyE2EE
  1729: 00000000001d0c30     1 FUNC    WEAK   DEFAULT   12 _ZNSt15_Sp_counted_ptrIPN3fst8internal13VectorFstImplINS0_11VectorStateINS0_6ArcTplINS0_17TropicalWeightTplIfEEEESaIS7_EEEEELN9__gnu_cxx12_Lock_policyE2EED1Ev
  1730: 0000000000203680   134 OBJECT  WEAK   DEFAULT   14 _ZTSN3fst9ImplToFstINS_8internal13VectorFstImplINS_11VectorStateINS_6ArcTplINS_16LatticeWeightTplIfEEEESaIS7_EEEEENS_10MutableFstIS7_EEEE
  1731: 00000000001a8250    31 FUNC    WEAK   DEFAULT   12 _ZNK3fst9ImplToFstINS_8internal12ConstFstImplINS_6ArcTplINS_17TropicalWeightTplIfEEEEjEENS_11ExpandedFstIS6_EEE7NumArcsEi
  1732: 000000000015d360   557 FUNC    WEAK   DEFAULT   12 _ZNK3fst22LookAheadComposeFilterINS_21SequenceComposeFilterINS_16LookAheadMatcherINS_3FstINS_6ArcTplINS_16LatticeWeightTplIfEEEEEEEES9_EES9_S9_LNS_9MatchTypeE3EE9FilterArcEPS7_SD_
  1733: 0000000000199690    59 FUNC    WEAK   DEFAULT   12 _ZN3fst17ComposeFstMatcherINS_17DefaultCacheStoreINS_6ArcTplINS_16LatticeWeightTplIfEEEEEENS_22LookAheadComposeFilterINS_21SequenceComposeFilterINS_16LookAheadMatcherINS_3FstIS5_EEEESC_EESC_SC_LNS_9MatchTypeE3EEENS_24GenericComposeStateTableIS5_NS_18IntegerFilterStateIaEENS_24DefaultComposeStateTupleIiSI_EENS_21CompactHashStateTableISK_NS_11ComposeHashISK_EEEEEEE4NextEv
  1734: 00000000001a8120    68 FUNC    WEAK   DEFAULT   12 _ZNK3fst21LabelLookAheadMatcherINS_13SortedMatcherINS_8ConstFstINS_6ArcTplINS_17TropicalWeightTplIfEEEEjEEEELj1760ENS_18FastLogAccumulatorIS6_EENS_14LabelReachableIS6_SA_NS_18LabelReachableDataIiEEEEE10PropertiesEm
  1735: 0000000000141c00  1336 FUNC    WEAK   DEFAULT   12 _ZN3fst16VectorCacheStoreINS_10CacheStateINS_6ArcTplINS_17TropicalWeightTplIfEEEENS_13PoolAllocatorIS5_EEEEEC2ERKNS_12CacheOptionsE
  1736: 00000000000fdb00     6 FUNC    WEAK   DEFAULT   12 _ZNK3fst8internal14MemoryPoolImplILm128EE4SizeEv
  1737: 0000000000180120  1615 FUNC    WEAK   DEFAULT   12 _ZN3fst8internal13CacheBaseImplINS_10CacheStateINS_6ArcTplINS_17TropicalWeightTplIfEEEENS_13PoolAllocatorIS6_EEEENS_17DefaultCacheStoreIS6_EEEC2ERKSC_b
  1738: 0000000000120880   228 FUNC    WEAK   DEFAULT   12 _ZN3fst16LookAheadMatcherINS_3FstINS_6ArcTplINS_17TropicalWeightTplIfEEEEEEEC1ERKS6_NS_9MatchTypeE
  1739: 0000000000205640   304 OBJECT  WEAK   DEFAULT   14 _ZTSN3fst8internal14ComposeFstImplINS_17DefaultCacheStoreINS_6ArcTplINS_16LatticeWeightTplIfEEEEEENS_20NoMatchComposeFilterINS_7MatcherINS_3FstIS6_EEEESC_EENS_24GenericComposeStateTableIS6_NS_18TrivialFilterStateENS_24DefaultComposeStateTupleIiSF_EENS_21CompactHashStateTableISH_NS_11ComposeHashISH_EEEEEEEE
  1740: 00000000000fda70     6 FUNC    WEAK   DEFAULT   12 _ZNK3fst8internal14MemoryPoolImplILm640EE4SizeEv
  1741: 00000000001616a0   467 FUNC    WEAK   DEFAULT   12 _ZNSt6vectorIN3fst24DefaultComposeStateTupleIiNS0_15PairFilterStateINS2_INS0_18IntegerFilterStateIaEENS0_17WeightFilterStateINS0_17TropicalWeightTplIfEEEEEENS3_IiEEEEEESaISC_EE17_M_realloc_insertIJRKSC_EEEvN9__gnu_cxx17__normal_iteratorIPSC_SE_EEDpOT_
  1742: 0000000000193850   156 FUNC    WEAK   DEFAULT   12 _ZN3fst8internal18ComposeFstImplBaseINS_6ArcTplINS_16LatticeWeightTplIfEEEENS_17DefaultCacheStoreIS5_EENS_10ComposeFstIS5_S7_EEEC2ERKSA_
  1743: 0000000000132f70   125 FUNC    WEAK   DEFAULT   12 _ZN3fst17ComposeFstMatcherINS_17DefaultCacheStoreINS_6ArcTplINS_16LatticeWeightTplIfEEEEEENS_21SequenceComposeFilterINS_7MatcherINS_3FstIS5_EEEESB_EENS_24GenericComposeStateTableIS5_NS_18IntegerFilterStateIaEENS_24DefaultComposeStateTupleIiSF_EENS_21CompactHashStateTableISH_NS_11ComposeHashISH_EEEEEEED1Ev
  1744: 0000000000112210   139 FUNC    WEAK   DEFAULT   12 _ZNSt6vectorIN5kaldi5nnet315IoSpecificationESaIS2_EED2Ev
  1745: 0000000000244ea8    40 OBJECT  WEAK   DEFAULT   21 _ZTVN3fst10MemoryPoolINS_13PoolAllocatorINS_10CacheStateINS_10ReverseArcINS_6ArcTplINS_16LatticeWeightTplIfEEEEEENS1_IS8_EEEEE2TNILi1EEEEE
  1746: 00000000001084c0    74 FUNC    WEAK   DEFAULT   12 _ZN3fst13TopOrderQueueIiED0Ev
  1747: 0000000000204980    98 OBJECT  WEAK   DEFAULT   14 _ZTSN3fst8internal22DeterminizeFstImplBaseINS_10ReverseArcINS_6ArcTplINS_16LatticeWeightTplIfEEEEEEEE
  1748: 000000000011b6b0    67 FUNC    WEAK   DEFAULT   12 _ZN3fst10MemoryPoolINS_13PoolAllocatorIPNSt8__detail15_Hash_node_baseEE2TNILi2EEEED0Ev
  1749: 000000000014a240   588 FUNC    WEAK   DEFAULT   12 _ZNK3fst17ComposeFstMatcherINS_17DefaultCacheStoreINS_6ArcTplINS_16LatticeWeightTplIfEEEEEENS_21SequenceComposeFilterINS_7MatcherINS_3FstIS5_EEEESB_EENS_24GenericComposeStateTableIS5_NS_18IntegerFilterStateIaEENS_24DefaultComposeStateTupleIiSF_EENS_21CompactHashStateTableISH_NS_11ComposeHashISH_EEEEEEE4CopyEb
  1750: 0000000000246cb0    24 OBJECT  WEAK   DEFAULT   21 _ZTIN3fst14DeterminizeFstINS_10ReverseArcINS_6ArcTplINS_17TropicalWeightTplIfEEEEEEEE
  1751: 000000000010c890    98 FUNC    WEAK   DEFAULT   12 _ZN10LogMessageC1ERKNSt7__cxx1112basic_stringIcSt11char_traitsIcESaIcEEE
  1752: 00000000001d2510   146 FUNC    WEAK   DEFAULT   12 _ZNK3fst8internal14ComposeFstImplINS_17DefaultCacheStoreINS_6ArcTplINS_17TropicalWeightTplIfEEEEEENS_18MatchComposeFilterINS_7MatcherINS_3FstIS6_EEEESC_EENS_24GenericComposeStateTableIS6_NS_18IntegerFilterStateIaEENS_24DefaultComposeStateTupleIiSG_EENS_21CompactHashStateTableISI_NS_11ComposeHashISI_EEEEEEE10PropertiesEm
  1753: 00000000001a7de0     1 FUNC    WEAK   DEFAULT   12 _ZNSt23_Sp_counted_ptr_inplaceIN3fst9AddOnPairINS0_18LabelReachableDataIiEES3_EESaIvELN9__gnu_cxx12_Lock_policyE2EED2Ev
  1754: 00000000001edc30   224 FUNC    WEAK   DEFAULT   12 _ZN3fst8internal15MemoryArenaImplILm1032EE8AllocateEm
  1755: 00000000001c0000  5179 FUNC    WEAK   DEFAULT   12 _ZN3fst14StateReachableINS_6ArcTplINS_17TropicalWeightTplIfEEEEiNS_11IntervalSetIiNS_19VectorIntervalStoreIiEEEEE20CyclicStateReachableERKNS_3FstIS4_EE
  1756: 0000000000102150   146 FUNC    WEAK   DEFAULT   12 _ZNK3fst8internal14ComposeFstImplINS_17DefaultCacheStoreINS_6ArcTplINS_16LatticeWeightTplIfEEEEEENS_20NoMatchComposeFilterINS_7MatcherINS_3FstIS6_EEEESC_EENS_24GenericComposeStateTableIS6_NS_18TrivialFilterStateENS_24DefaultComposeStateTupleIiSF_EENS_21CompactHashStateTableISH_NS_11ComposeHashISH_EEEEEEE10PropertiesEm
  1757: 00000000001f9390   234 FUNC    WEAK   DEFAULT   12 _ZN3fst17ComposeFstMatcherINS_17DefaultCacheStoreINS_6ArcTplINS_17TropicalWeightTplIfEEEEEENS_20TrivialComposeFilterINS_7MatcherINS_3FstIS5_EEEESB_EENS_24GenericComposeStateTableIS5_NS_18TrivialFilterStateENS_24DefaultComposeStateTupleIiSE_EENS_21CompactHashStateTableISG_NS_11ComposeHashISG_EEEEEEE4FindEi
  1758: 0000000000138960  1156 FUNC    WEAK   DEFAULT   12 _ZN3fst22LookAheadComposeFilterINS_24AltSequenceComposeFilterINS_16LookAheadMatcherINS_3FstINS_6ArcTplINS_17TropicalWeightTplIfEEEEEEEES9_EES9_S9_LNS_9MatchTypeE3EEC1ERKS8_SE_PS9_SF_
  1759: 00000000001d37d0    75 FUNC    WEAK   DEFAULT   12 _ZNSt23_Sp_counted_ptr_inplaceIN3fst8internal14ComposeFstImplINS0_17DefaultCacheStoreINS0_6ArcTplINS0_17TropicalWeightTplIfEEEEEENS0_18MatchComposeFilterINS0_7MatcherINS0_3FstIS7_EEEESD_EENS0_24GenericComposeStateTableIS7_NS0_18IntegerFilterStateIaEENS0_24DefaultComposeStateTupleIiSH_EENS0_21CompactHashStateTableISJ_NS0_11ComposeHashISJ_EEEEEEEESaIvELN9__gnu_cxx12_Lock_policyE2EE14_M_get_deleterERKSt9type_info
  1760: 0000000000116150   102 FUNC    WEAK   DEFAULT   12 _ZN3fst8internal21ShortestDistanceStateINS_6ArcTplINS_16LatticeWeightTplIfEEEENS_9AutoQueueIiEENS_12AnyArcFilterIS5_EENS_17WeightApproxEqualEED2Ev
  1761: 00000000001321d0   246 FUNC    WEAK   DEFAULT   12 _ZNSt6vectorIN3fst6ArcTplINS0_16LatticeWeightTplIfEEEESaIS4_EE7reserveEm
  1762: 00000000000fe000   174 FUNC    WEAK   DEFAULT   12 _ZNK3fst13SortedMatcherINS_3FstINS_6ArcTplINS_17TropicalWeightTplIfEEEEEEE4TypeEb
  1763: 00000000001d0c40     1 FUNC    WEAK   DEFAULT   12 _ZNSt15_Sp_counted_ptrIPN3fst9VectorFstINS0_6ArcTplINS0_17TropicalWeightTplIfEEEENS0_11VectorStateIS5_SaIS5_EEEEELN9__gnu_cxx12_Lock_policyE2EED1Ev
  1764: 0000000000138340   396 FUNC    WEAK   DEFAULT   12 _ZNK3fst16LookAheadMatcherINS_3FstINS_6ArcTplINS_17TropicalWeightTplIfEEEEEEE14LookAheadCheckEv
  1765: 0000000000240f98    24 OBJECT  WEAK   DEFAULT   21 _ZTIN3fst9LifoQueueIiEE
  1766: 00000000001d3c50   168 FUNC    WEAK   DEFAULT   12 _ZNK3fst8internal14ComposeFstImplINS_17DefaultCacheStoreINS_6ArcTplINS_17TropicalWeightTplIfEEEEEENS_18MatchComposeFilterINS_7MatcherINS_3FstIS6_EEEESC_EENS_24GenericComposeStateTableIS6_NS_18IntegerFilterStateIaEENS_24DefaultComposeStateTupleIiSG_EENS_21CompactHashStateTableISI_NS_11ComposeHashISI_EEEEEEE10PropertiesEv
  1767: 0000000000156040 11141 FUNC    WEAK   DEFAULT   12 _ZN3fst9AutoQueueIiEC2INS_6ArcTplINS_23CompactLatticeWeightTplINS_16LatticeWeightTplIfEEiEEEENS_16EpsilonArcFilterIS8_EEEERKNS_3FstIT_EEPKSt6vectorINSC_6WeightESaISH_EET0_
  1768: 000000000013ca80   173 FUNC    WEAK   DEFAULT   12 _ZN3fst8internal14ComposeFstImplINS_17DefaultCacheStoreINS_6ArcTplINS_16LatticeWeightTplIfEEEEEENS_24AltSequenceComposeFilterINS_7MatcherINS_3FstIS6_EEEESC_EENS_24GenericComposeStateTableIS6_NS_18IntegerFilterStateIaEENS_24DefaultComposeStateTupleIiSG_EENS_21CompactHashStateTableISI_NS_11ComposeHashISI_EEEEEEED0Ev
  1769: 0000000000246b98    24 OBJECT  WEAK   DEFAULT   21 _ZTIN3fst8internal13VectorFstImplINS_11VectorStateINS_10ReverseArcINS_6ArcTplINS_17TropicalWeightTplIfEEEEEESaIS8_EEEEE
  1770: 0000000000206280   151 OBJECT  WEAK   DEFAULT   14 _ZTSN3fst8internal17VectorFstBaseImplINS_11VectorStateINS_10ReverseArcINS_6ArcTplINS_23CompactLatticeWeightTplINS_16LatticeWeightTplIfEEiEEEEEESaISA_EEEEE
  1771: 000000000023ff70    16 OBJECT  WEAK   DEFAULT   21 _ZTIN3fst17StateIteratorBaseINS_10ReverseArcINS_6ArcTplINS_16LatticeWeightTplIfEEEEEEEE
  1772: 000000000013cee0   239 FUNC    WEAK   DEFAULT   12 _ZNSt23_Sp_counted_ptr_inplaceIN3fst8internal14ComposeFstImplINS0_17DefaultCacheStoreINS0_6ArcTplINS0_16LatticeWeightTplIfEEEEEENS0_22LookAheadComposeFilterINS0_24AltSequenceComposeFilterINS0_16LookAheadMatcherINS0_3FstIS7_EEEESE_EESE_SE_LNS0_9MatchTypeE3EEENS0_24GenericComposeStateTableIS7_NS0_18IntegerFilterStateIaEENS0_24DefaultComposeStateTupleIiSK_EENS0_21CompactHashStateTableISM_NS0_11ComposeHashISM_EEEEEEEESaIvELN9__gnu_cxx12_Lock_policyE2EE10_M_disposeEv
  1773: 00000000001e15f0   173 FUNC    WEAK   DEFAULT   12 _ZN3fst8internal14ComposeFstImplINS_17DefaultCacheStoreINS_6ArcTplINS_17TropicalWeightTplIfEEEEEENS_20TrivialComposeFilterINS_7MatcherINS_3FstIS6_EEEESC_EENS_24GenericComposeStateTableIS6_NS_18TrivialFilterStateENS_24DefaultComposeStateTupleIiSF_EENS_21CompactHashStateTableISH_NS_11ComposeHashISH_EEEEEEED0Ev
  1774: 00000000001d1a50     7 FUNC    WEAK   DEFAULT   12 _ZNK3fst17ComposeFstMatcherINS_17DefaultCacheStoreINS_6ArcTplINS_17TropicalWeightTplIfEEEEEENS_24AltSequenceComposeFilterINS_7MatcherINS_3FstIS5_EEEESB_EENS_24GenericComposeStateTableIS5_NS_18IntegerFilterStateIaEENS_24DefaultComposeStateTupleIiSF_EENS_21CompactHashStateTableISH_NS_11ComposeHashISH_EEEEEEE6GetFstEv
  1775: 00000000001076b0   168 FUNC    WEAK   DEFAULT   12 _ZNK3fst8internal14ComposeFstImplINS_17DefaultCacheStoreINS_6ArcTplINS_16LatticeWeightTplIfEEEEEENS_20NoMatchComposeFilterINS_7MatcherINS_3FstIS6_EEEESC_EENS_24GenericComposeStateTableIS6_NS_18TrivialFilterStateENS_24DefaultComposeStateTupleIiSF_EENS_21CompactHashStateTableISH_NS_11ComposeHashISH_EEEEEEE10PropertiesEv
  1776: 000000000020d7c0   109 OBJECT  WEAK   DEFAULT   14 _ZTSN3fst10MemoryPoolINS_13PoolAllocatorINS_10ReverseArcINS_6ArcTplINS_17TropicalWeightTplIfEEEEEEE2TNILi16EEEEE
  1777: 0000000000125130   526 FUNC    WEAK   DEFAULT   12 _ZNSt6vectorIN3fst19LatticeDeterminizerINS0_16LatticeWeightTplIfEEiE7TempArcESaIS5_EE17_M_realloc_insertIJRKS5_EEEvN9__gnu_cxx17__normal_iteratorIPS5_S7_EEDpOT_
  1778: 000000000017d830   391 FUNC    WEAK   DEFAULT   12 _ZN3fst16ImplToMutableFstINS_8internal13VectorFstImplINS_11VectorStateINS_6ArcTplINS_17TropicalWeightTplIfEEEESaIS7_EEEEENS_10MutableFstIS7_EEE16SetOutputSymbolsEPKNS_11SymbolTableE
  1779: 000000000010b940   117 FUNC    WEAK   DEFAULT   12 _ZN3fst10MemoryPoolINS_13PoolAllocatorINS_10ReverseArcINS_6ArcTplINS_16LatticeWeightTplIfEEEEEEE2TNILi64EEEED2Ev
  1780: 000000000016b240   141 FUNC    WEAK   DEFAULT   12 _ZN3fst9VectorFstINS_10ReverseArcINS_6ArcTplINS_23CompactLatticeWeightTplINS_16LatticeWeightTplIfEEiEEEEEENS_11VectorStateIS8_SaIS8_EEEEaSERKNS_3FstIS8_EE
  1781: 000000000011afa0    67 FUNC    WEAK   DEFAULT   12 _ZN3fst8internal14MemoryPoolImplILm1024EED0Ev
  1782: 00000000001d1dc0   103 FUNC    WEAK   DEFAULT   12 _ZN3fst17ComposeFstMatcherINS_17DefaultCacheStoreINS_6ArcTplINS_17TropicalWeightTplIfEEEEEENS_20NoMatchComposeFilterINS_7MatcherINS_3FstIS5_EEEESB_EENS_24GenericComposeStateTableIS5_NS_18TrivialFilterStateENS_24DefaultComposeStateTupleIiSE_EENS_21CompactHashStateTableISG_NS_11ComposeHashISG_EEEEEEE8SetStateEi
  1783: 00000000001d14f0     1 FUNC    WEAK   DEFAULT   12 _ZN3fst13StateIteratorINS_14DeterminizeFstINS_10ReverseArcINS_6ArcTplINS_17TropicalWeightTplIfEEEEEEEEED2Ev
  1784: 0000000000245978    24 OBJECT  WEAK   DEFAULT   21 _ZTIN3fst13SortedMatcherINS_8ConstFstINS_6ArcTplINS_17TropicalWeightTplIfEEEEjEEEE
  1785: 000000000010b240   117 FUNC    WEAK   DEFAULT   12 _ZN3fst8internal14MemoryPoolImplILm80EED1Ev
  1786: 000000000016e100   150 FUNC    WEAK   DEFAULT   12 _ZN3fst16ImplToMutableFstINS_8internal13VectorFstImplINS_11VectorStateINS_10ReverseArcINS_6ArcTplINS_23CompactLatticeWeightTplINS_16LatticeWeightTplIfEEiEEEEEESaISB_EEEEENS_10MutableFstISB_EEE19MutableInputSymbolsEv
  1787: 00000000000fede0     6 FUNC    WEAK   DEFAULT   12 _ZN3fst31ComposeDeterministicOnDemandFstINS_6ArcTplINS_17TropicalWeightTplIfEEEEE5StartEv
  1788: 00000000001d1500     1 FUNC    WEAK   DEFAULT   12 _ZN3fst18MutableArcIteratorINS_9VectorFstINS_10ReverseArcINS_6ArcTplINS_17TropicalWeightTplIfEEEEEENS_11VectorStateIS7_SaIS7_EEEEEED2Ev
  1789: 000000000011b540    67 FUNC    WEAK   DEFAULT   12 _ZN3fst10MemoryPoolINS_13PoolAllocatorINS_6ArcTplINS_17TropicalWeightTplIfEEEEE2TNILi2EEEED0Ev
  1790: 000000000010f160   367 FUNC    WEAK   DEFAULT   12 _ZN3fst8internal17VectorFstBaseImplINS_11VectorStateINS_6ArcTplINS_17TropicalWeightTplIfEEEESaIS6_EEEED1Ev
  1791: 000000000013fab0   375 FUNC    WEAK   DEFAULT   12 _ZN3fst20MemoryPoolCollection4PoolINS_13PoolAllocatorINS_6ArcTplINS_17TropicalWeightTplIfEEEEE2TNILi2EEEEEPNS_10MemoryPoolIT_EEv
  1792: 000000000010bb40   117 FUNC    WEAK   DEFAULT   12 _ZN3fst10MemoryPoolINS_13PoolAllocatorINS_10CacheStateINS_6ArcTplINS_16LatticeWeightTplIfEEEENS1_IS6_EEEEE2TNILi1EEEED2Ev
  1793: 000000000010a1a0    89 FUNC    WEAK   DEFAULT   12 _ZN3fst8internal15MemoryArenaImplILm648EED1Ev
  1794: 00000000001dbfc0    39 FUNC    WEAK   DEFAULT   12 _ZNSt6vectorIPN3fst8internal21DeterminizeStateTupleINS0_10ReverseArcINS0_6ArcTplINS0_17TropicalWeightTplIfEEEEEENS0_18IntegerFilterStateIaEEEESaISC_EED2Ev
  1795: 0000000000241cb8    24 OBJECT  WEAK   DEFAULT   21 _ZTIN3fst10MemoryPoolINS_13PoolAllocatorINS_10ReverseArcINS_6ArcTplINS_16LatticeWeightTplIfEEEEEEE2TNILi64EEEEE
  1796: 000000000020ab80   136 OBJECT  WEAK   DEFAULT   14 _ZTSSt23_Sp_counted_ptr_inplaceIN3fst8internal12NGramFstImplINS0_6ArcTplINS0_17TropicalWeightTplIfEEEEEESaIvELN9__gnu_cxx12_Lock_policyE2EE
  1797: 0000000000174f50  5852 FUNC    WEAK   DEFAULT   12 _ZN3fst5PruneINS_6ArcTplINS_23CompactLatticeWeightTplINS_16LatticeWeightTplIfEEiEEEENS_12AnyArcFilterIS6_EELPv0EEEvPNS_10MutableFstIT_EERKNS_12PruneOptionsISB_T0_EE
  1798: 00000000000fe710     9 FUNC    WEAK   DEFAULT   12 _ZNK3fst18ShortestFirstQueueIiNS_8internal18StateWeightCompareIiNS_11NaturalLessINS_16LatticeWeightTplIfEEEEEELb0EE4HeadEv
  1799: 00000000001d27a0    10 FUNC    WEAK   DEFAULT   12 _ZNSt23_Sp_counted_ptr_inplaceIN3fst8internal14ComposeFstImplINS0_17DefaultCacheStoreINS0_6ArcTplINS0_17TropicalWeightTplIfEEEEEENS0_20NoMatchComposeFilterINS0_7MatcherINS0_3FstIS7_EEEESD_EENS0_24GenericComposeStateTableIS7_NS0_18TrivialFilterStateENS0_24DefaultComposeStateTupleIiSG_EENS0_21CompactHashStateTableISI_NS0_11ComposeHashISI_EEEEEEEESaIvELN9__gnu_cxx12_Lock_policyE2EE10_M_destroyEv
  1800: 00000000000ff080     3 FUNC    WEAK   DEFAULT   12 _ZNK3fst3FstINS_6ArcTplINS_23CompactLatticeWeightTplINS_16LatticeWeightTplIfEEiEEEEE11InitMatcherENS_9MatchTypeE
  1801: 000000000012e7e0  5511 FUNC    WEAK   DEFAULT   12 _ZN3fst19LatticeDeterminizerINS_16LatticeWeightTplIfEEiE18ProcessTransitionsEi
  1802: 000000000010b140   117 FUNC    WEAK   DEFAULT   12 _ZN3fst10MemoryPoolINS_13PoolAllocatorINS_6ArcTplINS_16LatticeWeightTplIfEEEEE2TNILi8EEEED2Ev
  1803: 000000000016ff50   338 FUNC    WEAK   DEFAULT   12 _ZN3fst16ImplToMutableFstINS_8internal13VectorFstImplINS_11VectorStateINS_10ReverseArcINS_6ArcTplINS_16LatticeWeightTplIfEEEEEESaIS9_EEEEENS_10MutableFstIS9_EEE13ReserveStatesEm
  1804: 0000000000241658    24 OBJECT  WEAK   DEFAULT   21 _ZTISt23_Sp_counted_ptr_inplaceIN3fst8internal14ComposeFstImplINS0_17DefaultCacheStoreINS0_6ArcTplINS0_17TropicalWeightTplIfEEEEEENS0_21SequenceComposeFilterINS0_7MatcherINS0_3FstIS7_EEEESD_EENS0_24GenericComposeStateTableIS7_NS0_18IntegerFilterStateIaEENS0_24DefaultComposeStateTupleIiSH_EENS0_21CompactHashStateTableISJ_NS0_11ComposeHashISJ_EEEEEEEESaIvELN9__gnu_cxx12_Lock_policyE2EE
  1805: 00000000002046a0   161 OBJECT  WEAK   DEFAULT   14 _ZTSN3fst17ImplToExpandedFstINS_8internal13VectorFstImplINS_11VectorStateINS_10ReverseArcINS_6ArcTplINS_16LatticeWeightTplIfEEEEEESaIS9_EEEEENS_10MutableFstIS9_EEEE
  1806: 00000000001d15c0     9 FUNC    WEAK   DEFAULT   12 _ZN3fst18MutableArcIteratorINS_9VectorFstINS_10ReverseArcINS_6ArcTplINS_17TropicalWeightTplIfEEEEEENS_11VectorStateIS7_SaIS7_EEEEEE4SeekEm
  1807: 0000000000127540   133 FUNC    WEAK   DEFAULT   12 _ZN3fst13StateIteratorINS_3FstINS_10ReverseArcINS_6ArcTplINS_23CompactLatticeWeightTplINS_16LatticeWeightTplIfEEiEEEEEEEEEC1ERKSA_
  1808: 000000000020b7a0   108 OBJECT  WEAK   DEFAULT   14 _ZTSN3fst18CacheStateIteratorINS_14DeterminizeFstINS_10ReverseArcINS_6ArcTplINS_17TropicalWeightTplIfEEEEEEEEEE
  1809: 0000000000149bb0   371 FUNC    WEAK   DEFAULT   12 _ZN3fst8internal14ComposeFstImplINS_17DefaultCacheStoreINS_6ArcTplINS_17TropicalWeightTplIfEEEEEENS_23PushLabelsComposeFilterINS_24PushWeightsComposeFilterINS_22LookAheadComposeFilterINS_24AltSequenceComposeFilterINS_16LookAheadMatcherINS_3FstIS6_EEEESF_EESF_SF_LNS_9MatchTypeE3EEESF_SF_LSH_3EEESF_SF_LSH_3EEENS_24GenericComposeStateTableIS6_NS_15PairFilterStateINSM_INS_18IntegerFilterStateIaEENS_17WeightFilterStateIS5_EEEENSN_IiEEEENS_24DefaultComposeStateTupleIiST_EENS_21CompactHashStateTableISV_NS_11ComposeHashISV_EEEEEEE12ComputeFinalEi
  1810: 000000000017faf0   269 FUNC    WEAK   DEFAULT   12 _ZN3fst8internal14ComposeFstImplINS_17DefaultCacheStoreINS_6ArcTplINS_16LatticeWeightTplIfEEEEEENS_20TrivialComposeFilterINS_7MatcherINS_3FstIS6_EEEESC_EENS_24GenericComposeStateTableIS6_NS_18TrivialFilterStateENS_24DefaultComposeStateTupleIiSF_EENS_21CompactHashStateTableISH_NS_11ComposeHashISH_EEEEEEE12ComputeStartEv
  1811: 000000000010dd00    37 FUNC    WEAK   DEFAULT   12 _ZN3fst9ArcMapFstINS_6ArcTplINS_17TropicalWeightTplIfEEEENS1_INS_16LatticeWeightTplIfEEEENS_18StdToLatticeMapperIfEEED2Ev
  1812: 000000000010bc40   117 FUNC    WEAK   DEFAULT   12 _ZN3fst8internal14MemoryPoolImplILm1280EED1Ev
  1813: 0000000000203100    92 OBJECT  WEAK   DEFAULT   14 _ZTSN3fst11ExpandedFstINS_6ArcTplINS_23CompactLatticeWeightTplINS_16LatticeWeightTplIfEEiEEEEEE
  1814: 000000000018a110   977 FUNC    WEAK   DEFAULT   12 _ZN3fst8internal14ComposeFstImplINS_17DefaultCacheStoreINS_6ArcTplINS_16LatticeWeightTplIfEEEEEENS_20NoMatchComposeFilterINS_7MatcherINS_3FstIS6_EEEESC_EENS_24GenericComposeStateTableIS6_NS_18TrivialFilterStateENS_24DefaultComposeStateTupleIiSF_EENS_21CompactHashStateTableISH_NS_11ComposeHashISH_EEEEEEE8MatchArcISC_EEviPT_RKS6_b
  1815: 000000000015e340   355 FUNC    WEAK   DEFAULT   12 _ZN3fst6ArcTplINS_16LatticeWeightTplIfEEE4TypeB5cxx11Ev
  1816: 00000000001c9f50     1 FUNC    GLOBAL DEFAULT   12 vosk_batch_model_free
  1817: 00000000000ff220    11 FUNC    WEAK   DEFAULT   12 _ZNK3fst9ImplToFstINS_8internal13VectorFstImplINS_11VectorStateINS_6ArcTplINS_17TropicalWeightTplIfEEEESaIS7_EEEEENS_10MutableFstIS7_EEE13OutputSymbolsEv
  1818: 0000000000202c00    98 OBJECT  WEAK   DEFAULT   14 _ZTSN3fst8internal13VectorFstImplINS_11VectorStateINS_6ArcTplINS_17TropicalWeightTplIfEEEESaIS6_EEEEE
  1819: 00000000000fdfd0    11 FUNC    WEAK   DEFAULT   12 _ZNK3fst9ImplToFstINS_8internal13VectorFstImplINS_11VectorStateINS_10ReverseArcINS_6ArcTplINS_23CompactLatticeWeightTplINS_16LatticeWeightTplIfEEiEEEEEESaISB_EEEEENS_10MutableFstISB_EEE13OutputSymbolsEv
  1820: 0000000000241ca0    24 OBJECT  WEAK   DEFAULT   21 _ZTIN3fst10MemoryPoolINS_13PoolAllocatorINS_10ReverseArcINS_6ArcTplINS_16LatticeWeightTplIfEEEEEEE2TNILi32EEEEE
  1821: 000000000012af60   349 FUNC    WEAK   DEFAULT   12 _ZNSt10_HashtableIPKSt6vectorIN3fst19LatticeDeterminizerINS1_16LatticeWeightTplIfEEiE7ElementESaIS6_EESt4pairIKSA_S6_ESaISD_ENSt8__detail10_Select1stENS5_11SubsetEqualENS5_9SubsetKeyENSF_18_Mod_range_hashingENSF_20_Default_ranged_hashENSF_20_Prime_rehash_policyENSF_17_Hashtable_traitsILb1ELb0ELb1EEEE4findERSC_
  1822: 00000000001d43e0   173 FUNC    WEAK   DEFAULT   12 _ZN3fst17ComposeFstMatcherINS_17DefaultCacheStoreINS_6ArcTplINS_17TropicalWeightTplIfEEEEEENS_20NoMatchComposeFilterINS_7MatcherINS_3FstIS5_EEEESB_EENS_24GenericComposeStateTableIS5_NS_18TrivialFilterStateENS_24DefaultComposeStateTupleIiSE_EENS_21CompactHashStateTableISG_NS_11ComposeHashISG_EEEEEEED1Ev
  1823: 00000000001dfd60   795 FUNC    WEAK   DEFAULT   12 _ZN3fst8internal9CacheImplINS_10ReverseArcINS_6ArcTplINS_17TropicalWeightTplIfEEEEEEED2Ev
  1824: 000000000011f780   588 FUNC    WEAK   DEFAULT   12 _ZN3fst31ComposeDeterministicOnDemandFstINS_6ArcTplINS_17TropicalWeightTplIfEEEEE6GetArcEiiPS4_
  1825: 0000000000240218   104 OBJECT  WEAK   DEFAULT   21 _ZTVN3fst18MutableArcIteratorINS_9VectorFstINS_10ReverseArcINS_6ArcTplINS_23CompactLatticeWeightTplINS_16LatticeWeightTplIfEEiEEEEEENS_11VectorStateIS9_SaIS9_EEEEEEE
  1826: 0000000000136f00    91 FUNC    WEAK   DEFAULT   12 _ZNSt10unique_ptrIN3fst22LookAheadComposeFilterINS0_24AltSequenceComposeFilterINS0_16LookAheadMatcherINS0_3FstINS0_6ArcTplINS0_16LatticeWeightTplIfEEEEEEEESA_EESA_SA_LNS0_9MatchTypeE3EEESt14default_deleteISD_EED2Ev
  1827: 000000000012bd20   250 FUNC    WEAK   DEFAULT   12 _ZN3fst8internal7FstImplINS_6ArcTplINS_17TropicalWeightTplIfEEEEE16SetOutputSymbolsEPKNS_11SymbolTableE
  1828: 000000000010dab0   258 FUNC    WEAK   DEFAULT   12 _ZN9__gnu_cxx6__stoaIllcJiEEET0_PFT_PKT1_PPS3_DpT2_EPKcS5_PmS9_
  1829: 0000000000112160   113 FUNC    WEAK   DEFAULT   12 _ZNSt6vectorIS_IdSaIdEESaIS1_EED2Ev
  1830: 00000000000fe0b0     7 FUNC    WEAK   DEFAULT   12 _ZNK3fst13SortedMatcherINS_3FstINS_6ArcTplINS_17TropicalWeightTplIfEEEEEEE6GetFstEv
  1831: 0000000000118af0   609 FUNC    WEAK   DEFAULT   12 _ZNSt6vectorIN3fst16LatticeWeightTplIfEESaIS2_EE17_M_realloc_insertIJRKS2_EEEvN9__gnu_cxx17__normal_iteratorIPS2_S4_EEDpOT_
  1832: 00000000002038c0    67 OBJECT  WEAK   DEFAULT   14 _ZTSN3fst8internal9CacheImplINS_6ArcTplINS_17TropicalWeightTplIfEEEEEE
  1833: 000000000010a0e0    89 FUNC    WEAK   DEFAULT   12 _ZN3fst8internal15MemoryArenaImplILm48EED1Ev
  1834: 0000000000133ff0   724 FUNC    WEAK   DEFAULT   12 _ZNK3fst17ComposeFstMatcherINS_17DefaultCacheStoreINS_6ArcTplINS_17TropicalWeightTplIfEEEEEENS_21SequenceComposeFilterINS_7MatcherINS_3FstIS5_EEEESB_EENS_24GenericComposeStateTableIS5_NS_18IntegerFilterStateIaEENS_24DefaultComposeStateTupleIiSF_EENS_21CompactHashStateTableISH_NS_11ComposeHashISH_EEEEEEE4CopyEb
  1835: 0000000000121250    34 FUNC    WEAK   DEFAULT   12 _ZN3fst23CompactLatticeWeightTplINS_16LatticeWeightTplIfEEiE8NoWeightEv
  1836: 0000000000101d60    12 FUNC    WEAK   DEFAULT   12 _ZNK3fst8internal7FstImplINS_6ArcTplINS_23CompactLatticeWeightTplINS_16LatticeWeightTplIfEEiEEEEE10PropertiesEm
  1837: 0000000000101c10    10 FUNC    WEAK   DEFAULT   12 _ZN3fst13StateIteratorINS_10ComposeFstINS_6ArcTplINS_17TropicalWeightTplIfEEEENS_17DefaultCacheStoreIS5_EEEEED0Ev
  1838: 00000000002010f0    24 OBJECT  WEAK   DEFAULT   14 _ZTSSt19_Sp_make_shared_tag
  1839: 00000000001157a0   100 FUNC    WEAK   DEFAULT   12 _ZN3fst11make_uniqueINS_15StateOrderQueueIiEEJEEESt10unique_ptrIT_St14default_deleteIS4_EEDpOT0_
  1840: 0000000000113c90  1234 FUNC    WEAK   DEFAULT   12 _ZNSt6vectorIdSaIdEE14_M_fill_insertEN9__gnu_cxx17__normal_iteratorIPdS1_EEmRKd
  1841: 00000000001005d0     7 FUNC    WEAK   DEFAULT   12 _ZN3fst18CacheStateIteratorINS_14DeterminizeFstINS_10ReverseArcINS_6ArcTplINS_16LatticeWeightTplIfEEEEEEEEE4NextEv
  1842: 00000000002457f8    96 OBJECT  WEAK   DEFAULT   21 _ZTVN3fst11ArcIteratorINS_8NGramFstINS_6ArcTplINS_17TropicalWeightTplIfEEEEEEEE
  1843: 0000000000106b60  1176 FUNC    WEAK   DEFAULT   12 _ZN3fst13SortedMatcherINS_3FstINS_6ArcTplINS_17TropicalWeightTplIfEEEEEEE4FindEi
  1844: 00000000000feda0    11 FUNC    WEAK   DEFAULT   12 _ZNK3fst9ImplToFstINS_8internal18ComposeFstImplBaseINS_6ArcTplINS_17TropicalWeightTplIfEEEENS_17DefaultCacheStoreIS6_EENS_10ComposeFstIS6_S8_EEEENS_3FstIS6_EEE13OutputSymbolsEv
  1845: 0000000000202cc0   135 OBJECT  WEAK   DEFAULT   14 _ZTSN3fst9ImplToFstINS_8internal13VectorFstImplINS_11VectorStateINS_6ArcTplINS_17TropicalWeightTplIfEEEESaIS7_EEEEENS_10MutableFstIS7_EEEE
  1846: 00000000001a8470    15 FUNC    WEAK   DEFAULT   12 _ZN3fst11ArcIteratorINS_8NGramFstINS_6ArcTplINS_17TropicalWeightTplIfEEEEEEE4SeekEm
  1847: 00000000001d27b0    10 FUNC    WEAK   DEFAULT   12 _ZNSt23_Sp_counted_ptr_inplaceIN3fst8internal14ComposeFstImplINS0_17DefaultCacheStoreINS0_6ArcTplINS0_17TropicalWeightTplIfEEEEEENS0_20TrivialComposeFilterINS0_7MatcherINS0_3FstIS7_EEEESD_EENS0_24GenericComposeStateTableIS7_NS0_18TrivialFilterStateENS0_24DefaultComposeStateTupleIiSG_EENS0_21CompactHashStateTableISI_NS0_11ComposeHashISI_EEEEEEEESaIvELN9__gnu_cxx12_Lock_policyE2EE10_M_destroyEv
  1848: 00000000001d48b0   161 FUNC    WEAK   DEFAULT   12 _ZN3fst17ComposeFstMatcherINS_17DefaultCacheStoreINS_6ArcTplINS_17TropicalWeightTplIfEEEEEENS_18MatchComposeFilterINS_7MatcherINS_3FstIS5_EEEESB_EENS_24GenericComposeStateTableIS5_NS_18IntegerFilterStateIaEENS_24DefaultComposeStateTupleIiSF_EENS_21CompactHashStateTableISH_NS_11ComposeHashISH_EEEEEEED0Ev
  1849: 00000000001b4290   113 FUNC    WEAK   DEFAULT   12 _ZNSt6vectorIN3fst11IntervalSetIiNS0_19VectorIntervalStoreIiEEEESaIS4_EED2Ev
  1850: 00000000001b61f0  1452 FUNC    WEAK   DEFAULT   12 _ZN3fst13FstRegistererINS_10MatcherFstINS_8ConstFstINS_6ArcTplINS_17TropicalWeightTplIfEEEEjEENS_21LabelLookAheadMatcherINS_13SortedMatcherIS7_EELj1760ENS_18FastLogAccumulatorIS6_EENS_14LabelReachableIS6_SC_NS_18LabelReachableDataIiEEEEEEXadL_ZNS_25olabel_lookahead_fst_typeEEENS_23LabelLookAheadRelabelerIS6_SF_EENS_9AddOnPairISF_SF_EEEEEC1Ev
  1851: 000000000020b820   103 OBJECT  WEAK   DEFAULT   14 _ZTSN3fst13StateIteratorINS_14DeterminizeFstINS_10ReverseArcINS_6ArcTplINS_17TropicalWeightTplIfEEEEEEEEEE
  1852: 0000000000141860   463 FUNC    WEAK   DEFAULT   12 _ZNSt23_Sp_counted_ptr_inplaceIN3fst8internal14ComposeFstImplINS0_17DefaultCacheStoreINS0_6ArcTplINS0_17TropicalWeightTplIfEEEEEENS0_23PushLabelsComposeFilterINS0_24PushWeightsComposeFilterINS0_22LookAheadComposeFilterINS0_24AltSequenceComposeFilterINS0_16LookAheadMatcherINS0_3FstIS7_EEEESG_EESG_SG_LNS0_9MatchTypeE3EEESG_SG_LSI_3EEESG_SG_LSI_3EEENS0_24GenericComposeStateTableIS7_NS0_15PairFilterStateINSN_INS0_18IntegerFilterStateIaEENS0_17WeightFilterStateIS6_EEEENSO_IiEEEENS0_24DefaultComposeStateTupleIiSU_EENS0_21CompactHashStateTableISW_NS0_11ComposeHashISW_EEEEEEEESaIvELN9__gnu_cxx12_Lock_policyE2EE10_M_disposeEv
  1853: 0000000000241348    24 OBJECT  WEAK   DEFAULT   21 _ZTIN3fst8internal14ComposeFstImplINS_17DefaultCacheStoreINS_6ArcTplINS_16LatticeWeightTplIfEEEEEENS_20NoMatchComposeFilterINS_7MatcherINS_3FstIS6_EEEESC_EENS_24GenericComposeStateTableIS6_NS_18TrivialFilterStateENS_24DefaultComposeStateTupleIiSF_EENS_21CompactHashStateTableISH_NS_11ComposeHashISH_EEEEEEEE
  1854: 0000000000101d70     7 FUNC    WEAK   DEFAULT   12 _ZNK3fst8internal7FstImplINS_6ArcTplINS_23CompactLatticeWeightTplINS_16LatticeWeightTplIfEEiEEEEE10PropertiesEv
  1855: 00000000002400d0    24 OBJECT  WEAK   DEFAULT   21 _ZTISt15_Sp_counted_ptrIPN3fst8internal22DeterminizeFstImplBaseINS0_10ReverseArcINS0_6ArcTplINS0_16LatticeWeightTplIfEEEEEEEELN9__gnu_cxx12_Lock_policyE2EE
  1856: 0000000000182b60   468 FUNC    WEAK   DEFAULT   12 _ZN3fst12GCCacheStoreINS_15FirstCacheStoreINS_16VectorCacheStoreINS_10CacheStateINS_10ReverseArcINS_6ArcTplINS_16LatticeWeightTplIfEEEEEENS_13PoolAllocatorIS9_EEEEEEEEE15GetMutableStateEi
  1857: 000000000020a0e0   110 OBJECT  WEAK   DEFAULT   14 _ZTSN3fst9ImplToFstINS_8internal12ConstFstImplINS_6ArcTplINS_17TropicalWeightTplIfEEEEjEENS_11ExpandedFstIS6_EEEE
  1858: 00000000000fda60     6 FUNC    WEAK   DEFAULT   12 _ZNK3fst8internal14MemoryPoolImplILm1280EE4SizeEv
  1859: 0000000000127890   609 FUNC    WEAK   DEFAULT   12 _ZNSt6vectorIN3fst5AdderINS0_16LatticeWeightTplIfEEEESaIS4_EE17_M_realloc_insertIJS4_EEEvN9__gnu_cxx17__normal_iteratorIPS4_S6_EEDpOT_
  1860: 00000000000e3cc0   473 FUNC    GLOBAL DEFAULT   12 _ZN10RecognizerD1Ev
  1861: 0000000000101990    70 FUNC    WEAK   DEFAULT   12 _ZNK3fst17ComposeFstMatcherINS_17DefaultCacheStoreINS_6ArcTplINS_16LatticeWeightTplIfEEEEEENS_22LookAheadComposeFilterINS_21SequenceComposeFilterINS_16LookAheadMatcherINS_3FstIS5_EEEESC_EESC_SC_LNS_9MatchTypeE3EEENS_24GenericComposeStateTableIS5_NS_18IntegerFilterStateIaEENS_24DefaultComposeStateTupleIiSI_EENS_21CompactHashStateTableISK_NS_11ComposeHashISK_EEEEEEE4DoneEv
  1862: 000000000012b390   250 FUNC    WEAK   DEFAULT   12 _ZN3fst8internal7FstImplINS_6ArcTplINS_16LatticeWeightTplIfEEEEE16SetOutputSymbolsEPKNS_11SymbolTableE
  1863: 00000000001e1360   160 FUNC    WEAK   DEFAULT   12 _ZN3fst8internal14ComposeFstImplINS_17DefaultCacheStoreINS_6ArcTplINS_17TropicalWeightTplIfEEEEEENS_17NullComposeFilterINS_7MatcherINS_3FstIS6_EEEESC_EENS_24GenericComposeStateTableIS6_NS_18TrivialFilterStateENS_24DefaultComposeStateTupleIiSF_EENS_21CompactHashStateTableISH_NS_11ComposeHashISH_EEEEEEED2Ev
  1864: 000000000013c4d0   160 FUNC    WEAK   DEFAULT   12 _ZN3fst8internal14ComposeFstImplINS_17DefaultCacheStoreINS_6ArcTplINS_16LatticeWeightTplIfEEEEEENS_21SequenceComposeFilterINS_7MatcherINS_3FstIS6_EEEESC_EENS_24GenericComposeStateTableIS6_NS_18IntegerFilterStateIaEENS_24DefaultComposeStateTupleIiSG_EENS_21CompactHashStateTableISI_NS_11ComposeHashISI_EEEEEEED2Ev
  1865: 0000000000160d70   296 FUNC    WEAK   DEFAULT   12 _ZN3fst16AddArcPropertiesINS_6ArcTplINS_17TropicalWeightTplIfEEEEEEmmNT_7StateIdERKS5_PS7_
  1866: 000000000011d040    99 FUNC    WEAK   DEFAULT   12 _ZNSt11_Deque_baseIPN3fst8internal8DfsStateINS0_3FstINS0_6ArcTplINS0_16LatticeWeightTplIfEEEEEEEESaISA_EED1Ev
  1867: 0000000000245af0    24 OBJECT  WEAK   DEFAULT   21 _ZTISt23_Sp_counted_ptr_inplaceIN3fst8internal12ConstFstImplINS0_6ArcTplINS0_17TropicalWeightTplIfEEEEjEESaIvELN9__gnu_cxx12_Lock_policyE2EE
  1868: 0000000000121150   249 FUNC    WEAK   DEFAULT   12 _ZN3fst8internal21ShortestDistanceStateINS_10ReverseArcINS_6ArcTplINS_23CompactLatticeWeightTplINS_16LatticeWeightTplIfEEiEEEEEENS_9AutoQueueIiEENS_12AnyArcFilterIS9_EENS_17WeightApproxEqualEED2Ev
  1869: 00000000001d3390   242 FUNC    WEAK   DEFAULT   12 _ZN3fst17ComposeFstMatcherINS_17DefaultCacheStoreINS_6ArcTplINS_17TropicalWeightTplIfEEEEEENS_18MatchComposeFilterINS_7MatcherINS_3FstIS5_EEEESB_EENS_24GenericComposeStateTableIS5_NS_18IntegerFilterStateIaEENS_24DefaultComposeStateTupleIiSF_EENS_21CompactHashStateTableISH_NS_11ComposeHashISH_EEEEEEE8PriorityEi
  1870: 000000000020c580    83 OBJECT  WEAK   DEFAULT   14 _ZTSN3fst15ArcIteratorBaseINS_10ReverseArcINS_6ArcTplINS_17TropicalWeightTplIfEEEEEEEE
  1871: 0000000000118620    78 FUNC    WEAK   DEFAULT   12 _ZN3fst4HeapIiNS_8internal12PruneCompareIiNS_23CompactLatticeWeightTplINS_16LatticeWeightTplIfEEiEEEEED2Ev
  1872: 0000000000100150     1 FUNC    WEAK   DEFAULT   12 _ZNSt15_Sp_counted_ptrIPN3fst8internal18ComposeFstImplBaseINS0_6ArcTplINS0_17TropicalWeightTplIfEEEENS0_17DefaultCacheStoreIS6_EENS0_10ComposeFstIS6_S8_EEEELN9__gnu_cxx12_Lock_policyE2EED2Ev
  1873: 00000000001c9f10    14 FUNC    GLOBAL DEFAULT   12 vosk_set_log_level
  1874: 0000000000240cf8    24 OBJECT  WEAK   DEFAULT   21 _ZTIN3fst9VectorFstINS_6ArcTplINS_23CompactLatticeWeightTplINS_16LatticeWeightTplIfEEiEEEENS_11VectorStateIS6_SaIS6_EEEEE
  1875: 0000000000169520  1222 FUNC    WEAK   DEFAULT   12 _ZNSt6vectorIPN3fst10CacheStateINS0_6ArcTplINS0_16LatticeWeightTplIfEEEENS0_13PoolAllocatorIS5_EEEESaIS9_EE14_M_fill_insertEN9__gnu_cxx17__normal_iteratorIPS9_SB_EEmRKS9_
  1876: 0000000000241970    24 OBJECT  WEAK   DEFAULT   21 _ZTISt23_Sp_counted_ptr_inplaceIN3fst20MemoryPoolCollectionESaIvELN9__gnu_cxx12_Lock_policyE2EE
  1877: 0000000000146aa0  3098 FUNC    WEAK   DEFAULT   12 _ZN3fst8internal18DeterminizeFsaImplINS_10ReverseArcINS_6ArcTplINS_16LatticeWeightTplIfEEEEEENS_20DefaultCommonDivisorIS5_EENS_24DefaultDeterminizeFilterIS7_EENS_28DefaultDeterminizeStateTableIS7_NS_18IntegerFilterStateIaEEEEE11GetLabelMapEiPSt3mapIiNS0_14DeterminizeArcINS0_21DeterminizeStateTupleIS7_SE_EEEESt4lessIiESaISt4pairIKiSL_EEE
  1878: 0000000000204e60   226 OBJECT  WEAK   DEFAULT   14 _ZTSN3fst8internal18DeterminizeFsaImplINS_10ReverseArcINS_6ArcTplINS_16LatticeWeightTplIfEEEEEENS_20DefaultCommonDivisorIS5_EENS_24DefaultDeterminizeFilterIS7_EENS_28DefaultDeterminizeStateTableIS7_NS_18IntegerFilterStateIaEEEEEE
  1879: 000000000010c140   117 FUNC    WEAK   DEFAULT   12 _ZN3fst8internal14MemoryPoolImplILm20EED2Ev
  1880: 00000000001d38c0    75 FUNC    WEAK   DEFAULT   12 _ZNSt23_Sp_counted_ptr_inplaceIN3fst8internal13VectorFstImplINS0_11VectorStateINS0_10ReverseArcINS0_6ArcTplINS0_17TropicalWeightTplIfEEEEEESaIS9_EEEEESaIvELN9__gnu_cxx12_Lock_policyE2EE14_M_get_deleterERKSt9type_info
  1881: 0000000000135b70   366 FUNC    WEAK   DEFAULT   12 _ZN3fst16ImplToMutableFstINS_8internal13VectorFstImplINS_11VectorStateINS_6ArcTplINS_16LatticeWeightTplIfEEEESaIS7_EEEEENS_10MutableFstIS7_EEE8SetFinalEiS6_
  1882: 000000000010a6e0    89 FUNC    WEAK   DEFAULT   12 _ZN3fst8internal15MemoryArenaImplILm520EED2Ev
  1883: 00000000001aa2d0    74 FUNC    WEAK   DEFAULT   12 _ZN3fst29MutableFastLogAccumulatorDataD0Ev
  1884: 000000000010ffc0   464 FUNC    WEAK   DEFAULT   12 _ZN3fst8internal13VectorFstImplINS_11VectorStateINS_6ArcTplINS_23CompactLatticeWeightTplINS_16LatticeWeightTplIfEEiEEEESaIS8_EEEED1Ev
  1885: 00000000001d1800    17 FUNC    WEAK   DEFAULT   12 _ZNK3fst17ComposeFstMatcherINS_17DefaultCacheStoreINS_6ArcTplINS_17TropicalWeightTplIfEEEEEENS_17NullComposeFilterINS_7MatcherINS_3FstIS5_EEEESB_EENS_24GenericComposeStateTableIS5_NS_18TrivialFilterStateENS_24DefaultComposeStateTupleIiSE_EENS_21CompactHashStateTableISG_NS_11ComposeHashISG_EEEEEEE5ValueEv
  1886: 000000000016f360   224 FUNC    WEAK   DEFAULT   12 _ZN3fst8internal15MemoryArenaImplILm80EE8AllocateEm
  1887: 000000000017c430  1732 FUNC    WEAK   DEFAULT   12 _ZN3fst8internal13VectorFstImplINS_11VectorStateINS_6ArcTplINS_17TropicalWeightTplIfEEEESaIS6_EEEEC1ERKNS_3FstIS6_EE
  1888: 0000000000204e00    93 OBJECT  WEAK   DEFAULT   14 _ZTSN3fst10MemoryPoolINS_8internal8DfsStateINS_3FstINS_6ArcTplINS_16LatticeWeightTplIfEEEEEEEEEE
  1889: 000000000011aa80    42 FUNC    WEAK   DEFAULT   12 _ZN3fst8internal15MemoryArenaImplILm168EED0Ev
  1890: 00000000001121e0    39 FUNC    WEAK   DEFAULT   12 _ZNSt6vectorIN5kaldi5nnet35IndexESaIS2_EED1Ev
  1891: 0000000000128f10   459 FUNC    WEAK   DEFAULT   12 _ZNSt8__detail9_Map_baseIiSt4pairIKiN3fst19LatticeDeterminizerINS3_16LatticeWeightTplIfEEiE7ElementEESaIS9_ENS_10_Select1stESt8equal_toIiESt4hashIiENS_18_Mod_range_hashingENS_20_Default_ranged_hashENS_20_Prime_rehash_policyENS_17_Hashtable_traitsILb0ELb0ELb1EEELb1EEixERS2_
  1892: 0000000000206840   163 OBJECT  WEAK   DEFAULT   14 _ZTSSt23_Sp_counted_ptr_inplaceIN3fst8internal13VectorFstImplINS0_11VectorStateINS0_6ArcTplINS0_16LatticeWeightTplIfEEEESaIS7_EEEEESaIvELN9__gnu_cxx12_Lock_policyE2EE
  1893: 000000000010a4a0    89 FUNC    WEAK   DEFAULT   12 _ZN3fst8internal15MemoryArenaImplILm88EED1Ev
  1894: 00000000001f15a0  1104 FUNC    WEAK   DEFAULT   12 _ZNK3fst8internal18DeterminizeFsaImplINS_10ReverseArcINS_6ArcTplINS_17TropicalWeightTplIfEEEEEENS_20DefaultCommonDivisorIS5_EENS_24DefaultDeterminizeFilterIS7_EENS_28DefaultDeterminizeStateTableIS7_NS_18IntegerFilterStateIaEEEEE4CopyEv
  1895: 000000000010e090    46 FUNC    WEAK   DEFAULT   12 _ZN3fst9VectorFstINS_10ReverseArcINS_6ArcTplINS_23CompactLatticeWeightTplINS_16LatticeWeightTplIfEEiEEEEEENS_11VectorStateIS8_SaIS8_EEEED0Ev
  1896: 00000000001292a0   150 FUNC    WEAK   DEFAULT   12 _ZN3fst8internal15MemoryArenaImplILm48EEC2Em
  1897: 00000000001d1000    11 FUNC    WEAK   DEFAULT   12 _ZNK3fst9ImplToFstINS_8internal13VectorFstImplINS_11VectorStateINS_10ReverseArcINS_6ArcTplINS_17TropicalWeightTplIfEEEEEESaIS9_EEEEENS_10MutableFstIS9_EEE4TypeB5cxx11Ev
  1898: 00000000000fdfe0     1 FUNC    WEAK   DEFAULT   12 _ZN3fst10MutableFstINS_10ReverseArcINS_6ArcTplINS_23CompactLatticeWeightTplINS_16LatticeWeightTplIfEEiEEEEEEE11ReserveArcsEim
  1899: 00000000001020b0   146 FUNC    WEAK   DEFAULT   12 _ZNK3fst8internal14ComposeFstImplINS_17DefaultCacheStoreINS_6ArcTplINS_16LatticeWeightTplIfEEEEEENS_20TrivialComposeFilterINS_7MatcherINS_3FstIS6_EEEESC_EENS_24GenericComposeStateTableIS6_NS_18TrivialFilterStateENS_24DefaultComposeStateTupleIiSF_EENS_21CompactHashStateTableISH_NS_11ComposeHashISH_EEEEEEE10PropertiesEm
  1900: 0000000000156040 11141 FUNC    WEAK   DEFAULT   12 _ZN3fst9AutoQueueIiEC1INS_6ArcTplINS_23CompactLatticeWeightTplINS_16LatticeWeightTplIfEEiEEEENS_16EpsilonArcFilterIS8_EEEERKNS_3FstIT_EEPKSt6vectorINSC_6WeightESaISH_EET0_
  1901: 0000000000100400     1 FUNC    WEAK   DEFAULT   12 _ZN3fst18MutableArcIteratorINS_9VectorFstINS_6ArcTplINS_16LatticeWeightTplIfEEEENS_11VectorStateIS5_SaIS5_EEEEEE8SetFlagsEhh
  1902: 000000000023ffe0    24 OBJECT  WEAK   DEFAULT   21 _ZTIN3fst18CacheStateIteratorINS_10ComposeFstINS_6ArcTplINS_16LatticeWeightTplIfEEEENS_17DefaultCacheStoreIS5_EEEEEE
  1903: 000000000011bbd0   175 FUNC    WEAK   DEFAULT   12 _ZN3fst13SortedMatcherINS_3FstINS_6ArcTplINS_17TropicalWeightTplIfEEEEEEED2Ev
  1904: 00000000001936b0   407 FUNC    WEAK   DEFAULT   12 _ZNK3fst9ArcMapFstINS_6ArcTplINS_17TropicalWeightTplIfEEEENS1_INS_16LatticeWeightTplIfEEEENS_18StdToLatticeMapperIfEEE4CopyEb
  1905: 00000000001d4360   117 FUNC    WEAK   DEFAULT   12 _ZN3fst10MemoryPoolINS_13PoolAllocatorINS_10ReverseArcINS_6ArcTplINS_17TropicalWeightTplIfEEEEEEE2TNILi8EEEED2Ev
  1906: 00000000002408d0   104 OBJECT  WEAK   DEFAULT   21 _ZTVN3fst18MutableArcIteratorINS_9VectorFstINS_6ArcTplINS_23CompactLatticeWeightTplINS_16LatticeWeightTplIfEEiEEEENS_11VectorStateIS7_SaIS7_EEEEEEE
  1907: 0000000000117980    39 FUNC    WEAK   DEFAULT   12 _ZNSt6vectorIhSaIhEED2Ev
  1908: 000000000017de40   322 FUNC    WEAK   DEFAULT   12 _ZN3fst16ImplToMutableFstINS_8internal13VectorFstImplINS_11VectorStateINS_6ArcTplINS_17TropicalWeightTplIfEEEESaIS7_EEEEENS_10MutableFstIS7_EEE10DeleteArcsEim
  1909: 0000000000246e58    24 OBJECT  WEAK   DEFAULT   21 _ZTIN3fst10MemoryPoolINS_13PoolAllocatorINS_10CacheStateINS_10ReverseArcINS_6ArcTplINS_17TropicalWeightTplIfEEEEEENS1_IS8_EEEEE2TNILi1EEEEE
  1910: 00000000001071a0   263 FUNC    WEAK   DEFAULT   12 _ZNK3fst9ArcMapFstINS_6ArcTplINS_17TropicalWeightTplIfEEEENS1_INS_16LatticeWeightTplIfEEEENS_18StdToLatticeMapperIfEEE17InitStateIteratorEPNS_17StateIteratorDataIS7_EE
  1911: 00000000000ff030    11 FUNC    WEAK   DEFAULT   12 _ZNK3fst16ImplToMutableFstINS_8internal13VectorFstImplINS_11VectorStateINS_6ArcTplINS_23CompactLatticeWeightTplINS_16LatticeWeightTplIfEEiEEEESaIS9_EEEEENS_10MutableFstIS9_EEE13OutputSymbolsEv
  1912: 000000000010dd90    46 FUNC    WEAK   DEFAULT   12 _ZN3fst9ArcMapFstINS_6ArcTplINS_17TropicalWeightTplIfEEEES4_NS_28RemoveSomeInputSymbolsMapperIS4_iEEED0Ev
  1913: 00000000000fd850     9 FUNC    WEAK   DEFAULT   12 _ZN3fst29ScaleDeterministicOnDemandFst5StartEv
  1914: 0000000000246778    24 OBJECT  WEAK   DEFAULT   21 _ZTISt15_Sp_counted_ptrIPN3fst8internal22DeterminizeFstImplBaseINS0_10ReverseArcINS0_6ArcTplINS0_17TropicalWeightTplIfEEEEEEEELN9__gnu_cxx12_Lock_policyE2EE
  1915: 0000000000107970   168 FUNC    WEAK   DEFAULT   12 _ZNK3fst8internal14ComposeFstImplINS_17DefaultCacheStoreINS_6ArcTplINS_16LatticeWeightTplIfEEEEEENS_20TrivialComposeFilterINS_7MatcherINS_3FstIS6_EEEESC_EENS_24GenericComposeStateTableIS6_NS_18TrivialFilterStateENS_24DefaultComposeStateTupleIiSF_EENS_21CompactHashStateTableISH_NS_11ComposeHashISH_EEEEEEE10PropertiesEv
  1916: 00000000001a8090    14 FUNC    WEAK   DEFAULT   12 _ZNK3fst17ImplToExpandedFstINS_8internal9AddOnImplINS_8ConstFstINS_6ArcTplINS_17TropicalWeightTplIfEEEEjEENS_9AddOnPairINS_18LabelReachableDataIiEESB_EEEENS_11ExpandedFstIS7_EEE9NumStatesEv
  1917: 0000000000245b08    24 OBJECT  WEAK   DEFAULT   21 _ZTISt15_Sp_counted_ptrIPN3fst8internal9AddOnImplINS0_8ConstFstINS0_6ArcTplINS0_17TropicalWeightTplIfEEEEjEENS0_9AddOnPairINS0_18LabelReachableDataIiEESB_EEEELN9__gnu_cxx12_Lock_policyE2EE
  1918: 00000000001b22a0   628 FUNC    WEAK   DEFAULT   12 _ZN3fst14LabelReachableINS_6ArcTplINS_17TropicalWeightTplIfEEEENS_18DefaultAccumulatorIS4_EENS_18LabelReachableDataIiEEED2Ev
  1919: 000000000010dca0    37 FUNC    WEAK   DEFAULT   12 _ZN3fst11SymbolTableD2Ev
  1920: 00000000000fdb90     6 FUNC    WEAK   DEFAULT   12 _ZNK3fst8internal15MemoryArenaImplILm88EE4SizeEv
  1921: 00000000001d1e80    17 FUNC    WEAK   DEFAULT   12 _ZNK3fst17ComposeFstMatcherINS_17DefaultCacheStoreINS_6ArcTplINS_17TropicalWeightTplIfEEEEEENS_20NoMatchComposeFilterINS_7MatcherINS_3FstIS5_EEEESB_EENS_24GenericComposeStateTableIS5_NS_18TrivialFilterStateENS_24DefaultComposeStateTupleIiSE_EENS_21CompactHashStateTableISG_NS_11ComposeHashISG_EEEEEEE5ValueEv
  1922: 0000000000241fa0   312 OBJECT  WEAK   DEFAULT   21 _ZTVN3fst17ImplToExpandedFstINS_8internal13VectorFstImplINS_11VectorStateINS_6ArcTplINS_17TropicalWeightTplIfEEEESaIS7_EEEEENS_10MutableFstIS7_EEEE
  1923: 000000000024b0a0     8 OBJECT  <OS specific>: 10 DEFAULT   25 _ZGVZN3fst23CompactLatticeWeightTplINS_16LatticeWeightTplIfEEiE4TypeB5cxx11EvE4type
  1924: 0000000000204140    20 OBJECT  WEAK   DEFAULT   14 _ZTSN3fst9LifoQueueIiEE
  1925: 0000000000245218    56 OBJECT  WEAK   DEFAULT   21 _ZTVSt23_Sp_counted_ptr_inplaceIN3fst20MemoryPoolCollectionESaIvELN9__gnu_cxx12_Lock_policyE2EE
  1926: 00000000001947a0   472 FUNC    WEAK   DEFAULT   12 _ZNK3fst8internal14ComposeFstImplINS_17DefaultCacheStoreINS_6ArcTplINS_16LatticeWeightTplIfEEEEEENS_24AltSequenceComposeFilterINS_7MatcherINS_3FstIS6_EEEESC_EENS_24GenericComposeStateTableIS6_NS_18IntegerFilterStateIaEENS_24DefaultComposeStateTupleIiSG_EENS_21CompactHashStateTableISI_NS_11ComposeHashISI_EEEEEEE4CopyEv
  1927: 000000000014ab80   187 FUNC    WEAK   DEFAULT   12 _ZN3fst10SccVisitorINS_10ReverseArcINS_6ArcTplINS_16LatticeWeightTplIfEEEEEEED2Ev
  1928: 00000000002465d0    56 OBJECT  WEAK   DEFAULT   21 _ZTVSt23_Sp_counted_ptr_inplaceIN3fst9AddOnPairINS0_18LabelReachableDataIiEES3_EESaIvELN9__gnu_cxx12_Lock_policyE2EE
  1929: 00000000002028a0    65 OBJECT  WEAK   DEFAULT   14 _ZTSN3fst8internal7FstImplINS_6ArcTplINS_17TropicalWeightTplIfEEEEEE
  1930: 0000000000241b98    24 OBJECT  WEAK   DEFAULT   21 _ZTIN3fst10MemoryPoolINS_13PoolAllocatorINS_6ArcTplINS_17TropicalWeightTplIfEEEEE2TNILi2EEEEE
  1931: 0000000000100800     6 FUNC    WEAK   DEFAULT   12 _ZNK3fst17ComposeFstMatcherINS_17DefaultCacheStoreINS_6ArcTplINS_16LatticeWeightTplIfEEEEEENS_17NullComposeFilterINS_7MatcherINS_3FstIS5_EEEESB_EENS_24GenericComposeStateTableIS5_NS_18TrivialFilterStateENS_24DefaultComposeStateTupleIiSE_EENS_21CompactHashStateTableISG_NS_11ComposeHashISG_EEEEEEE10PropertiesEm
  1932: 0000000000142140   478 FUNC    WEAK   DEFAULT   12 _ZN3fst8internal13CacheBaseImplINS_10CacheStateINS_6ArcTplINS_17TropicalWeightTplIfEEEENS_13PoolAllocatorIS6_EEEENS_17DefaultCacheStoreIS6_EEEC1ERKNS_16CacheImplOptionsISB_EE
  1933: 000000000016a5c0   594 FUNC    WEAK   DEFAULT   12 _ZNSt6vectorIN3fst10ReverseArcINS0_6ArcTplINS0_23CompactLatticeWeightTplINS0_16LatticeWeightTplIfEEiEEEEEESaIS8_EE17_M_realloc_insertIJS8_EEEvN9__gnu_cxx17__normal_iteratorIPS8_SA_EEDpOT_
  1934: 00000000002433e0   152 OBJECT  WEAK   DEFAULT   21 _ZTVN3fst9ImplToFstINS_8internal18ComposeFstImplBaseINS_6ArcTplINS_16LatticeWeightTplIfEEEENS_17DefaultCacheStoreIS6_EENS_10ComposeFstIS6_S8_EEEENS_3FstIS6_EEEE
  1935: 00000000001d10e0    11 FUNC    WEAK   DEFAULT   12 _ZNK3fst18ShortestFirstQueueIiNS_8internal18StateWeightCompareIiNS_11NaturalLessINS_17TropicalWeightTplIfEEEEEELb0EE5EmptyEv
  1936: 000000000011b470    67 FUNC    WEAK   DEFAULT   12 _ZN3fst10MemoryPoolINS_13PoolAllocatorIPNSt8__detail15_Hash_node_baseEE2TNILi8EEEED0Ev
  1937: 00000000002452a0    40 OBJECT  WEAK   DEFAULT   21 _ZTVN3fst10MemoryPoolINS_13PoolAllocatorINS_6ArcTplINS_16LatticeWeightTplIfEEEEE2TNILi1EEEEE
  1938: 0000000000100c70   283 FUNC    WEAK   DEFAULT   12 _ZNK3fst17ComposeFstMatcherINS_17DefaultCacheStoreINS_6ArcTplINS_16LatticeWeightTplIfEEEEEENS_18MatchComposeFilterINS_7MatcherINS_3FstIS5_EEEESB_EENS_24GenericComposeStateTableIS5_NS_18IntegerFilterStateIaEENS_24DefaultComposeStateTupleIiSF_EENS_21CompactHashStateTableISH_NS_11ComposeHashISH_EEEEEEE4TypeEb
  1939: 0000000000206a00   374 OBJECT  WEAK   DEFAULT   14 _ZTSN3fst8internal14ComposeFstImplINS_17DefaultCacheStoreINS_6ArcTplINS_16LatticeWeightTplIfEEEEEENS_22LookAheadComposeFilterINS_24AltSequenceComposeFilterINS_16LookAheadMatcherINS_3FstIS6_EEEESD_EESD_SD_LNS_9MatchTypeE3EEENS_24GenericComposeStateTableIS6_NS_18IntegerFilterStateIaEENS_24DefaultComposeStateTupleIiSJ_EENS_21CompactHashStateTableISL_NS_11ComposeHashISL_EEEEEEEE
  1940: 00000000000fdc90     1 FUNC    WEAK   DEFAULT   12 _ZNSt23_Sp_counted_ptr_inplaceIN3fst8internal14ComposeFstImplINS0_17DefaultCacheStoreINS0_6ArcTplINS0_16LatticeWeightTplIfEEEEEENS0_22LookAheadComposeFilterINS0_24AltSequenceComposeFilterINS0_16LookAheadMatcherINS0_3FstIS7_EEEESE_EESE_SE_LNS0_9MatchTypeE3EEENS0_24GenericComposeStateTableIS7_NS0_18IntegerFilterStateIaEENS0_24DefaultComposeStateTupleIiSK_EENS0_21CompactHashStateTableISM_NS0_11ComposeHashISM_EEEEEEEESaIvELN9__gnu_cxx12_Lock_policyE2EED1Ev
  1941: 00000000001149d0   727 FUNC    WEAK   DEFAULT   12 _ZNSt6vectorIN5kaldi5nnet35IndexESaIS2_EE17_M_default_appendEm
  1942: 00000000001a8420    23 FUNC    WEAK   DEFAULT   12 _ZNK3fst11ArcIteratorINS_8NGramFstINS_6ArcTplINS_17TropicalWeightTplIfEEEEEEE4DoneEv
  1943: 00000000001152a0    54 FUNC    WEAK   DEFAULT   12 _ZNSt10unique_ptrISt6vectorIiSaIiEESt14default_deleteIS2_EED2Ev
  1944: 000000000024b080    32 OBJECT  <OS specific>: 10 DEFAULT   25 _ZZN3fst16LatticeWeightTplIfE4TypeB5cxx11EvE4type
  1945: 0000000000101c00    10 FUNC    WEAK   DEFAULT   12 _ZN3fst18CacheStateIteratorINS_10ComposeFstINS_6ArcTplINS_17TropicalWeightTplIfEEEENS_17DefaultCacheStoreIS5_EEEEED0Ev
  1946: 00000000001d20a0    17 FUNC    WEAK   DEFAULT   12 _ZNK3fst17ComposeFstMatcherINS_17DefaultCacheStoreINS_6ArcTplINS_17TropicalWeightTplIfEEEEEENS_20TrivialComposeFilterINS_7MatcherINS_3FstIS5_EEEESB_EENS_24GenericComposeStateTableIS5_NS_18TrivialFilterStateENS_24DefaultComposeStateTupleIiSE_EENS_21CompactHashStateTableISG_NS_11ComposeHashISG_EEEEEEE5ValueEv
  1947: 000000000010d110   286 FUNC    WEAK   DEFAULT   12 _ZNK3fst3FstINS_6ArcTplINS_23CompactLatticeWeightTplINS_16LatticeWeightTplIfEEiEEEEE5WriteERKNSt7__cxx1112basic_stringIcSt11char_traitsIcESaIcEEE
  1948: 0000000000240f38    24 OBJECT  WEAK   DEFAULT   21 _ZTIN3fst9AutoQueueIiEE
  1949: 0000000000246ea0    24 OBJECT  WEAK   DEFAULT   21 _ZTIN3fst10MemoryPoolINS_13PoolAllocatorINS_10ReverseArcINS_6ArcTplINS_17TropicalWeightTplIfEEEEEEE2TNILi4EEEEE
  1950: 0000000000242e88   152 OBJECT  WEAK   DEFAULT   21 _ZTVN3fst9ImplToFstINS_8internal13ArcMapFstImplINS_6ArcTplINS_17TropicalWeightTplIfEEEES6_NS_28RemoveSomeInputSymbolsMapperIS6_iEEEENS_3FstIS6_EEEE
  1951: 0000000000107d30    72 FUNC    WEAK   DEFAULT   12 _ZN3fst13TopOrderQueueIiED2Ev
  1952: 000000000010a8c0   117 FUNC    WEAK   DEFAULT   12 _ZN3fst10MemoryPoolINS_11ArcIteratorINS_3FstINS_6ArcTplINS_16LatticeWeightTplIfEEEEEEEEED1Ev
  1953: 00000000001e50b0   588 FUNC    WEAK   DEFAULT   12 _ZNK3fst17ComposeFstMatcherINS_17DefaultCacheStoreINS_6ArcTplINS_17TropicalWeightTplIfEEEEEENS_18MatchComposeFilterINS_7MatcherINS_3FstIS5_EEEESB_EENS_24GenericComposeStateTableIS5_NS_18IntegerFilterStateIaEENS_24DefaultComposeStateTupleIiSF_EENS_21CompactHashStateTableISH_NS_11ComposeHashISH_EEEEEEE4CopyEb
  1954: 0000000000205b40    73 OBJECT  WEAK   DEFAULT   14 _ZTSN3fst13SortedMatcherINS_3FstINS_6ArcTplINS_17TropicalWeightTplIfEEEEEEEE
  1955: 0000000000241c88    24 OBJECT  WEAK   DEFAULT   21 _ZTIN3fst10MemoryPoolINS_13PoolAllocatorINS_10ReverseArcINS_6ArcTplINS_16LatticeWeightTplIfEEEEEEE2TNILi16EEEEE
  1956: 00000000001e6b70   406 FUNC    WEAK   DEFAULT   12 _ZNSt6vectorIN3fst10ReverseArcINS0_6ArcTplINS0_17TropicalWeightTplIfEEEEEESaIS6_EE17_M_realloc_insertIJRKS6_EEEvN9__gnu_cxx17__normal_iteratorIPS6_S8_EEDpOT_
  1957: 000000000020c260    82 OBJECT  WEAK   DEFAULT   14 _ZTSN3fst14DeterminizeFstINS_10ReverseArcINS_6ArcTplINS_17TropicalWeightTplIfEEEEEEEE
  1958: 000000000010ac40   117 FUNC    WEAK   DEFAULT   12 _ZN3fst10MemoryPoolINS_13PoolAllocatorIPNSt8__detail15_Hash_node_baseEE2TNILi2EEEED2Ev
  1959: 000000000011f280   333 FUNC    WEAK   DEFAULT   12 _ZNSt10_HashtableISt4pairIiiES0_IKS1_iESaIS3_ENSt8__detail10_Select1stESt8equal_toIS1_EN5kaldi10PairHasherIiiEENS5_18_Mod_range_hashingENS5_20_Default_ranged_hashENS5_20_Prime_rehash_policyENS5_17_Hashtable_traitsILb0ELb0ELb1EEEE9_M_rehashEmRKm
  1960: 000000000019a910  4037 FUNC    GLOBAL DEFAULT   12 _ZNK22LanguageModelEstimator11OutputToFstEiPN3fst9VectorFstINS0_6ArcTplINS0_17TropicalWeightTplIfEEEENS0_11VectorStateIS5_SaIS5_EEEEE
  1961: 00000000001b2520    38 FUNC    WEAK   DEFAULT   12 _ZNSt10unique_ptrIN3fst10MappedFileESt14default_deleteIS1_EED1Ev
  1962: 0000000000100c50     7 FUNC    WEAK   DEFAULT   12 _ZNK3fst17ComposeFstMatcherINS_17DefaultCacheStoreINS_6ArcTplINS_16LatticeWeightTplIfEEEEEENS_24AltSequenceComposeFilterINS_7MatcherINS_3FstIS5_EEEESB_EENS_24GenericComposeStateTableIS5_NS_18IntegerFilterStateIaEENS_24DefaultComposeStateTupleIiSF_EENS_21CompactHashStateTableISH_NS_11ComposeHashISH_EEEEEEE6GetFstEv
  1963: 000000000020a2e0    70 OBJECT  WEAK   DEFAULT   14 _ZTSN3fst20LookAheadMatcherBaseINS_6ArcTplINS_17TropicalWeightTplIfEEEEEE
  1964: 000000000010bec0   117 FUNC    WEAK   DEFAULT   12 _ZN3fst10MemoryPoolINS_8internal8DfsStateINS_3FstINS_10ReverseArcINS_6ArcTplINS_16LatticeWeightTplIfEEEEEEEEEEED1Ev
  1965: 0000000000247130   312 OBJECT  WEAK   DEFAULT   21 _ZTVN3fst17ImplToExpandedFstINS_8internal13VectorFstImplINS_11VectorStateINS_10ReverseArcINS_6ArcTplINS_17TropicalWeightTplIfEEEEEESaIS9_EEEEENS_10MutableFstIS9_EEEE
  1966: 00000000001272e0   600 FUNC    WEAK   DEFAULT   12 _ZN3fst10SccVisitorINS_10ReverseArcINS_6ArcTplINS_23CompactLatticeWeightTplINS_16LatticeWeightTplIfEEiEEEEEEE11FinishVisitEv
  1967: 0000000000185c00   252 FUNC    WEAK   DEFAULT   12 _ZNK3fst9ImplToFstINS_8internal18ComposeFstImplBaseINS_6ArcTplINS_17TropicalWeightTplIfEEEENS_17DefaultCacheStoreIS6_EENS_10ComposeFstIS6_S8_EEEENS_3FstIS6_EEE5FinalEi
  1968: 00000000000fe680    62 FUNC    WEAK   DEFAULT   12 _ZNK3fst9VectorFstINS_10ReverseArcINS_6ArcTplINS_16LatticeWeightTplIfEEEEEENS_11VectorStateIS6_SaIS6_EEEE17InitStateIteratorEPNS_17StateIteratorDataIS6_EE
  1969: 0000000000240e38    24 OBJECT  WEAK   DEFAULT   21 _ZTIN3fst9ArcMapFstINS_6ArcTplINS_17TropicalWeightTplIfEEEES4_NS_28RemoveSomeInputSymbolsMapperIS4_iEEEE
  1970: 00000000002455c0    40 OBJECT  WEAK   DEFAULT   21 _ZTVN3fst10MemoryPoolINS_13PoolAllocatorINS_6ArcTplINS_17TropicalWeightTplIfEEEEE2TNILi2EEEEE
  1971: 0000000000246598    56 OBJECT  WEAK   DEFAULT   21 _ZTVSt15_Sp_counted_ptrIPN3fst8internal12ConstFstImplINS0_6ArcTplINS0_17TropicalWeightTplIfEEEEjEELN9__gnu_cxx12_Lock_policyE2EE
  1972: 000000000017eea0   711 FUNC    WEAK   DEFAULT   12 _ZN3fst18CompactHashBiTableIiNS_24DefaultComposeStateTupleIiNS_18IntegerFilterStateIaEEEENS_11ComposeHashIS4_EESt8equal_toIS4_ELNS_6HSTypeE3EEC1ERKSA_
  1973: 000000000011b730    67 FUNC    WEAK   DEFAULT   12 _ZN3fst8internal14MemoryPoolImplILm8EED0Ev
  1974: 0000000000126e10   319 FUNC    WEAK   DEFAULT   12 _ZNKSt10_HashtableIPKSt6vectorIN3fst19LatticeDeterminizerINS1_16LatticeWeightTplIfEEiE7ElementESaIS6_EESt4pairIKSA_iESaISD_ENSt8__detail10_Select1stENS5_11SubsetEqualENS5_9SubsetKeyENSF_18_Mod_range_hashingENSF_20_Default_ranged_hashENSF_20_Prime_rehash_policyENSF_17_Hashtable_traitsILb1ELb0ELb1EEEE19_M_find_before_nodeEmRSC_m
  1975: 00000000001384d0  1159 FUNC    WEAK   DEFAULT   12 _ZN3fst22LookAheadComposeFilterINS_21SequenceComposeFilterINS_16LookAheadMatcherINS_3FstINS_6ArcTplINS_17TropicalWeightTplIfEEEEEEEES9_EES9_S9_LNS_9MatchTypeE3EEC1ERKS8_SE_PS9_SF_
  1976: 0000000000141340   415 FUNC    WEAK   DEFAULT   12 _ZN3fst8internal14ComposeFstImplINS_17DefaultCacheStoreINS_6ArcTplINS_17TropicalWeightTplIfEEEEEENS_23PushLabelsComposeFilterINS_24PushWeightsComposeFilterINS_22LookAheadComposeFilterINS_24AltSequenceComposeFilterINS_16LookAheadMatcherINS_3FstIS6_EEEESF_EESF_SF_LNS_9MatchTypeE3EEESF_SF_LSH_3EEESF_SF_LSH_3EEENS_24GenericComposeStateTableIS6_NS_15PairFilterStateINSM_INS_18IntegerFilterStateIaEENS_17WeightFilterStateIS5_EEEENSN_IiEEEENS_24DefaultComposeStateTupleIiST_EENS_21CompactHashStateTableISV_NS_11ComposeHashISV_EEEEEEED0Ev
  1977: 0000000000241060    24 OBJECT  WEAK   DEFAULT   21 _ZTIN3fst8internal17VectorFstBaseImplINS_11VectorStateINS_10ReverseArcINS_6ArcTplINS_16LatticeWeightTplIfEEEEEESaIS8_EEEEE
  1978: 00000000001d1c90     6 FUNC    WEAK   DEFAULT   12 _ZNK3fst17ComposeFstMatcherINS_17DefaultCacheStoreINS_6ArcTplINS_17TropicalWeightTplIfEEEEEENS_18MatchComposeFilterINS_7MatcherINS_3FstIS5_EEEESB_EENS_24GenericComposeStateTableIS5_NS_18IntegerFilterStateIaEENS_24DefaultComposeStateTupleIiSF_EENS_21CompactHashStateTableISH_NS_11ComposeHashISH_EEEEEEE10PropertiesEm
  1979: 0000000000111ee0   129 FUNC    WEAK   DEFAULT   12 _ZN3fst13StateIteratorINS_9ArcMapFstINS_6ArcTplINS_17TropicalWeightTplIfEEEES5_NS_28RemoveSomeInputSymbolsMapperIS5_iEEEEE5ResetEv
  1980: 0000000000208f00   107 OBJECT  WEAK   DEFAULT   14 _ZTSN3fst10MemoryPoolINS_13PoolAllocatorINS_10ReverseArcINS_6ArcTplINS_16LatticeWeightTplIfEEEEEEE2TNILi1EEEEE
  1981: 000000000013c430   160 FUNC    WEAK   DEFAULT   12 _ZN3fst8internal14ComposeFstImplINS_17DefaultCacheStoreINS_6ArcTplINS_16LatticeWeightTplIfEEEEEENS_24AltSequenceComposeFilterINS_7MatcherINS_3FstIS6_EEEESC_EENS_24GenericComposeStateTableIS6_NS_18IntegerFilterStateIaEENS_24DefaultComposeStateTupleIiSG_EENS_21CompactHashStateTableISI_NS_11ComposeHashISI_EEEEEEED2Ev
  1982: 00000000001ddc80   422 FUNC    WEAK   DEFAULT   12 _ZNK3fst8internal14ComposeFstImplINS_17DefaultCacheStoreINS_6ArcTplINS_17TropicalWeightTplIfEEEEEENS_20NoMatchComposeFilterINS_7MatcherINS_3FstIS6_EEEESC_EENS_24GenericComposeStateTableIS6_NS_18TrivialFilterStateENS_24DefaultComposeStateTupleIiSF_EENS_21CompactHashStateTableISH_NS_11ComposeHashISH_EEEEEEE11InitMatcherERKNS_10ComposeFstIS6_S7_EENS_9MatchTypeE
  1983: 00000000001d0c20     1 FUNC    WEAK   DEFAULT   12 _ZN3fst10MutableFstINS_10ReverseArcINS_6ArcTplINS_17TropicalWeightTplIfEEEEEEE13ReserveStatesEm
  1984: 0000000000240af8    16 OBJECT  WEAK   DEFAULT   21 _ZTIN3fst3FstINS_6ArcTplINS_17TropicalWeightTplIfEEEEEE
  1985: 00000000001e1220   160 FUNC    WEAK   DEFAULT   12 _ZN3fst8internal14ComposeFstImplINS_17DefaultCacheStoreINS_6ArcTplINS_17TropicalWeightTplIfEEEEEENS_20TrivialComposeFilterINS_7MatcherINS_3FstIS6_EEEESC_EENS_24GenericComposeStateTableIS6_NS_18TrivialFilterStateENS_24DefaultComposeStateTupleIiSF_EENS_21CompactHashStateTableISH_NS_11ComposeHashISH_EEEEEEED2Ev
  1986: 00000000000fdc40     6 FUNC    WEAK   DEFAULT   12 _ZNK3fst8internal15MemoryArenaImplILm16EE4SizeEv
  1987: 000000000020ae00   113 OBJECT  WEAK   DEFAULT   14 _ZTSSt19_Sp_counted_deleterIPN3fst18LabelReachableDataIiEESt14default_deleteIS2_ESaIvELN9__gnu_cxx12_Lock_policyE2EE
  1988: 000000000010c040   117 FUNC    WEAK   DEFAULT   12 _ZN3fst10MemoryPoolINS_13PoolAllocatorINS_6ArcTplINS_17TropicalWeightTplIfEEEEE2TNILi8EEEED1Ev
  1989: 000000000013cb30   173 FUNC    WEAK   DEFAULT   12 _ZN3fst8internal14ComposeFstImplINS_17DefaultCacheStoreINS_6ArcTplINS_16LatticeWeightTplIfEEEEEENS_20NoMatchComposeFilterINS_7MatcherINS_3FstIS6_EEEESC_EENS_24GenericComposeStateTableIS6_NS_18TrivialFilterStateENS_24DefaultComposeStateTupleIiSF_EENS_21CompactHashStateTableISH_NS_11ComposeHashISH_EEEEEEED0Ev
  1990: 00000000000fdc00     6 FUNC    WEAK   DEFAULT   12 _ZNK3fst8internal15MemoryArenaImplILm72EE4SizeEv
  1991: 0000000000242378    48 OBJECT  WEAK   DEFAULT   21 _ZTVN3fst8internal17VectorFstBaseImplINS_11VectorStateINS_6ArcTplINS_23CompactLatticeWeightTplINS_16LatticeWeightTplIfEEiEEEESaIS8_EEEEE
  1992: 0000000000244518   312 OBJECT  WEAK   DEFAULT   21 _ZTVN3fst9ImplToFstINS_8internal13VectorFstImplINS_11VectorStateINS_10ReverseArcINS_6ArcTplINS_23CompactLatticeWeightTplINS_16LatticeWeightTplIfEEiEEEEEESaISB_EEEEENS_10MutableFstISB_EEEE
  1993: 0000000000119c90    39 FUNC    WEAK   DEFAULT   12 _ZNSt6vectorIN3fst19LatticeDeterminizerINS0_16LatticeWeightTplIfEEiE7ElementESaIS5_EED1Ev
  1994: 00000000001016e0   113 FUNC    WEAK   DEFAULT   12 _ZN3fst17ComposeFstMatcherINS_17DefaultCacheStoreINS_6ArcTplINS_16LatticeWeightTplIfEEEEEENS_22LookAheadComposeFilterINS_24AltSequenceComposeFilterINS_16LookAheadMatcherINS_3FstIS5_EEEESC_EESC_SC_LNS_9MatchTypeE3EEENS_24GenericComposeStateTableIS5_NS_18IntegerFilterStateIaEENS_24DefaultComposeStateTupleIiSI_EENS_21CompactHashStateTableISK_NS_11ComposeHashISK_EEEEEEE8SetStateEi
  1995: 00000000001a7e30     1 FUNC    WEAK   DEFAULT   12 _ZNSt19_Sp_counted_deleterIPN3fst18LabelReachableDataIiEESt14default_deleteIS2_ESaIvELN9__gnu_cxx12_Lock_policyE2EED1Ev
  1996: 0000000000185a70   377 FUNC    WEAK   DEFAULT   12 _ZN3fst8internal13ArcMapFstImplINS_6ArcTplINS_17TropicalWeightTplIfEEEES5_NS_28RemoveSomeInputSymbolsMapperIS5_iEEE5FinalEi
  1997: 0000000000240300   128 OBJECT  WEAK   DEFAULT   21 _ZTVN3fst17ComposeFstMatcherINS_17DefaultCacheStoreINS_6ArcTplINS_16LatticeWeightTplIfEEEEEENS_20TrivialComposeFilterINS_7MatcherINS_3FstIS5_EEEESB_EENS_24GenericComposeStateTableIS5_NS_18TrivialFilterStateENS_24DefaultComposeStateTupleIiSE_EENS_21CompactHashStateTableISG_NS_11ComposeHashISG_EEEEEEEE
  1998: 0000000000123b80   613 FUNC    WEAK   DEFAULT   12 _ZNSt27__uninitialized_default_n_1ILb0EE18__uninit_default_nIPN3fst9VectorFstINS2_6ArcTplINS2_16LatticeWeightTplIfEEEENS2_11VectorStateIS7_SaIS7_EEEEEmEET_SD_T0_
  1999: 0000000000240e50    24 OBJECT  WEAK   DEFAULT   21 _ZTIN3fst8internal13CacheBaseImplINS_10CacheStateINS_6ArcTplINS_16LatticeWeightTplIfEEEENS_13PoolAllocatorIS6_EEEENS_17DefaultCacheStoreIS6_EEEE
  2000: 000000000010b740   117 FUNC    WEAK   DEFAULT   12 _ZN3fst8internal14MemoryPoolImplILm1024EED2Ev
  2001: 000000000020ad80   124 OBJECT  WEAK   DEFAULT   14 _ZTSSt15_Sp_counted_ptrIPN3fst8internal12NGramFstImplINS0_6ArcTplINS0_17TropicalWeightTplIfEEEEEELN9__gnu_cxx12_Lock_policyE2EE
  2002: 000000000011a8c0    67 FUNC    WEAK   DEFAULT   12 _ZN3fst10MemoryPoolINS_13PoolAllocatorINS_10ReverseArcINS_6ArcTplINS_16LatticeWeightTplIfEEEEEEE2TNILi16EEEED0Ev
  2003: 000000000010bbc0   117 FUNC    WEAK   DEFAULT   12 _ZN3fst10MemoryPoolINS_13PoolAllocatorIPNSt8__detail15_Hash_node_baseEE2TNILi16EEEED1Ev
  2004: 000000000015fff0  2639 FUNC    WEAK   DEFAULT   12 _ZN3fst9VectorFstINS_10ReverseArcINS_6ArcTplINS_23CompactLatticeWeightTplINS_16LatticeWeightTplIfEEiEEEEEENS_11VectorStateIS8_SaIS8_EEEE8WriteFstISC_EEbRKT_RSoRKNS_15FstWriteOptionsE
  2005: 000000000017b400   150 FUNC    WEAK   DEFAULT   12 _ZN3fst16ImplToMutableFstINS_8internal13VectorFstImplINS_11VectorStateINS_6ArcTplINS_23CompactLatticeWeightTplINS_16LatticeWeightTplIfEEiEEEESaIS9_EEEEENS_10MutableFstIS9_EEE20MutableOutputSymbolsEv
  2006: 0000000000101cc0    10 FUNC    WEAK   DEFAULT   12 _ZN3fst18CacheStateIteratorINS_14DeterminizeFstINS_10ReverseArcINS_6ArcTplINS_16LatticeWeightTplIfEEEEEEEEED0Ev
  2007: 00000000001e1800   173 FUNC    WEAK   DEFAULT   12 _ZN3fst8internal14ComposeFstImplINS_17DefaultCacheStoreINS_6ArcTplINS_17TropicalWeightTplIfEEEEEENS_24AltSequenceComposeFilterINS_7MatcherINS_3FstIS6_EEEESC_EENS_24GenericComposeStateTableIS6_NS_18IntegerFilterStateIaEENS_24DefaultComposeStateTupleIiSG_EENS_21CompactHashStateTableISI_NS_11ComposeHashISI_EEEEEEED0Ev
  2008: 00000000001f0900   807 FUNC    WEAK   DEFAULT   12 _ZN3fst16VectorCacheStoreINS_10CacheStateINS_10ReverseArcINS_6ArcTplINS_17TropicalWeightTplIfEEEEEENS_13PoolAllocatorIS7_EEEEE15GetMutableStateEi
  2009: 00000000001d4540   173 FUNC    WEAK   DEFAULT   12 _ZN3fst17ComposeFstMatcherINS_17DefaultCacheStoreINS_6ArcTplINS_17TropicalWeightTplIfEEEEEENS_17NullComposeFilterINS_7MatcherINS_3FstIS5_EEEESB_EENS_24GenericComposeStateTableIS5_NS_18TrivialFilterStateENS_24DefaultComposeStateTupleIiSE_EENS_21CompactHashStateTableISG_NS_11ComposeHashISG_EEEEEEED1Ev
  2010: 0000000000173190   439 FUNC    WEAK   DEFAULT   12 _ZN3fst16ImplToMutableFstINS_8internal13VectorFstImplINS_11VectorStateINS_10ReverseArcINS_6ArcTplINS_16LatticeWeightTplIfEEEEEESaIS9_EEEEENS_10MutableFstIS9_EEE6AddArcEiOS9_
  2011: 000000000010c240   117 FUNC    WEAK   DEFAULT   12 _ZN3fst10MemoryPoolINS_13PoolAllocatorINS_6ArcTplINS_17TropicalWeightTplIfEEEEE2TNILi2EEEED2Ev
  2012: 00000000001ae490    37 FUNC    WEAK   DEFAULT   12 _ZN3fst10MatcherFstINS_8ConstFstINS_6ArcTplINS_17TropicalWeightTplIfEEEEjEENS_21LabelLookAheadMatcherINS_13SortedMatcherIS6_EELj1760ENS_18FastLogAccumulatorIS5_EENS_14LabelReachableIS5_SB_NS_18LabelReachableDataIiEEEEEEXadL_ZNS_25olabel_lookahead_fst_typeEEENS_23LabelLookAheadRelabelerIS5_SE_EENS_9AddOnPairISE_SE_EEED1Ev
  2013: 000000000011b4f0    67 FUNC    WEAK   DEFAULT   12 _ZN3fst8internal14MemoryPoolImplILm32EED0Ev
  2014: 000000000011f3d0   245 FUNC    WEAK   DEFAULT   12 _ZNSt10_HashtableISt4pairIiiES0_IKS1_iESaIS3_ENSt8__detail10_Select1stESt8equal_toIS1_EN5kaldi10PairHasherIiiEENS5_18_Mod_range_hashingENS5_20_Default_ranged_hashENS5_20_Prime_rehash_policyENS5_17_Hashtable_traitsILb0ELb0ELb1EEEE21_M_insert_unique_nodeEmmPNS5_10_Hash_nodeIS3_Lb0EEEm
  2015: 00000000001017b0    17 FUNC    WEAK   DEFAULT   12 _ZNK3fst17ComposeFstMatcherINS_17DefaultCacheStoreINS_6ArcTplINS_16LatticeWeightTplIfEEEEEENS_22LookAheadComposeFilterINS_24AltSequenceComposeFilterINS_16LookAheadMatcherINS_3FstIS5_EEEESC_EESC_SC_LNS_9MatchTypeE3EEENS_24GenericComposeStateTableIS5_NS_18IntegerFilterStateIaEENS_24DefaultComposeStateTupleIiSI_EENS_21CompactHashStateTableISK_NS_11ComposeHashISK_EEEEEEE5ValueEv
  2016: 000000000011ba10    67 FUNC    WEAK   DEFAULT   12 _ZN3fst10MemoryPoolINS_8internal8DfsStateINS_3FstINS_6ArcTplINS_17TropicalWeightTplIfEEEEEEEEED0Ev
  2017: 00000000002063c0   101 OBJECT  WEAK   DEFAULT   14 _ZTSN3fst3FstINS_10ReverseArcINS_6ArcTplINS_23CompactLatticeWeightTplINS_16LatticeWeightTplIfEEiEEEEEEEE
  2018: 0000000000243178    56 OBJECT  WEAK   DEFAULT   21 _ZTVN3fst31ComposeDeterministicOnDemandFstINS_6ArcTplINS_17TropicalWeightTplIfEEEEEE
  2019: 0000000000202a60    40 OBJECT  WEAK   DEFAULT   14 _ZTSN3fst8internal15MemoryArenaImplILm32EEE
  2020: 00000000001e8730   404 FUNC    WEAK   DEFAULT   12 _ZN3fst16ImplToMutableFstINS_8internal13VectorFstImplINS_11VectorStateINS_10ReverseArcINS_6ArcTplINS_17TropicalWeightTplIfEEEEEESaIS9_EEEEENS_10MutableFstIS9_EEE8AddStateEv
  2021: 000000000011a870    67 FUNC    WEAK   DEFAULT   12 _ZN3fst8internal14MemoryPoolImplILm320EED0Ev
  2022: 0000000000135050   150 FUNC    WEAK   DEFAULT   12 _ZN3fst16ImplToMutableFstINS_8internal13VectorFstImplINS_11VectorStateINS_6ArcTplINS_16LatticeWeightTplIfEEEESaIS7_EEEEENS_10MutableFstIS7_EEE19MutableInputSymbolsEv
  2023: 0000000000208720    89 OBJECT  WEAK   DEFAULT   14 _ZTSN3fst10MemoryPoolINS_13PoolAllocatorINS_6ArcTplINS_16LatticeWeightTplIfEEEEE2TNILi2EEEEE
  2024: 0000000000199ef0   168 FUNC    GLOBAL DEFAULT   12 _ZN22LanguageModelEstimator15SetParentCountsEv
  2025: 0000000000240480   128 OBJECT  WEAK   DEFAULT   21 _ZTVN3fst17ComposeFstMatcherINS_17DefaultCacheStoreINS_6ArcTplINS_16LatticeWeightTplIfEEEEEENS_24AltSequenceComposeFilterINS_7MatcherINS_3FstIS5_EEEESB_EENS_24GenericComposeStateTableIS5_NS_18IntegerFilterStateIaEENS_24DefaultComposeStateTupleIiSF_EENS_21CompactHashStateTableISH_NS_11ComposeHashISH_EEEEEEEE
  2026: 000000000019d230  2970 FUNC    WEAK   DEFAULT   12 _ZN3fst8StateMapINS_6ArcTplINS_17TropicalWeightTplIfEEEENS_13ArcSortMapperIS4_NS_13ILabelCompareIS4_EEEEEEvPNS_10MutableFstIT_EEPT0_
  2027: 00000000001ec770   670 FUNC    WEAK   DEFAULT   12 _ZN3fst8internal14TestPropertiesINS_10ReverseArcINS_6ArcTplINS_17TropicalWeightTplIfEEEEEEEEmRKNS_3FstIT_EEmPm
  2028: 0000000000240ac0    16 OBJECT  WEAK   DEFAULT   21 _ZTIN3fst11SymbolTableE
  2029: 0000000000244c58    56 OBJECT  WEAK   DEFAULT   21 _ZTVSt23_Sp_counted_ptr_inplaceIN3fst8internal14ComposeFstImplINS0_17DefaultCacheStoreINS0_6ArcTplINS0_16LatticeWeightTplIfEEEEEENS0_21SequenceComposeFilterINS0_7MatcherINS0_3FstIS7_EEEESD_EENS0_24GenericComposeStateTableIS7_NS0_18IntegerFilterStateIaEENS0_24DefaultComposeStateTupleIiSH_EENS0_21CompactHashStateTableISJ_NS0_11ComposeHashISJ_EEEEEEEESaIvELN9__gnu_cxx12_Lock_policyE2EE
  2030: 0000000000100a20     7 FUNC    WEAK   DEFAULT   12 _ZNK3fst17ComposeFstMatcherINS_17DefaultCacheStoreINS_6ArcTplINS_16LatticeWeightTplIfEEEEEENS_21SequenceComposeFilterINS_7MatcherINS_3FstIS5_EEEESB_EENS_24GenericComposeStateTableIS5_NS_18IntegerFilterStateIaEENS_24DefaultComposeStateTupleIiSF_EENS_21CompactHashStateTableISH_NS_11ComposeHashISH_EEEEEEE6GetFstEv
  2031: 0000000000140c60    23 FUNC    WEAK   DEFAULT   12 _ZN3fst8internal13CacheBaseImplINS_10CacheStateINS_6ArcTplINS_17TropicalWeightTplIfEEEENS_13PoolAllocatorIS6_EEEENS_17DefaultCacheStoreIS6_EEED0Ev
  2032: 0000000000115560   187 FUNC    WEAK   DEFAULT   12 _ZN3fst10SccVisitorINS_6ArcTplINS_16LatticeWeightTplIfEEEEED2Ev
  2033: 0000000000245548    40 OBJECT  WEAK   DEFAULT   21 _ZTVN3fst8internal15MemoryArenaImplILm1032EEE
  2034: 00000000001ab740    23 FUNC    WEAK   DEFAULT   12 _ZN5kaldi12ParseOptionsD0Ev
  2035: 000000000014ee30   670 FUNC    WEAK   DEFAULT   12 _ZN3fst8internal14TestPropertiesINS_6ArcTplINS_16LatticeWeightTplIfEEEEEEmRKNS_3FstIT_EEmPm
  2036: 00000000000ff020    11 FUNC    WEAK   DEFAULT   12 _ZNK3fst16ImplToMutableFstINS_8internal13VectorFstImplINS_11VectorStateINS_6ArcTplINS_23CompactLatticeWeightTplINS_16LatticeWeightTplIfEEiEEEESaIS9_EEEEENS_10MutableFstIS9_EEE12InputSymbolsEv
  2037: 00000000000feb60     6 FUNC    WEAK   DEFAULT   12 _ZNK3fst15StateOrderQueueIiE4HeadEv
  2038: 00000000001a2950  2482 FUNC    GLOBAL DEFAULT   12 _ZN5ModelD1Ev
  2039: 00000000001ef560   115 FUNC    WEAK   DEFAULT   12 _ZN3fst8internal18DeterminizeFsaImplINS_10ReverseArcINS_6ArcTplINS_17TropicalWeightTplIfEEEEEENS_20DefaultCommonDivisorIS5_EENS_24DefaultDeterminizeFilterIS7_EENS_28DefaultDeterminizeStateTableIS7_NS_18IntegerFilterStateIaEEEEE12ComputeStartEv
  2040: 0000000000244e30    40 OBJECT  WEAK   DEFAULT   21 _ZTVN3fst10MemoryPoolINS_13PoolAllocatorINS_10CacheStateINS_6ArcTplINS_16LatticeWeightTplIfEEEENS1_IS6_EEEEE2TNILi1EEEEE
  2041: 0000000000246810   128 OBJECT  WEAK   DEFAULT   21 _ZTVN3fst17ComposeFstMatcherINS_17DefaultCacheStoreINS_6ArcTplINS_17TropicalWeightTplIfEEEEEENS_20NoMatchComposeFilterINS_7MatcherINS_3FstIS5_EEEESB_EENS_24GenericComposeStateTableIS5_NS_18TrivialFilterStateENS_24DefaultComposeStateTupleIiSE_EENS_21CompactHashStateTableISG_NS_11ComposeHashISG_EEEEEEEE
  2042: 0000000000101590     9 FUNC    WEAK   DEFAULT   12 _ZN3fst18MutableArcIteratorINS_9VectorFstINS_10ReverseArcINS_6ArcTplINS_23CompactLatticeWeightTplINS_16LatticeWeightTplIfEEiEEEEEENS_11VectorStateIS9_SaIS9_EEEEEE4SeekEm
  2043: 00000000001442a0   345 FUNC    WEAK   DEFAULT   12 _ZN3fst20MemoryPoolCollection4PoolINS_13PoolAllocatorINS_10ReverseArcINS_6ArcTplINS_16LatticeWeightTplIfEEEEEEE2TNILi2EEEEEPNS_10MemoryPoolIT_EEv
  2044: 00000000001014d0    17 FUNC    WEAK   DEFAULT   12 _ZNK3fst17ComposeFstMatcherINS_17DefaultCacheStoreINS_6ArcTplINS_17TropicalWeightTplIfEEEEEENS_21SequenceComposeFilterINS_7MatcherINS_3FstIS5_EEEESB_EENS_24GenericComposeStateTableIS5_NS_18IntegerFilterStateIaEENS_24DefaultComposeStateTupleIiSF_EENS_21CompactHashStateTableISH_NS_11ComposeHashISH_EEEEEEE5ValueEv
  2045: 00000000001c8770  1802 FUNC    GLOBAL DEFAULT   12 _ZN8SpkModelC1EPKc
  2046: 0000000000133680   431 FUNC    WEAK   DEFAULT   12 _ZNK3fst8internal14ComposeFstImplINS_17DefaultCacheStoreINS_6ArcTplINS_16LatticeWeightTplIfEEEEEENS_21SequenceComposeFilterINS_7MatcherINS_3FstIS6_EEEESC_EENS_24GenericComposeStateTableIS6_NS_18IntegerFilterStateIaEENS_24DefaultComposeStateTupleIiSG_EENS_21CompactHashStateTableISI_NS_11ComposeHashISI_EEEEEEE11InitMatcherERKNS_10ComposeFstIS6_S7_EENS_9MatchTypeE
  2047: 0000000000133e00    64 FUNC    WEAK   DEFAULT   12 _ZNSt10unique_ptrIN3fst7MatcherINS0_3FstINS0_6ArcTplINS0_17TropicalWeightTplIfEEEEEEEESt14default_deleteIS8_EED2Ev
  2048: 0000000000100580    11 FUNC    WEAK   DEFAULT   12 _ZN3fst18MutableArcIteratorINS_9VectorFstINS_10ReverseArcINS_6ArcTplINS_16LatticeWeightTplIfEEEEEENS_11VectorStateIS7_SaIS7_EEEEEE5ResetEv
  2049: 0000000000131730  1121 FUNC    WEAK   DEFAULT   12 _ZN3fst8internal14ComposeFstImplINS_17DefaultCacheStoreINS_6ArcTplINS_17TropicalWeightTplIfEEEEEENS_23PushLabelsComposeFilterINS_24PushWeightsComposeFilterINS_22LookAheadComposeFilterINS_24AltSequenceComposeFilterINS_16LookAheadMatcherINS_3FstIS6_EEEESF_EESF_SF_LNS_9MatchTypeE3EEESF_SF_LSH_3EEESF_SF_LSH_3EEENS_24GenericComposeStateTableIS6_NS_15PairFilterStateINSM_INS_18IntegerFilterStateIaEENS_17WeightFilterStateIS5_EEEENSN_IiEEEENS_24DefaultComposeStateTupleIiST_EENS_21CompactHashStateTableISV_NS_11ComposeHashISV_EEEEEEE12SetMatchTypeEv
  2050: 00000000001156e0   187 FUNC    WEAK   DEFAULT   12 _ZN3fst10SccVisitorINS_6ArcTplINS_17TropicalWeightTplIfEEEEED2Ev
  2051: 000000000011b5e0    42 FUNC    WEAK   DEFAULT   12 _ZN3fst8internal15MemoryArenaImplILm40EED0Ev
  2052: 0000000000247a10    56 OBJECT  WEAK   DEFAULT   21 _ZTVSt23_Sp_counted_ptr_inplaceIN3fst8internal14ComposeFstImplINS0_17DefaultCacheStoreINS0_6ArcTplINS0_17TropicalWeightTplIfEEEEEENS0_24AltSequenceComposeFilterINS0_7MatcherINS0_3FstIS7_EEEESD_EENS0_24GenericComposeStateTableIS7_NS0_18IntegerFilterStateIaEENS0_24DefaultComposeStateTupleIiSH_EENS0_21CompactHashStateTableISJ_NS0_11ComposeHashISJ_EEEEEEEESaIvELN9__gnu_cxx12_Lock_policyE2EE
  2053: 000000000023fe80    24 OBJECT  WEAK   DEFAULT   21 _ZTIN3fst17ComposeFstMatcherINS_17DefaultCacheStoreINS_6ArcTplINS_16LatticeWeightTplIfEEEEEENS_22LookAheadComposeFilterINS_24AltSequenceComposeFilterINS_16LookAheadMatcherINS_3FstIS5_EEEESC_EESC_SC_LNS_9MatchTypeE3EEENS_24GenericComposeStateTableIS5_NS_18IntegerFilterStateIaEENS_24DefaultComposeStateTupleIiSI_EENS_21CompactHashStateTableISK_NS_11ComposeHashISK_EEEEEEEE
  2054: 000000000011c6a0   416 FUNC    WEAK   DEFAULT   12 _ZN3fst23CompactLatticeWeightTplINS_16LatticeWeightTplIfEEiE4TypeB5cxx11Ev
  2055: 000000000013d4b0  1352 FUNC    WEAK   DEFAULT   12 _ZN3fst16VectorCacheStoreINS_10CacheStateINS_6ArcTplINS_16LatticeWeightTplIfEEEENS_13PoolAllocatorIS5_EEEEEC2ERKNS_12CacheOptionsE
  2056: 0000000000139800   375 FUNC    WEAK   DEFAULT   12 _ZN3fst20MemoryPoolCollection4PoolINS_13PoolAllocatorIPNSt8__detail15_Hash_node_baseEE2TNILi2EEEEEPNS_10MemoryPoolIT_EEv
  2057: 000000000010deb0    46 FUNC    WEAK   DEFAULT   12 _ZN3fst10ComposeFstINS_6ArcTplINS_16LatticeWeightTplIfEEEENS_17DefaultCacheStoreIS4_EEED0Ev
  2058: 0000000000150cb0  4499 FUNC    WEAK   DEFAULT   12 _ZN3fst8internal21ShortestDistanceStateINS_6ArcTplINS_23CompactLatticeWeightTplINS_16LatticeWeightTplIfEEiEEEENS_9AutoQueueIiEENS_12AnyArcFilterIS7_EENS_17WeightApproxEqualEE16ShortestDistanceEi
  2059: 000000000010d350   286 FUNC    WEAK   DEFAULT   12 _ZNK3fst3FstINS_10ReverseArcINS_6ArcTplINS_23CompactLatticeWeightTplINS_16LatticeWeightTplIfEEiEEEEEEE5WriteERKNSt7__cxx1112basic_stringIcSt11char_traitsIcESaIcEEE
  2060: 0000000000100810   283 FUNC    WEAK   DEFAULT   12 _ZNK3fst17ComposeFstMatcherINS_17DefaultCacheStoreINS_6ArcTplINS_16LatticeWeightTplIfEEEEEENS_21SequenceComposeFilterINS_7MatcherINS_3FstIS5_EEEESB_EENS_24GenericComposeStateTableIS5_NS_18IntegerFilterStateIaEENS_24DefaultComposeStateTupleIiSF_EENS_21CompactHashStateTableISH_NS_11ComposeHashISH_EEEEEEE4TypeEb
  2061: 00000000001b4fd0   644 FUNC    WEAK   DEFAULT   12 _ZN3fst14LabelReachableINS_6ArcTplINS_17TropicalWeightTplIfEEEENS_18FastLogAccumulatorIS4_EENS_18LabelReachableDataIiEEED1Ev
  2062: 0000000000203600    60 OBJECT  WEAK   DEFAULT   14 _ZTSN3fst11ExpandedFstINS_6ArcTplINS_16LatticeWeightTplIfEEEEEE
  2063: 0000000000199410   629 FUNC    WEAK   DEFAULT   12 _ZN3fst17ComposeFstMatcherINS_17DefaultCacheStoreINS_6ArcTplINS_16LatticeWeightTplIfEEEEEENS_22LookAheadComposeFilterINS_21SequenceComposeFilterINS_16LookAheadMatcherINS_3FstIS5_EEEESC_EESC_SC_LNS_9MatchTypeE3EEENS_24GenericComposeStateTableIS5_NS_18IntegerFilterStateIaEENS_24DefaultComposeStateTupleIiSI_EENS_21CompactHashStateTableISK_NS_11ComposeHashISK_EEEEEEE8FindNextISC_SC_EEbPT_PT0_
  2064: 00000000001a2450  1013 FUNC    GLOBAL DEFAULT   12 _ZN5Model11ConfigureV2Ev
  2065: 0000000000245060    40 OBJECT  WEAK   DEFAULT   21 _ZTVN3fst8internal14MemoryPoolImplILm64EEE
  2066: 00000000001de340    39 FUNC    WEAK   DEFAULT   12 _ZNSt6vectorIN3fst24DefaultComposeStateTupleIiNS0_18IntegerFilterStateIaEEEESaIS4_EED1Ev
  2067: 00000000001bde60  8333 FUNC    WEAK   DEFAULT   12 _ZN3fst8internal12NGramFstImplINS_6ArcTplINS_17TropicalWeightTplIfEEEEEC2ERKNS_3FstIS5_EEPSt6vectorIiSaIiEE
  2068: 0000000000203bc0   131 OBJECT  WEAK   DEFAULT   14 _ZTSN3fst8internal13ArcMapFstImplINS_6ArcTplINS_17TropicalWeightTplIfEEEENS2_INS_16LatticeWeightTplIfEEEENS_18StdToLatticeMapperIfEEEE
  2069: 0000000000146720   481 FUNC    WEAK   DEFAULT   12 _ZN3fst18MatchComposeFilterINS_7MatcherINS_3FstINS_6ArcTplINS_16LatticeWeightTplIfEEEEEEEES8_E8SetStateEiiRKNS_18IntegerFilterStateIaEE
  2070: 000000000020c060   160 OBJECT  WEAK   DEFAULT   14 _ZTSN3fst8internal13CacheBaseImplINS_10CacheStateINS_10ReverseArcINS_6ArcTplINS_17TropicalWeightTplIfEEEEEENS_13PoolAllocatorIS8_EEEENS_17DefaultCacheStoreIS8_EEEE
  2071: 00000000001d3fe0   117 FUNC    WEAK   DEFAULT   12 _ZN3fst10MemoryPoolINS_13PoolAllocatorINS_10ReverseArcINS_6ArcTplINS_17TropicalWeightTplIfEEEEEEE2TNILi64EEEED1Ev
  2072: 0000000000111040   312 FUNC    WEAK   DEFAULT   12 _ZNK3fst10ComposeFstINS_6ArcTplINS_17TropicalWeightTplIfEEEENS_17DefaultCacheStoreIS4_EEE4CopyEb
  2073: 0000000000209f20    53 OBJECT  WEAK   DEFAULT   14 _ZTSSt14default_deleteIN3fst8internal15SymbolTableImplEE
  2074: 000000000010aec0   117 FUNC    WEAK   DEFAULT   12 _ZN3fst10MemoryPoolINS_13PoolAllocatorINS_6ArcTplINS_17TropicalWeightTplIfEEEEE2TNILi64EEEED1Ev
  2075: 00000000000fdac0     6 FUNC    WEAK   DEFAULT   12 _ZNK3fst8internal14MemoryPoolImplILm20EE4SizeEv
  2076: 00000000001ad3e0   656 FUNC    WEAK   DEFAULT   12 _ZN5kaldi15MelBanksOptions8RegisterEPNS_10OptionsItfE
  2077: 0000000000174590   547 FUNC    WEAK   DEFAULT   12 _ZN3fst16ImplToMutableFstINS_8internal13VectorFstImplINS_11VectorStateINS_6ArcTplINS_23CompactLatticeWeightTplINS_16LatticeWeightTplIfEEiEEEESaIS9_EEEEENS_10MutableFstIS9_EEE8SetFinalEiS8_
  2078: 00000000001000b0     1 FUNC    WEAK   DEFAULT   12 _ZN3fst13StateIteratorINS_10ComposeFstINS_6ArcTplINS_17TropicalWeightTplIfEEEENS_17DefaultCacheStoreIS5_EEEEED2Ev
  2079: 0000000000173ae0  2302 FUNC    WEAK   DEFAULT   12 _ZN3fst8internal13VectorFstImplINS_11VectorStateINS_6ArcTplINS_23CompactLatticeWeightTplINS_16LatticeWeightTplIfEEiEEEESaIS8_EEEEC2ERKNS_3FstIS8_EE
  2080: 0000000000240600    64 OBJECT  WEAK   DEFAULT   21 _ZTVN3fst18CacheStateIteratorINS_14DeterminizeFstINS_10ReverseArcINS_6ArcTplINS_16LatticeWeightTplIfEEEEEEEEEE
  2081: 0000000000184ac0   281 FUNC    WEAK   DEFAULT   12 _ZNK3fst9ImplToFstINS_8internal18ComposeFstImplBaseINS_6ArcTplINS_16LatticeWeightTplIfEEEENS_17DefaultCacheStoreIS6_EENS_10ComposeFstIS6_S8_EEEENS_3FstIS6_EEE5FinalEi
  2082: 000000000010c4c0   970 FUNC    WEAK   DEFAULT   12 _ZNSt7__cxx119to_stringEl
  2083: 000000000020a280    79 OBJECT  WEAK   DEFAULT   14 _ZTSN3fst13SortedMatcherINS_8ConstFstINS_6ArcTplINS_17TropicalWeightTplIfEEEEjEEEE
  2084: 0000000000196af0  2137 FUNC    WEAK   DEFAULT   12 _ZN3fst8internal18DeterminizeFsaImplINS_10ReverseArcINS_6ArcTplINS_16LatticeWeightTplIfEEEEEENS_20DefaultCommonDivisorIS5_EENS_24DefaultDeterminizeFilterIS7_EENS_28DefaultDeterminizeStateTableIS7_NS_18IntegerFilterStateIaEEEEE6ExpandEi
  2085: 0000000000110e60    89 FUNC    WEAK   DEFAULT   12 _ZSteqIcSt11char_traitsIcESaIcEEbRKNSt7__cxx1112basic_stringIT_T0_T1_EEPKS5_
  2086: 000000000013bba0  1042 FUNC    WEAK   DEFAULT   12 _ZN3fst16VectorCacheStoreINS_10CacheStateINS_6ArcTplINS_16LatticeWeightTplIfEEEENS_13PoolAllocatorIS5_EEEEE5ClearEv
  2087: 00000000001d4490   173 FUNC    WEAK   DEFAULT   12 _ZN3fst17ComposeFstMatcherINS_17DefaultCacheStoreINS_6ArcTplINS_17TropicalWeightTplIfEEEEEENS_18MatchComposeFilterINS_7MatcherINS_3FstIS5_EEEESB_EENS_24GenericComposeStateTableIS5_NS_18IntegerFilterStateIaEENS_24DefaultComposeStateTupleIiSF_EENS_21CompactHashStateTableISH_NS_11ComposeHashISH_EEEEEEED2Ev
  2088: 0000000000101910   113 FUNC    WEAK   DEFAULT   12 _ZN3fst17ComposeFstMatcherINS_17DefaultCacheStoreINS_6ArcTplINS_16LatticeWeightTplIfEEEEEENS_22LookAheadComposeFilterINS_21SequenceComposeFilterINS_16LookAheadMatcherINS_3FstIS5_EEEESC_EESC_SC_LNS_9MatchTypeE3EEENS_24GenericComposeStateTableIS5_NS_18IntegerFilterStateIaEENS_24DefaultComposeStateTupleIiSI_EENS_21CompactHashStateTableISK_NS_11ComposeHashISK_EEEEEEE8SetStateEi
  2089: 000000000020a040    38 OBJECT  WEAK   DEFAULT   14 _ZTSN3fst29MutableFastLogAccumulatorDataE
  2090: 0000000000100020     1 FUNC    WEAK   DEFAULT   12 _ZN3fst18MutableArcIteratorINS_9VectorFstINS_10ReverseArcINS_6ArcTplINS_23CompactLatticeWeightTplINS_16LatticeWeightTplIfEEiEEEEEENS_11VectorStateIS9_SaIS9_EEEEEED1Ev
  2091: 00000000001da6f0  2385 FUNC    WEAK   DEFAULT   12 _ZN3fst8internal18SingleShortestPathINS_6ArcTplINS_17TropicalWeightTplIfEEEENS_9AutoQueueIiEENS_12AnyArcFilterIS5_EEEEbRKNS_3FstIT_EEPSt6vectorINSB_6WeightESaISG_EERKNS_19ShortestPathOptionsISB_T0_T1_EEPNSB_7StateIdEPSF_ISt4pairISQ_mESaIST_EE
  2092: 000000000011b800    67 FUNC    WEAK   DEFAULT   12 _ZN3fst8internal14MemoryPoolImplILm72EED0Ev
  2093: 0000000000246c80    24 OBJECT  WEAK   DEFAULT   21 _ZTIN3fst8internal22DeterminizeFstImplBaseINS_10ReverseArcINS_6ArcTplINS_17TropicalWeightTplIfEEEEEEEE
  2094: 00000000001f8260   234 FUNC    WEAK   DEFAULT   12 _ZN3fst17ComposeFstMatcherINS_17DefaultCacheStoreINS_6ArcTplINS_17TropicalWeightTplIfEEEEEENS_17NullComposeFilterINS_7MatcherINS_3FstIS5_EEEESB_EENS_24GenericComposeStateTableIS5_NS_18TrivialFilterStateENS_24DefaultComposeStateTupleIiSE_EENS_21CompactHashStateTableISG_NS_11ComposeHashISG_EEEEEEE4FindEi
  2095: 000000000013dda0   224 FUNC    WEAK   DEFAULT   12 _ZN3fst8internal15MemoryArenaImplILm72EE8AllocateEm
  2096: 000000000020b000    93 OBJECT  WEAK   DEFAULT   14 _ZTSSt23_Sp_counted_ptr_inplaceIN3fst18LabelReachableDataIiEESaIvELN9__gnu_cxx12_Lock_policyE2EE
  2097: 0000000000100130     1 FUNC    WEAK   DEFAULT   12 _ZN3fst18MutableArcIteratorINS_9VectorFstINS_6ArcTplINS_23CompactLatticeWeightTplINS_16LatticeWeightTplIfEEiEEEENS_11VectorStateIS7_SaIS7_EEEEEED1Ev
  2098: 0000000000205500   305 OBJECT  WEAK   DEFAULT   14 _ZTSN3fst8internal14ComposeFstImplINS_17DefaultCacheStoreINS_6ArcTplINS_16LatticeWeightTplIfEEEEEENS_18MatchComposeFilterINS_7MatcherINS_3FstIS6_EEEESC_EENS_24GenericComposeStateTableIS6_NS_18IntegerFilterStateIaEENS_24DefaultComposeStateTupleIiSG_EENS_21CompactHashStateTableISI_NS_11ComposeHashISI_EEEEEEEE
  2099: 00000000001d4ce0    37 FUNC    WEAK   DEFAULT   12 _ZN3fst14DeterminizeFstINS_10ReverseArcINS_6ArcTplINS_17TropicalWeightTplIfEEEEEEED1Ev
  2100: 00000000000fe560    11 FUNC    WEAK   DEFAULT   12 _ZNK3fst9ImplToFstINS_8internal22DeterminizeFstImplBaseINS_10ReverseArcINS_6ArcTplINS_16LatticeWeightTplIfEEEEEEEENS_3FstIS8_EEE4TypeB5cxx11Ev
  2101: 000000000020b600   296 OBJECT  WEAK   DEFAULT   14 _ZTSN3fst17ComposeFstMatcherINS_17DefaultCacheStoreINS_6ArcTplINS_17TropicalWeightTplIfEEEEEENS_17NullComposeFilterINS_7MatcherINS_3FstIS5_EEEESB_EENS_24GenericComposeStateTableIS5_NS_18TrivialFilterStateENS_24DefaultComposeStateTupleIiSE_EENS_21CompactHashStateTableISG_NS_11ComposeHashISG_EEEEEEEE
  2102: 000000000011a570    99 FUNC    WEAK   DEFAULT   12 _ZNSt11_Deque_baseIPN3fst8internal8DfsStateINS0_3FstINS0_6ArcTplINS0_23CompactLatticeWeightTplINS0_16LatticeWeightTplIfEEiEEEEEEEESaISC_EED2Ev
  2103: 000000000013d4b0  1352 FUNC    WEAK   DEFAULT   12 _ZN3fst16VectorCacheStoreINS_10CacheStateINS_6ArcTplINS_16LatticeWeightTplIfEEEENS_13PoolAllocatorIS5_EEEEEC1ERKNS_12CacheOptionsE
  2104: 0000000000243df8   152 OBJECT  WEAK   DEFAULT   21 _ZTVN3fst14DeterminizeFstINS_10ReverseArcINS_6ArcTplINS_16LatticeWeightTplIfEEEEEEEE
  2105: 00000000000fd980    10 FUNC    WEAK   DEFAULT   12 _ZNK3fst9AutoQueueIiE5EmptyEv
  2106: 00000000001d15f0     6 FUNC    WEAK   DEFAULT   12 _ZNK3fst18CacheStateIteratorINS_14DeterminizeFstINS_10ReverseArcINS_6ArcTplINS_17TropicalWeightTplIfEEEEEEEEE5ValueEv
  2107: 0000000000243ee0    40 OBJECT  WEAK   DEFAULT   21 _ZTVN3fst10MemoryPoolINS_8internal8DfsStateINS_3FstINS_6ArcTplINS_23CompactLatticeWeightTplINS_16LatticeWeightTplIfEEiEEEEEEEEEE
  2108: 00000000002418c8    24 OBJECT  WEAK   DEFAULT   21 _ZTIN3fst10MemoryPoolINS_13PoolAllocatorIPNSt8__detail15_Hash_node_baseEE2TNILi16EEEEE
  2109: 0000000000161ba0   257 FUNC    WEAK   DEFAULT   12 _ZNK3fst23PushLabelsComposeFilterINS_24PushWeightsComposeFilterINS_22LookAheadComposeFilterINS_24AltSequenceComposeFilterINS_16LookAheadMatcherINS_3FstINS_6ArcTplINS_17TropicalWeightTplIfEEEEEEEESB_EESB_SB_LNS_9MatchTypeE3EEESB_SB_LSD_3EEESB_SB_LSD_3EE18PushLabelFilterArcEPS9_SH_RKNS_15PairFilterStateINS_18IntegerFilterStateIaEENS_17WeightFilterStateIS8_EEEE
  2110: 00000000001201a0   500 FUNC    WEAK   DEFAULT   12 _ZN3fst10SccVisitorINS_6ArcTplINS_17TropicalWeightTplIfEEEEE9InitStateEii
  2111: 00000000001ae550    80 FUNC    WEAK   DEFAULT   12 _ZN3fst8NGramFstINS_6ArcTplINS_17TropicalWeightTplIfEEEEED1Ev
  2112: 00000000001ea100   389 FUNC    WEAK   DEFAULT   12 _ZNSt6vectorIPN3fst10CacheStateINS0_10ReverseArcINS0_6ArcTplINS0_17TropicalWeightTplIfEEEEEENS0_13PoolAllocatorIS7_EEEESaISB_EE17_M_realloc_insertIJRKSB_EEEvN9__gnu_cxx17__normal_iteratorIPSB_SD_EEDpOT_
  2113: 000000000011b940    42 FUNC    WEAK   DEFAULT   12 _ZN3fst8internal15MemoryArenaImplILm80EED0Ev
  2114: 0000000000240088    24 OBJECT  WEAK   DEFAULT   21 _ZTIN3fst18MutableArcIteratorINS_9VectorFstINS_6ArcTplINS_23CompactLatticeWeightTplINS_16LatticeWeightTplIfEEiEEEENS_11VectorStateIS7_SaIS7_EEEEEEE
  2115: 00000000000fefb0     1 FUNC    WEAK   DEFAULT   12 _ZN3fst10MutableFstINS_6ArcTplINS_16LatticeWeightTplIfEEEEE13ReserveStatesEm
  2116: 0000000000141a30   463 FUNC    WEAK   DEFAULT   12 _ZNSt23_Sp_counted_ptr_inplaceIN3fst8internal14ComposeFstImplINS0_17DefaultCacheStoreINS0_6ArcTplINS0_17TropicalWeightTplIfEEEEEENS0_23PushLabelsComposeFilterINS0_24PushWeightsComposeFilterINS0_22LookAheadComposeFilterINS0_21SequenceComposeFilterINS0_16LookAheadMatcherINS0_3FstIS7_EEEESG_EESG_SG_LNS0_9MatchTypeE3EEESG_SG_LSI_3EEESG_SG_LSI_3EEENS0_24GenericComposeStateTableIS7_NS0_15PairFilterStateINSN_INS0_18IntegerFilterStateIaEENS0_17WeightFilterStateIS6_EEEENSO_IiEEEENS0_24DefaultComposeStateTupleIiSU_EENS0_21CompactHashStateTableISW_NS0_11ComposeHashISW_EEEEEEEESaIvELN9__gnu_cxx12_Lock_policyE2EE10_M_disposeEv
  2117: 00000000001aa160    72 FUNC    WEAK   DEFAULT   12 _ZN3fst29MutableFastLogAccumulatorDataD2Ev
  2118: 00000000001debf0   351 FUNC    WEAK   DEFAULT   12 _ZN3fst20MemoryPoolCollection4PoolINS_13PoolAllocatorINS_10ReverseArcINS_6ArcTplINS_17TropicalWeightTplIfEEEEEEE2TNILi64EEEEEPNS_10MemoryPoolIT_EEv
  2119: 0000000000197c30   234 FUNC    WEAK   DEFAULT   12 _ZN3fst17ComposeFstMatcherINS_17DefaultCacheStoreINS_6ArcTplINS_16LatticeWeightTplIfEEEEEENS_21SequenceComposeFilterINS_7MatcherINS_3FstIS5_EEEESB_EENS_24GenericComposeStateTableIS5_NS_18IntegerFilterStateIaEENS_24DefaultComposeStateTupleIiSF_EENS_21CompactHashStateTableISH_NS_11ComposeHashISH_EEEEEEE4FindEi
  2120: 000000000020d3a0   379 OBJECT  WEAK   DEFAULT   14 _ZTSSt23_Sp_counted_ptr_inplaceIN3fst8internal14ComposeFstImplINS0_17DefaultCacheStoreINS0_6ArcTplINS0_17TropicalWeightTplIfEEEEEENS0_20TrivialComposeFilterINS0_7MatcherINS0_3FstIS7_EEEESD_EENS0_24GenericComposeStateTableIS7_NS0_18TrivialFilterStateENS0_24DefaultComposeStateTupleIiSG_EENS0_21CompactHashStateTableISI_NS0_11ComposeHashISI_EEEEEEEESaIvELN9__gnu_cxx12_Lock_policyE2EE
  2121: 0000000000101cb0    10 FUNC    WEAK   DEFAULT   12 _ZN3fst18MutableArcIteratorINS_9VectorFstINS_10ReverseArcINS_6ArcTplINS_16LatticeWeightTplIfEEEEEENS_11VectorStateIS7_SaIS7_EEEEEED0Ev
  2122: 000000000010a620    89 FUNC    WEAK   DEFAULT   12 _ZN3fst8internal15MemoryArenaImplILm168EED2Ev
  2123: 0000000000136fc0   748 FUNC    WEAK   DEFAULT   12 _ZNK3fst17ComposeFstMatcherINS_17DefaultCacheStoreINS_6ArcTplINS_16LatticeWeightTplIfEEEEEENS_22LookAheadComposeFilterINS_21SequenceComposeFilterINS_16LookAheadMatcherINS_3FstIS5_EEEESC_EESC_SC_LNS_9MatchTypeE3EEENS_24GenericComposeStateTableIS5_NS_18IntegerFilterStateIaEENS_24DefaultComposeStateTupleIiSI_EENS_21CompactHashStateTableISK_NS_11ComposeHashISK_EEEEEEE4CopyEb
  2124: 0000000000206440   110 OBJECT  WEAK   DEFAULT   14 _ZTSN3fst11ExpandedFstINS_10ReverseArcINS_6ArcTplINS_23CompactLatticeWeightTplINS_16LatticeWeightTplIfEEiEEEEEEEE
  2125: 00000000002416d0    24 OBJECT  WEAK   DEFAULT   21 _ZTISt23_Sp_counted_ptr_inplaceIN3fst8internal13VectorFstImplINS0_11VectorStateINS0_10ReverseArcINS0_6ArcTplINS0_23CompactLatticeWeightTplINS0_16LatticeWeightTplIfEEiEEEEEESaISB_EEEEESaIvELN9__gnu_cxx12_Lock_policyE2EE
  2126: 0000000000134570   237 FUNC    WEAK   DEFAULT   12 _ZN3fst15MultiEpsMatcherINS_16LookAheadMatcherINS_3FstINS_6ArcTplINS_17TropicalWeightTplIfEEEEEEEEEC2ERKS7_NS_9MatchTypeEjPS8_b
  2127: 0000000000247508    48 OBJECT  WEAK   DEFAULT   21 _ZTVN3fst8internal9CacheImplINS_10ReverseArcINS_6ArcTplINS_17TropicalWeightTplIfEEEEEEEE
  2128: 0000000000241c28    24 OBJECT  WEAK   DEFAULT   21 _ZTIN3fst10MemoryPoolINS_13PoolAllocatorINS_10ReverseArcINS_6ArcTplINS_16LatticeWeightTplIfEEEEEEE2TNILi1EEEEE
  2129: 0000000000241378    24 OBJECT  WEAK   DEFAULT   21 _ZTISt23_Sp_counted_ptr_inplaceIN3fst8internal13VectorFstImplINS0_11VectorStateINS0_6ArcTplINS0_17TropicalWeightTplIfEEEESaIS7_EEEEESaIvELN9__gnu_cxx12_Lock_policyE2EE
  2130: 00000000001858c0   432 FUNC    WEAK   DEFAULT   12 _ZN3fst12GCCacheStoreINS_15FirstCacheStoreINS_16VectorCacheStoreINS_10CacheStateINS_6ArcTplINS_17TropicalWeightTplIfEEEENS_13PoolAllocatorIS7_EEEEEEEEE15GetMutableStateEi
  2131: 0000000000100540    27 FUNC    WEAK   DEFAULT   12 _ZNK3fst18MutableArcIteratorINS_9VectorFstINS_10ReverseArcINS_6ArcTplINS_16LatticeWeightTplIfEEEEEENS_11VectorStateIS7_SaIS7_EEEEEE5ValueEv
  2132: 0000000000240be8    24 OBJECT  WEAK   DEFAULT   21 _ZTIN3fst17ImplToExpandedFstINS_8internal13VectorFstImplINS_11VectorStateINS_6ArcTplINS_17TropicalWeightTplIfEEEESaIS7_EEEEENS_10MutableFstIS7_EEEE
  2133: 000000000010e060    37 FUNC    WEAK   DEFAULT   12 _ZN3fst9VectorFstINS_10ReverseArcINS_6ArcTplINS_23CompactLatticeWeightTplINS_16LatticeWeightTplIfEEiEEEEEENS_11VectorStateIS8_SaIS8_EEEED2Ev
  2134: 0000000000203fa0    20 OBJECT  WEAK   DEFAULT   14 _ZTSN3fst9AutoQueueIiEE
  2135: 000000000011c630    99 FUNC    WEAK   DEFAULT   12 _ZNSt11_Deque_baseIPN3fst8internal8DfsStateINS0_10MutableFstINS0_6ArcTplINS0_23CompactLatticeWeightTplINS0_16LatticeWeightTplIfEEiEEEEEEEESaISC_EED1Ev
  2136: 0000000000100300     8 FUNC    WEAK   DEFAULT   12 _ZN3fst18MutableArcIteratorINS_9VectorFstINS_6ArcTplINS_23CompactLatticeWeightTplINS_16LatticeWeightTplIfEEiEEEENS_11VectorStateIS7_SaIS7_EEEEEE4NextEv
  2137: 00000000001e5a50  1475 FUNC    WEAK   DEFAULT   12 _ZNK3fst3FstINS_10ReverseArcINS_6ArcTplINS_17TropicalWeightTplIfEEEEEEE9WriteFileERKNSt7__cxx1112basic_stringIcSt11char_traitsIcESaIcEEE
  2138: 00000000002413f0    24 OBJECT  WEAK   DEFAULT   21 _ZTIN3fst13SortedMatcherINS_3FstINS_6ArcTplINS_17TropicalWeightTplIfEEEEEEEE
  2139: 00000000000fdcf0     1 FUNC    WEAK   DEFAULT   12 _ZNSt23_Sp_counted_ptr_inplaceIN3fst8internal14ComposeFstImplINS0_17DefaultCacheStoreINS0_6ArcTplINS0_16LatticeWeightTplIfEEEEEENS0_18MatchComposeFilterINS0_7MatcherINS0_3FstIS7_EEEESD_EENS0_24GenericComposeStateTableIS7_NS0_18IntegerFilterStateIaEENS0_24DefaultComposeStateTupleIiSH_EENS0_21CompactHashStateTableISJ_NS0_11ComposeHashISJ_EEEEEEEESaIvELN9__gnu_cxx12_Lock_policyE2EED1Ev
  2140: 00000000001d2470   146 FUNC    WEAK   DEFAULT   12 _ZNK3fst8internal14ComposeFstImplINS_17DefaultCacheStoreINS_6ArcTplINS_17TropicalWeightTplIfEEEEEENS_20NoMatchComposeFilterINS_7MatcherINS_3FstIS6_EEEESC_EENS_24GenericComposeStateTableIS6_NS_18TrivialFilterStateENS_24DefaultComposeStateTupleIiSF_EENS_21CompactHashStateTableISH_NS_11ComposeHashISH_EEEEEEE10PropertiesEm
  2141: 0000000000105de0   211 FUNC    WEAK   DEFAULT   12 _ZNK3fst9ImplToFstINS_8internal22DeterminizeFstImplBaseINS_10ReverseArcINS_6ArcTplINS_16LatticeWeightTplIfEEEEEEEENS_3FstIS8_EEE7NumArcsEi
  2142: 000000000015e4b0   312 FUNC    WEAK   DEFAULT   12 _ZN3fst8internal7FstImplINS_6ArcTplINS_16LatticeWeightTplIfEEEEE14WriteFstHeaderERKNS_3FstIS5_EERSoRKNS_15FstWriteOptionsEiRKNSt7__cxx1112basic_stringIcSt11char_traitsIcESaIcEEEmPNS_9FstHeaderE
  2143: 00000000001dda00   197 FUNC    WEAK   DEFAULT   12 _ZNSt6vectorIPN3fst8internal21DeterminizeStateTupleINS0_10ReverseArcINS0_6ArcTplINS0_17TropicalWeightTplIfEEEEEENS0_18IntegerFilterStateIaEEEESaISC_EE7reserveEm
  2144: 00000000000fd9b0    10 FUNC    WEAK   DEFAULT   12 _ZN3fst9AutoQueueIiE6UpdateEi
  2145: 0000000000241ac0    24 OBJECT  WEAK   DEFAULT   21 _ZTIN3fst8internal15MemoryArenaImplILm648EEE
  2146: 000000000018ff70   645 FUNC    WEAK   DEFAULT   12 _ZN3fst8internal14ComposeFstImplINS_17DefaultCacheStoreINS_6ArcTplINS_16LatticeWeightTplIfEEEEEENS_18MatchComposeFilterINS_7MatcherINS_3FstIS6_EEEESC_EENS_24GenericComposeStateTableIS6_NS_18IntegerFilterStateIaEENS_24DefaultComposeStateTupleIiSG_EENS_21CompactHashStateTableISI_NS_11ComposeHashISI_EEEEEEE6ExpandEi
  2147: 00000000002087c0    39 OBJECT  WEAK   DEFAULT   14 _ZTSN3fst8internal14MemoryPoolImplILm80EEE
  2148: 00000000001046a0    10 FUNC    WEAK   DEFAULT   12 _ZNSt23_Sp_counted_ptr_inplaceIN3fst8internal14ComposeFstImplINS0_17DefaultCacheStoreINS0_6ArcTplINS0_16LatticeWeightTplIfEEEEEENS0_24AltSequenceComposeFilterINS0_7MatcherINS0_3FstIS7_EEEESD_EENS0_24GenericComposeStateTableIS7_NS0_18IntegerFilterStateIaEENS0_24DefaultComposeStateTupleIiSH_EENS0_21CompactHashStateTableISJ_NS0_11ComposeHashISJ_EEEEEEEESaIvELN9__gnu_cxx12_Lock_policyE2EE10_M_destroyEv
  2149: 0000000000119c00   135 FUNC    WEAK   DEFAULT   12 _ZNSt10_HashtableIPKN3fst23LatticeStringRepositoryIiE5EntryES5_SaIS5_ENSt8__detail9_IdentityENS2_10EntryEqualENS2_8EntryKeyENS7_18_Mod_range_hashingENS7_20_Default_ranged_hashENS7_20_Prime_rehash_policyENS7_17_Hashtable_traitsILb1ELb1ELb1EEEED1Ev
  2150: 000000000010dd60    37 FUNC    WEAK   DEFAULT   12 _ZN3fst9ArcMapFstINS_6ArcTplINS_17TropicalWeightTplIfEEEES4_NS_28RemoveSomeInputSymbolsMapperIS4_iEEED2Ev
  2151: 00000000000fee00    11 FUNC    WEAK   DEFAULT   12 _ZNK3fst9ImplToFstINS_8internal13ArcMapFstImplINS_6ArcTplINS_17TropicalWeightTplIfEEEENS3_INS_16LatticeWeightTplIfEEEENS_18StdToLatticeMapperIfEEEENS_3FstIS9_EEE12InputSymbolsEv
  2152: 00000000001012e0   283 FUNC    WEAK   DEFAULT   12 _ZNK3fst17ComposeFstMatcherINS_17DefaultCacheStoreINS_6ArcTplINS_17TropicalWeightTplIfEEEEEENS_21SequenceComposeFilterINS_7MatcherINS_3FstIS5_EEEESB_EENS_24GenericComposeStateTableIS5_NS_18IntegerFilterStateIaEENS_24DefaultComposeStateTupleIiSF_EENS_21CompactHashStateTableISH_NS_11ComposeHashISH_EEEEEEE4TypeEb
  2153: 00000000001a7dd0     1 FUNC    WEAK   DEFAULT   12 _ZNSt23_Sp_counted_ptr_inplaceIN3fst18LabelReachableDataIiEESaIvELN9__gnu_cxx12_Lock_policyE2EED1Ev
  2154: 00000000000fef30    62 FUNC    WEAK   DEFAULT   12 _ZNK3fst9VectorFstINS_6ArcTplINS_16LatticeWeightTplIfEEEENS_11VectorStateIS4_SaIS4_EEEE17InitStateIteratorEPNS_17StateIteratorDataIS4_EE
  2155: 0000000000106680  1245 FUNC    WEAK   DEFAULT   12 _ZN3fst13SortedMatcherINS_3FstINS_6ArcTplINS_16LatticeWeightTplIfEEEEEEE4FindEi
  2156: 0000000000116af0   508 FUNC    WEAK   DEFAULT   12 _ZNSt3mapINSt7__cxx1112basic_stringIcSt11char_traitsIcESaIcEEEN4json4JSONESt4lessIS5_ESaISt4pairIKS5_S7_EEEixERSB_
  2157: 0000000000120b00   326 FUNC    WEAK   DEFAULT   12 _ZNSt11_Deque_baseIPN3fst8internal8DfsStateINS0_10MutableFstINS0_6ArcTplINS0_23CompactLatticeWeightTplINS0_16LatticeWeightTplIfEEiEEEEEEEESaISC_EE17_M_initialize_mapEm
  2158: 000000000010b440   117 FUNC    WEAK   DEFAULT   12 _ZN3fst10MemoryPoolINS_13PoolAllocatorINS_6ArcTplINS_16LatticeWeightTplIfEEEEE2TNILi4EEEED1Ev
  2159: 00000000001d3ba0   168 FUNC    WEAK   DEFAULT   12 _ZNK3fst8internal14ComposeFstImplINS_17DefaultCacheStoreINS_6ArcTplINS_17TropicalWeightTplIfEEEEEENS_20NoMatchComposeFilterINS_7MatcherINS_3FstIS6_EEEESC_EENS_24GenericComposeStateTableIS6_NS_18TrivialFilterStateENS_24DefaultComposeStateTupleIiSF_EENS_21CompactHashStateTableISH_NS_11ComposeHashISH_EEEEEEE10PropertiesEv
  2160: 0000000000241570    24 OBJECT  WEAK   DEFAULT   21 _ZTIN3fst10MemoryPoolINS_11ArcIteratorINS_3FstINS_6ArcTplINS_16LatticeWeightTplIfEEEEEEEEEE
  2161: 00000000000fe5e0    48 FUNC    WEAK   DEFAULT   12 _ZNK3fst9ImplToFstINS_8internal13VectorFstImplINS_11VectorStateINS_10ReverseArcINS_6ArcTplINS_16LatticeWeightTplIfEEEEEESaIS9_EEEEENS_10MutableFstIS9_EEE7NumArcsEi
  2162: 0000000000240e20    24 OBJECT  WEAK   DEFAULT   21 _ZTIN3fst9ImplToFstINS_8internal13ArcMapFstImplINS_6ArcTplINS_17TropicalWeightTplIfEEEES6_NS_28RemoveSomeInputSymbolsMapperIS6_iEEEENS_3FstIS6_EEEE
  2163: 0000000000197350   239 FUNC    WEAK   DEFAULT   12 _ZNK3fst9ImplToFstINS_8internal22DeterminizeFstImplBaseINS_10ReverseArcINS_6ArcTplINS_16LatticeWeightTplIfEEEEEEEENS_3FstIS8_EEE5StartEv
  2164: 00000000001e3990  1833 FUNC    WEAK   DEFAULT   12 _ZN3fst8internal14ComposeFstImplINS_17DefaultCacheStoreINS_6ArcTplINS_17TropicalWeightTplIfEEEEEENS_20TrivialComposeFilterINS_7MatcherINS_3FstIS6_EEEESC_EENS_24GenericComposeStateTableIS6_NS_18TrivialFilterStateENS_24DefaultComposeStateTupleIiSF_EENS_21CompactHashStateTableISH_NS_11ComposeHashISH_EEEEEEEC2ISC_SC_EERKSB_SQ_RKNS_21ComposeFstImplOptionsIT_T0_SD_SM_S7_EE
  2165: 0000000000109ed0   173 FUNC    WEAK   DEFAULT   12 _ZN3fst17ComposeFstMatcherINS_17DefaultCacheStoreINS_6ArcTplINS_16LatticeWeightTplIfEEEEEENS_22LookAheadComposeFilterINS_21SequenceComposeFilterINS_16LookAheadMatcherINS_3FstIS5_EEEESC_EESC_SC_LNS_9MatchTypeE3EEENS_24GenericComposeStateTableIS5_NS_18IntegerFilterStateIaEENS_24DefaultComposeStateTupleIiSI_EENS_21CompactHashStateTableISK_NS_11ComposeHashISK_EEEEEEED1Ev
  2166: 0000000000240f10    24 OBJECT  WEAK   DEFAULT   21 _ZTIN3fst10ComposeFstINS_6ArcTplINS_17TropicalWeightTplIfEEEENS_17DefaultCacheStoreIS4_EEEE
  2167: 0000000000104620    62 FUNC    WEAK   DEFAULT   12 _ZN3fst13SortedMatcherINS_3FstINS_6ArcTplINS_16LatticeWeightTplIfEEEEEEE8PriorityEi
  2168: 00000000001214d0   896 FUNC    WEAK   DEFAULT   12 _ZNK3fst8internal12PruneCompareIiNS_23CompactLatticeWeightTplINS_16LatticeWeightTplIfEEiEEEclEii
  2169: 00000000000ff0d0     1 FUNC    WEAK   DEFAULT   12 _ZN3fst10MutableFstINS_6ArcTplINS_23CompactLatticeWeightTplINS_16LatticeWeightTplIfEEiEEEEE13ReserveStatesEm
  2170: 00000000001f3c70   988 FUNC    WEAK   DEFAULT   12 _ZN3fst8internal14ComposeFstImplINS_17DefaultCacheStoreINS_6ArcTplINS_17TropicalWeightTplIfEEEEEENS_24AltSequenceComposeFilterINS_7MatcherINS_3FstIS6_EEEESC_EENS_24GenericComposeStateTableIS6_NS_18IntegerFilterStateIaEENS_24DefaultComposeStateTupleIiSG_EENS_21CompactHashStateTableISI_NS_11ComposeHashISI_EEEEEEE8MatchArcISC_EEviPT_RKS6_b
  2171: 0000000000134fc0   144 FUNC    WEAK   DEFAULT   12 _ZN3fst16ImplToMutableFstINS_8internal13VectorFstImplINS_11VectorStateINS_6ArcTplINS_16LatticeWeightTplIfEEEESaIS7_EEEEENS_10MutableFstIS7_EEE11MutateCheckEv
  2172: 0000000000101250    70 FUNC    WEAK   DEFAULT   12 _ZNK3fst17ComposeFstMatcherINS_17DefaultCacheStoreINS_6ArcTplINS_16LatticeWeightTplIfEEEEEENS_20TrivialComposeFilterINS_7MatcherINS_3FstIS5_EEEESB_EENS_24GenericComposeStateTableIS5_NS_18TrivialFilterStateENS_24DefaultComposeStateTupleIiSE_EENS_21CompactHashStateTableISG_NS_11ComposeHashISG_EEEEEEE4DoneEv
  2173: 0000000000107eb0   281 FUNC    WEAK   DEFAULT   12 _ZNK3fst10ComposeFstINS_6ArcTplINS_17TropicalWeightTplIfEEEENS_17DefaultCacheStoreIS4_EEE15InitArcIteratorEiPNS_15ArcIteratorDataIS4_EE
  2174: 000000000010bfc0   117 FUNC    WEAK   DEFAULT   12 _ZN3fst10MemoryPoolINS_13PoolAllocatorIPNSt8__detail15_Hash_node_baseEE2TNILi8EEEED2Ev
  2175: 000000000012b290   250 FUNC    WEAK   DEFAULT   12 _ZN3fst8internal7FstImplINS_6ArcTplINS_16LatticeWeightTplIfEEEEE15SetInputSymbolsEPKNS_11SymbolTableE
  2176: 000000000010d230   286 FUNC    WEAK   DEFAULT   12 _ZNK3fst3FstINS_10ReverseArcINS_6ArcTplINS_23CompactLatticeWeightTplINS_16LatticeWeightTplIfEEiEEEEEEE5WriteERSoRKNS_15FstWriteOptionsE
  2177: 00000000001131f0    29 FUNC    WEAK   DEFAULT   12 _ZN3fst23CompactLatticeWeightTplINS_16LatticeWeightTplIfEEiE3OneEv
  2178: 000000000017c260   463 FUNC    WEAK   DEFAULT   12 _ZN3fst16ImplToMutableFstINS_8internal13VectorFstImplINS_11VectorStateINS_6ArcTplINS_23CompactLatticeWeightTplINS_16LatticeWeightTplIfEEiEEEESaIS9_EEEEENS_10MutableFstIS9_EEE6AddArcEiOS9_
  2179: 0000000000240500   128 OBJECT  WEAK   DEFAULT   21 _ZTVN3fst17ComposeFstMatcherINS_17DefaultCacheStoreINS_6ArcTplINS_16LatticeWeightTplIfEEEEEENS_21SequenceComposeFilterINS_7MatcherINS_3FstIS5_EEEESB_EENS_24GenericComposeStateTableIS5_NS_18IntegerFilterStateIaEENS_24DefaultComposeStateTupleIiSF_EENS_21CompactHashStateTableISH_NS_11ComposeHashISH_EEEEEEEE
  2180: 0000000000241118    24 OBJECT  WEAK   DEFAULT   21 _ZTIN3fst9VectorFstINS_10ReverseArcINS_6ArcTplINS_16LatticeWeightTplIfEEEEEENS_11VectorStateIS6_SaIS6_EEEEE
  2181: 00000000001e8f20   439 FUNC    WEAK   DEFAULT   12 _ZN3fst10MutableFstINS_10ReverseArcINS_6ArcTplINS_17TropicalWeightTplIfEEEEEEE6AddArcEiOS6_
  2182: 00000000001091d0    75 FUNC    WEAK   DEFAULT   12 _ZNSt23_Sp_counted_ptr_inplaceIN3fst8internal13VectorFstImplINS0_11VectorStateINS0_6ArcTplINS0_17TropicalWeightTplIfEEEESaIS7_EEEEESaIvELN9__gnu_cxx12_Lock_policyE2EE14_M_get_deleterERKSt9type_info
  2183: 00000000001000a0     1 FUNC    WEAK   DEFAULT   12 _ZN3fst18CacheStateIteratorINS_10ComposeFstINS_6ArcTplINS_17TropicalWeightTplIfEEEENS_17DefaultCacheStoreIS5_EEEEED2Ev
  2184: 000000000010ddf0    46 FUNC    WEAK   DEFAULT   12 _ZN3fst9VectorFstINS_6ArcTplINS_17TropicalWeightTplIfEEEENS_11VectorStateIS4_SaIS4_EEEED0Ev
  2185: 0000000000244fe8    40 OBJECT  WEAK   DEFAULT   21 _ZTVN3fst8internal14MemoryPoolImplILm32EEE
  2186: 0000000000101de0   186 FUNC    WEAK   DEFAULT   12 _ZNK3fst8internal14ComposeFstImplINS_17DefaultCacheStoreINS_6ArcTplINS_17TropicalWeightTplIfEEEEEENS_23PushLabelsComposeFilterINS_24PushWeightsComposeFilterINS_22LookAheadComposeFilterINS_21SequenceComposeFilterINS_16LookAheadMatcherINS_3FstIS6_EEEESF_EESF_SF_LNS_9MatchTypeE3EEESF_SF_LSH_3EEESF_SF_LSH_3EEENS_24GenericComposeStateTableIS6_NS_15PairFilterStateINSM_INS_18IntegerFilterStateIaEENS_17WeightFilterStateIS5_EEEENSN_IiEEEENS_24DefaultComposeStateTupleIiST_EENS_21CompactHashStateTableISV_NS_11ComposeHashISV_EEEEEEE10PropertiesEm
  2187: 00000000001bd2d0  1905 FUNC    WEAK   DEFAULT   12 _ZN3fst23LabelLookAheadRelabelerINS_6ArcTplINS_17TropicalWeightTplIfEEEENS_18LabelReachableDataIiEEEC1INS_8internal9AddOnImplINS_8ConstFstIS4_jEENS_9AddOnPairIS6_S6_EEEEEEPSt10shared_ptrIT_E
  2188: 0000000000189bb0   224 FUNC    WEAK   DEFAULT   12 _ZN3fst8internal15MemoryArenaImplILm328EE8AllocateEm
  2189: 0000000000241600    24 OBJECT  WEAK   DEFAULT   21 _ZTISt23_Sp_counted_ptr_inplaceIN3fst8internal13VectorFstImplINS0_11VectorStateINS0_10ReverseArcINS0_6ArcTplINS0_16LatticeWeightTplIfEEEEEESaIS9_EEEEESaIvELN9__gnu_cxx12_Lock_policyE2EE
  2190: 00000000000fdcb0     1 FUNC    WEAK   DEFAULT   12 _ZNSt23_Sp_counted_ptr_inplaceIN3fst8internal14ComposeFstImplINS0_17DefaultCacheStoreINS0_6ArcTplINS0_17TropicalWeightTplIfEEEEEENS0_23PushLabelsComposeFilterINS0_24PushWeightsComposeFilterINS0_22LookAheadComposeFilterINS0_24AltSequenceComposeFilterINS0_16LookAheadMatcherINS0_3FstIS7_EEEESG_EESG_SG_LNS0_9MatchTypeE3EEESG_SG_LSI_3EEESG_SG_LSI_3EEENS0_24GenericComposeStateTableIS7_NS0_15PairFilterStateINSN_INS0_18IntegerFilterStateIaEENS0_17WeightFilterStateIS6_EEEENSO_IiEEEENS0_24DefaultComposeStateTupleIiSU_EENS0_21CompactHashStateTableISW_NS0_11ComposeHashISW_EEEEEEEESaIvELN9__gnu_cxx12_Lock_policyE2EED1Ev
  2191: 0000000000133070   125 FUNC    WEAK   DEFAULT   12 _ZN3fst17ComposeFstMatcherINS_17DefaultCacheStoreINS_6ArcTplINS_16LatticeWeightTplIfEEEEEENS_18MatchComposeFilterINS_7MatcherINS_3FstIS5_EEEESB_EENS_24GenericComposeStateTableIS5_NS_18IntegerFilterStateIaEENS_24DefaultComposeStateTupleIiSF_EENS_21CompactHashStateTableISH_NS_11ComposeHashISH_EEEEEEED1Ev
  2192: 00000000001e6740   666 FUNC    WEAK   DEFAULT   12 _ZN3fst10SccVisitorINS_10ReverseArcINS_6ArcTplINS_17TropicalWeightTplIfEEEEEEE9InitStateEii
  2193: 00000000001de6e0   227 FUNC    WEAK   DEFAULT   12 _ZNSt10unique_ptrIN3fst28DefaultDeterminizeStateTableINS0_10ReverseArcINS0_6ArcTplINS0_17TropicalWeightTplIfEEEEEENS0_18IntegerFilterStateIaEEEESt14default_deleteISA_EED2Ev
  2194: 000000000017d710   274 FUNC    WEAK   DEFAULT   12 _ZN3fst16ImplToMutableFstINS_8internal13VectorFstImplINS_11VectorStateINS_6ArcTplINS_17TropicalWeightTplIfEEEESaIS7_EEEEENS_10MutableFstIS7_EEE10DeleteArcsEi
  2195: 00000000001d5f60  1059 FUNC    WEAK   DEFAULT   12 _ZN3fst18UTF8StringToLabelsIiEEbRKNSt7__cxx1112basic_stringIcSt11char_traitsIcESaIcEEEPSt6vectorIT_SaISA_EE
  2196: 00000000000fdb40     6 FUNC    WEAK   DEFAULT   12 _ZNK3fst8internal15MemoryArenaImplILm1032EE4SizeEv
  2197: 00000000001cd780  1744 FUNC    GLOBAL DEFAULT   12 _ZN9Processor12ShortestPathB5cxx11ERKN3fst9VectorFstINS0_6ArcTplINS0_17TropicalWeightTplIfEEEENS0_11VectorStateIS5_SaIS5_EEEEE
  2198: 00000000002400b8    24 OBJECT  WEAK   DEFAULT   21 _ZTIN3fst10MemoryPoolINS_8internal8DfsStateINS_3FstINS_10ReverseArcINS_6ArcTplINS_16LatticeWeightTplIfEEEEEEEEEEEE
  2199: 00000000000fdc30     6 FUNC    WEAK   DEFAULT   12 _ZNK3fst8internal14MemoryPoolImplILm8EE4SizeEv
  2200: 0000000000242780   312 OBJECT  WEAK   DEFAULT   21 _ZTVN3fst9VectorFstINS_6ArcTplINS_23CompactLatticeWeightTplINS_16LatticeWeightTplIfEEiEEEENS_11VectorStateIS6_SaIS6_EEEEE
  2201: 0000000000108c80   208 FUNC    WEAK   DEFAULT   12 _ZNK3fst8internal14ComposeFstImplINS_17DefaultCacheStoreINS_6ArcTplINS_17TropicalWeightTplIfEEEEEENS_23PushLabelsComposeFilterINS_24PushWeightsComposeFilterINS_22LookAheadComposeFilterINS_21SequenceComposeFilterINS_16LookAheadMatcherINS_3FstIS6_EEEESF_EESF_SF_LNS_9MatchTypeE3EEESF_SF_LSH_3EEESF_SF_LSH_3EEENS_24GenericComposeStateTableIS6_NS_15PairFilterStateINSM_INS_18IntegerFilterStateIaEENS_17WeightFilterStateIS5_EEEENSN_IiEEEENS_24DefaultComposeStateTupleIiST_EENS_21CompactHashStateTableISV_NS_11ComposeHashISV_EEEEEEE10PropertiesEv
  2202: 00000000001296a0   537 FUNC    WEAK   DEFAULT   12 _ZNSt6vectorIN3fst23CompactLatticeWeightTplINS0_16LatticeWeightTplIfEEiEESaIS4_EE17_M_realloc_insertIJS4_EEEvN9__gnu_cxx17__normal_iteratorIPS4_S6_EEDpOT_
  2203: 000000000010c2c0   117 FUNC    WEAK   DEFAULT   12 _ZN3fst8internal14MemoryPoolImplILm8EED2Ev
  2204: 00000000001b40c0   457 FUNC    WEAK   DEFAULT   12 _ZNSt10unique_ptrIN3fst14LabelReachableINS0_6ArcTplINS0_17TropicalWeightTplIfEEEENS0_18FastLogAccumulatorIS5_EENS0_18LabelReachableDataIiEEEESt14default_deleteISA_EED2Ev
  2205: 0000000000202880    20 OBJECT  WEAK   DEFAULT   14 _ZTSN3fst11SymbolTableE
  2206: 0000000000140f00   402 FUNC    WEAK   DEFAULT   12 _ZN3fst8internal14ComposeFstImplINS_17DefaultCacheStoreINS_6ArcTplINS_17TropicalWeightTplIfEEEEEENS_23PushLabelsComposeFilterINS_24PushWeightsComposeFilterINS_22LookAheadComposeFilterINS_24AltSequenceComposeFilterINS_16LookAheadMatcherINS_3FstIS6_EEEESF_EESF_SF_LNS_9MatchTypeE3EEESF_SF_LSH_3EEESF_SF_LSH_3EEENS_24GenericComposeStateTableIS6_NS_15PairFilterStateINSM_INS_18IntegerFilterStateIaEENS_17WeightFilterStateIS5_EEEENSN_IiEEEENS_24DefaultComposeStateTupleIiST_EENS_21CompactHashStateTableISV_NS_11ComposeHashISV_EEEEEEED2Ev
  2207: 0000000000104570    62 FUNC    WEAK   DEFAULT   12 _ZN3fst13SortedMatcherINS_3FstINS_6ArcTplINS_17TropicalWeightTplIfEEEEEEE8PriorityEi
  2208: 00000000002428b8    48 OBJECT  WEAK   DEFAULT   21 _ZTVN3fst8internal7FstImplINS_6ArcTplINS_16LatticeWeightTplIfEEEEEE
  2209: 000000000013c610   160 FUNC    WEAK   DEFAULT   12 _ZN3fst8internal14ComposeFstImplINS_17DefaultCacheStoreINS_6ArcTplINS_16LatticeWeightTplIfEEEEEENS_20NoMatchComposeFilterINS_7MatcherINS_3FstIS6_EEEESC_EENS_24GenericComposeStateTableIS6_NS_18TrivialFilterStateENS_24DefaultComposeStateTupleIiSF_EENS_21CompactHashStateTableISH_NS_11ComposeHashISH_EEEEEEED2Ev
  2210: 0000000000240ee0    24 OBJECT  WEAK   DEFAULT   21 _ZTIN3fst8internal18ComposeFstImplBaseINS_6ArcTplINS_17TropicalWeightTplIfEEEENS_17DefaultCacheStoreIS5_EENS_10ComposeFstIS5_S7_EEEE
  2211: 000000000010eca0   234 FUNC    WEAK   DEFAULT   12 _ZN3fst8internal7FstImplINS_6ArcTplINS_16LatticeWeightTplIfEEEEED0Ev
  2212: 0000000000149840   371 FUNC    WEAK   DEFAULT   12 _ZN3fst8internal14ComposeFstImplINS_17DefaultCacheStoreINS_6ArcTplINS_17TropicalWeightTplIfEEEEEENS_23PushLabelsComposeFilterINS_24PushWeightsComposeFilterINS_22LookAheadComposeFilterINS_21SequenceComposeFilterINS_16LookAheadMatcherINS_3FstIS6_EEEESF_EESF_SF_LNS_9MatchTypeE3EEESF_SF_LSH_3EEESF_SF_LSH_3EEENS_24GenericComposeStateTableIS6_NS_15PairFilterStateINSM_INS_18IntegerFilterStateIaEENS_17WeightFilterStateIS5_EEEENSN_IiEEEENS_24DefaultComposeStateTupleIiST_EENS_21CompactHashStateTableISV_NS_11ComposeHashISV_EEEEEEE12ComputeFinalEi
  2213: 000000000018a8d0   824 FUNC    WEAK   DEFAULT   12 _ZN3fst8internal14ComposeFstImplINS_17DefaultCacheStoreINS_6ArcTplINS_16LatticeWeightTplIfEEEEEENS_21SequenceComposeFilterINS_7MatcherINS_3FstIS6_EEEESC_EENS_24GenericComposeStateTableIS6_NS_18IntegerFilterStateIaEENS_24DefaultComposeStateTupleIiSG_EENS_21CompactHashStateTableISI_NS_11ComposeHashISI_EEEEEEE8MatchArcISC_EEviPT_RKS6_b
  2214: 000000000017dce0   338 FUNC    WEAK   DEFAULT   12 _ZN3fst16ImplToMutableFstINS_8internal13VectorFstImplINS_11VectorStateINS_6ArcTplINS_17TropicalWeightTplIfEEEESaIS7_EEEEENS_10MutableFstIS7_EEE13ReserveStatesEm
  2215: 0000000000198f70   234 FUNC    WEAK   DEFAULT   12 _ZN3fst17ComposeFstMatcherINS_17DefaultCacheStoreINS_6ArcTplINS_17TropicalWeightTplIfEEEEEENS_21SequenceComposeFilterINS_7MatcherINS_3FstIS5_EEEESB_EENS_24GenericComposeStateTableIS5_NS_18IntegerFilterStateIaEENS_24DefaultComposeStateTupleIiSF_EENS_21CompactHashStateTableISH_NS_11ComposeHashISH_EEEEEEE4FindEi
  2216: 000000000010b4c0   117 FUNC    WEAK   DEFAULT   12 _ZN3fst10MemoryPoolINS_13PoolAllocatorINS_10ReverseArcINS_6ArcTplINS_16LatticeWeightTplIfEEEEEEE2TNILi16EEEED2Ev
  2217: 0000000000100050     1 FUNC    WEAK   DEFAULT   12 _ZN3fst18CacheStateIteratorINS_14DeterminizeFstINS_10ReverseArcINS_6ArcTplINS_16LatticeWeightTplIfEEEEEEEEED2Ev
  2218: 0000000000164930   389 FUNC    WEAK   DEFAULT   12 _ZNSt6vectorIPN3fst11VectorStateINS0_10ReverseArcINS0_6ArcTplINS0_23CompactLatticeWeightTplINS0_16LatticeWeightTplIfEEiEEEEEESaIS9_EEESaISC_EE17_M_realloc_insertIJRKSC_EEEvN9__gnu_cxx17__normal_iteratorIPSC_SE_EEDpOT_
  2219: 0000000000115d90   493 FUNC    WEAK   DEFAULT   12 _ZNSt6vectorIiSaIiEE17_M_default_appendEm
  2220: 00000000001e14a0   160 FUNC    WEAK   DEFAULT   12 _ZN3fst8internal14ComposeFstImplINS_17DefaultCacheStoreINS_6ArcTplINS_17TropicalWeightTplIfEEEEEENS_24AltSequenceComposeFilterINS_7MatcherINS_3FstIS6_EEEESC_EENS_24GenericComposeStateTableIS6_NS_18IntegerFilterStateIaEENS_24DefaultComposeStateTupleIiSG_EENS_21CompactHashStateTableISI_NS_11ComposeHashISI_EEEEEEED2Ev
  2221: 0000000000241bb0    24 OBJECT  WEAK   DEFAULT   21 _ZTIN3fst10MemoryPoolINS_13PoolAllocatorINS_6ArcTplINS_17TropicalWeightTplIfEEEEE2TNILi4EEEEE
  2222: 00000000000fd9a0    10 FUNC    WEAK   DEFAULT   12 _ZN3fst9AutoQueueIiE7DequeueEv
  2223: 000000000011bb00    67 FUNC    WEAK   DEFAULT   12 _ZN3fst10MemoryPoolINS_8internal8DfsStateINS_3FstINS_6ArcTplINS_23CompactLatticeWeightTplINS_16LatticeWeightTplIfEEiEEEEEEEEED0Ev
  2224: 000000000010bcc0   117 FUNC    WEAK   DEFAULT   12 _ZN3fst8internal14MemoryPoolImplILm32EED2Ev
  2225: 00000000000fdd00     1 FUNC    WEAK   DEFAULT   12 _ZNSt23_Sp_counted_ptr_inplaceIN3fst8internal14ComposeFstImplINS0_17DefaultCacheStoreINS0_6ArcTplINS0_16LatticeWeightTplIfEEEEEENS0_24AltSequenceComposeFilterINS0_7MatcherINS0_3FstIS7_EEEESD_EENS0_24GenericComposeStateTableIS7_NS0_18IntegerFilterStateIaEENS0_24DefaultComposeStateTupleIiSH_EENS0_21CompactHashStateTableISJ_NS0_11ComposeHashISJ_EEEEEEEESaIvELN9__gnu_cxx12_Lock_policyE2EED1Ev
  2226: 000000000010c340   117 FUNC    WEAK   DEFAULT   12 _ZN3fst10MemoryPoolINS_8internal8DfsStateINS_3FstINS_6ArcTplINS_17TropicalWeightTplIfEEEEEEEEED2Ev
  2227: 0000000000205280   308 OBJECT  WEAK   DEFAULT   14 _ZTSN3fst8internal14ComposeFstImplINS_17DefaultCacheStoreINS_6ArcTplINS_16LatticeWeightTplIfEEEEEENS_21SequenceComposeFilterINS_7MatcherINS_3FstIS6_EEEESC_EENS_24GenericComposeStateTableIS6_NS_18IntegerFilterStateIaEENS_24DefaultComposeStateTupleIiSG_EENS_21CompactHashStateTableISI_NS_11ComposeHashISI_EEEEEEEE
  2228: 000000000010af40   117 FUNC    WEAK   DEFAULT   12 _ZN3fst8internal14MemoryPoolImplILm320EED2Ev
  2229: 0000000000135620   322 FUNC    WEAK   DEFAULT   12 _ZN3fst16ImplToMutableFstINS_8internal13VectorFstImplINS_11VectorStateINS_6ArcTplINS_16LatticeWeightTplIfEEEESaIS7_EEEEENS_10MutableFstIS7_EEE10DeleteArcsEim
  2230: 00000000001499c0   490 FUNC    WEAK   DEFAULT   12 _ZN3fst23PushLabelsComposeFilterINS_24PushWeightsComposeFilterINS_22LookAheadComposeFilterINS_24AltSequenceComposeFilterINS_16LookAheadMatcherINS_3FstINS_6ArcTplINS_17TropicalWeightTplIfEEEEEEEESB_EESB_SB_LNS_9MatchTypeE3EEESB_SB_LSD_3EEESB_SB_LSD_3EE8SetStateEiiRKNS_15PairFilterStateINSH_INS_18IntegerFilterStateIaEENS_17WeightFilterStateIS8_EEEENSI_IiEEEE
  2231: 00000000002431b0    88 OBJECT  WEAK   DEFAULT   21 _ZTVN3fst8internal18ComposeFstImplBaseINS_6ArcTplINS_17TropicalWeightTplIfEEEENS_17DefaultCacheStoreIS5_EENS_10ComposeFstIS5_S7_EEEE
  2232: 00000000000feee0    24 FUNC    WEAK   DEFAULT   12 _ZNK3fst9ImplToFstINS_8internal13VectorFstImplINS_11VectorStateINS_6ArcTplINS_16LatticeWeightTplIfEEEESaIS7_EEEEENS_10MutableFstIS7_EEE17NumOutputEpsilonsEi
  2233: 0000000000100be0    70 FUNC    WEAK   DEFAULT   12 _ZNK3fst17ComposeFstMatcherINS_17DefaultCacheStoreINS_6ArcTplINS_16LatticeWeightTplIfEEEEEENS_24AltSequenceComposeFilterINS_7MatcherINS_3FstIS5_EEEESB_EENS_24GenericComposeStateTableIS5_NS_18IntegerFilterStateIaEENS_24DefaultComposeStateTupleIiSF_EENS_21CompactHashStateTableISH_NS_11ComposeHashISH_EEEEEEE4DoneEv
  2234: 000000000019c190    39 FUNC    WEAK   DEFAULT   12 _ZNSt6vectorIN3fst6ArcTplINS0_17TropicalWeightTplIfEEEESaIS4_EED1Ev
  2235: 0000000000184df0  2763 FUNC    WEAK   DEFAULT   12 _ZN3fst12GCCacheStoreINS_15FirstCacheStoreINS_16VectorCacheStoreINS_10CacheStateINS_6ArcTplINS_17TropicalWeightTplIfEEEENS_13PoolAllocatorIS7_EEEEEEEEE2GCEPKSA_bf
  2236: 00000000001c9fd0     1 FUNC    GLOBAL DEFAULT   12 vosk_batch_recognizer_pop
  2237: 00000000000f67f0  4146 FUNC    GLOBAL DEFAULT   12 _ZN10Recognizer13PartialResultEv
  2238: 00000000001bd2d0  1905 FUNC    WEAK   DEFAULT   12 _ZN3fst23LabelLookAheadRelabelerINS_6ArcTplINS_17TropicalWeightTplIfEEEENS_18LabelReachableDataIiEEEC2INS_8internal9AddOnImplINS_8ConstFstIS4_jEENS_9AddOnPairIS6_S6_EEEEEEPSt10shared_ptrIT_E
  2239: 000000000017e430   423 FUNC    WEAK   DEFAULT   12 _ZN3fst16ImplToMutableFstINS_8internal13VectorFstImplINS_11VectorStateINS_6ArcTplINS_17TropicalWeightTplIfEEEESaIS7_EEEEENS_10MutableFstIS7_EEE6AddArcEiOS7_
  2240: 00000000001334d0   431 FUNC    WEAK   DEFAULT   12 _ZNK3fst8internal14ComposeFstImplINS_17DefaultCacheStoreINS_6ArcTplINS_16LatticeWeightTplIfEEEEEENS_24AltSequenceComposeFilterINS_7MatcherINS_3FstIS6_EEEESC_EENS_24GenericComposeStateTableIS6_NS_18IntegerFilterStateIaEENS_24DefaultComposeStateTupleIiSG_EENS_21CompactHashStateTableISI_NS_11ComposeHashISI_EEEEEEE11InitMatcherERKNS_10ComposeFstIS6_S7_EENS_9MatchTypeE
  2241: 00000000001a8490    20 FUNC    WEAK   DEFAULT   12 _ZN3fst11ArcIteratorINS_8NGramFstINS_6ArcTplINS_17TropicalWeightTplIfEEEEEEE8SetFlagsEhh
  2242: 00000000001003c0     7 FUNC    WEAK   DEFAULT   12 _ZNK3fst18MutableArcIteratorINS_9VectorFstINS_6ArcTplINS_16LatticeWeightTplIfEEEENS_11VectorStateIS5_SaIS5_EEEEEE8PositionEv
  2243: 0000000000140ae0   375 FUNC    WEAK   DEFAULT   12 _ZN3fst8internal13CacheBaseImplINS_10CacheStateINS_6ArcTplINS_17TropicalWeightTplIfEEEENS_13PoolAllocatorIS6_EEEENS_17DefaultCacheStoreIS6_EEED2Ev
  2244: 00000000001348f0  1586 FUNC    WEAK   DEFAULT   12 _ZN3fst8internal13VectorFstImplINS_11VectorStateINS_6ArcTplINS_16LatticeWeightTplIfEEEESaIS6_EEEEC2ERKNS_3FstIS6_EE
  2245: 00000000001ab4c0   634 FUNC    WEAK   DEFAULT   12 _ZN5kaldi12ParseOptionsD2Ev
  2246: 00000000000fdbb0     6 FUNC    WEAK   DEFAULT   12 _ZNK3fst8internal14MemoryPoolImplILm24EE4SizeEv
  2247: 00000000000ffb00    16 FUNC    WEAK   DEFAULT   12 _ZNSt23_Sp_counted_ptr_inplaceIN3fst8internal13VectorFstImplINS0_11VectorStateINS0_10ReverseArcINS0_6ArcTplINS0_23CompactLatticeWeightTplINS0_16LatticeWeightTplIfEEiEEEEEESaISB_EEEEESaIvELN9__gnu_cxx12_Lock_policyE2EE10_M_disposeEv
  2248: 00000000000fdaa0     6 FUNC    WEAK   DEFAULT   12 _ZNK3fst8internal14MemoryPoolImplILm80EE4SizeEv
  2249: 0000000000240768    64 OBJECT  WEAK   DEFAULT   21 _ZTVN3fst18CacheStateIteratorINS_10ComposeFstINS_6ArcTplINS_17TropicalWeightTplIfEEEENS_17DefaultCacheStoreIS5_EEEEEE
  2250: 0000000000141690   303 FUNC    WEAK   DEFAULT   12 _ZNSt23_Sp_counted_ptr_inplaceIN3fst8internal14ComposeFstImplINS0_17DefaultCacheStoreINS0_6ArcTplINS0_17TropicalWeightTplIfEEEEEENS0_21SequenceComposeFilterINS0_7MatcherINS0_3FstIS7_EEEESD_EENS0_24GenericComposeStateTableIS7_NS0_18IntegerFilterStateIaEENS0_24DefaultComposeStateTupleIiSH_EENS0_21CompactHashStateTableISJ_NS0_11ComposeHashISJ_EEEEEEEESaIvELN9__gnu_cxx12_Lock_policyE2EE10_M_disposeEv
  2251: 00000000002455e8    40 OBJECT  WEAK   DEFAULT   21 _ZTVN3fst10MemoryPoolINS_13PoolAllocatorINS_6ArcTplINS_17TropicalWeightTplIfEEEEE2TNILi4EEEEE
  2252: 000000000010e610   231 FUNC    WEAK   DEFAULT   12 _ZN3fst8internal7FstImplINS_6ArcTplINS_17TropicalWeightTplIfEEEEED1Ev
  2253: 000000000010a200    89 FUNC    WEAK   DEFAULT   12 _ZN3fst8internal15MemoryArenaImplILm40EED2Ev
  2254: 00000000000ff240     1 FUNC    WEAK   DEFAULT   12 _ZN3fst10MutableFstINS_6ArcTplINS_17TropicalWeightTplIfEEEEE11ReserveArcsEim
  2255: 0000000000244c20    56 OBJECT  WEAK   DEFAULT   21 _ZTVSt23_Sp_counted_ptr_inplaceIN3fst8internal18DeterminizeFsaImplINS0_10ReverseArcINS0_6ArcTplINS0_16LatticeWeightTplIfEEEEEENS0_20DefaultCommonDivisorIS6_EENS0_24DefaultDeterminizeFilterIS8_EENS0_28DefaultDeterminizeStateTableIS8_NS0_18IntegerFilterStateIaEEEEEESaIvELN9__gnu_cxx12_Lock_policyE2EE
  2256: 000000000017d9c0   391 FUNC    WEAK   DEFAULT   12 _ZN3fst16ImplToMutableFstINS_8internal13VectorFstImplINS_11VectorStateINS_6ArcTplINS_17TropicalWeightTplIfEEEESaIS7_EEEEENS_10MutableFstIS7_EEE15SetInputSymbolsEPKNS_11SymbolTableE
  2257: 000000000016e1a0   150 FUNC    WEAK   DEFAULT   12 _ZN3fst16ImplToMutableFstINS_8internal13VectorFstImplINS_11VectorStateINS_10ReverseArcINS_6ArcTplINS_23CompactLatticeWeightTplINS_16LatticeWeightTplIfEEiEEEEEESaISB_EEEEENS_10MutableFstISB_EEE20MutableOutputSymbolsEv
  2258: 000000000012bc20   250 FUNC    WEAK   DEFAULT   12 _ZN3fst8internal7FstImplINS_6ArcTplINS_17TropicalWeightTplIfEEEEE15SetInputSymbolsEPKNS_11SymbolTableE
  2259: 000000000010de80    37 FUNC    WEAK   DEFAULT   12 _ZN3fst10ComposeFstINS_6ArcTplINS_16LatticeWeightTplIfEEEENS_17DefaultCacheStoreIS4_EEED2Ev
  2260: 0000000000152330  4450 FUNC    WEAK   DEFAULT   12 _ZN3fst8internal21ShortestDistanceStateINS_6ArcTplINS_23CompactLatticeWeightTplINS_16LatticeWeightTplIfEEiEEEENS_9AutoQueueIiEENS_16EpsilonArcFilterIS7_EENS_17WeightApproxEqualEE16ShortestDistanceEi
  2261: 00000000001dfac0   323 FUNC    WEAK   DEFAULT   12 _ZN3fst8internal18DeterminizeFsaImplINS_10ReverseArcINS_6ArcTplINS_17TropicalWeightTplIfEEEEEENS_20DefaultCommonDivisorIS5_EENS_24DefaultDeterminizeFilterIS7_EENS_28DefaultDeterminizeStateTableIS7_NS_18IntegerFilterStateIaEEEEED1Ev
  2262: 0000000000244788   312 OBJECT  WEAK   DEFAULT   21 _ZTVN3fst16ImplToMutableFstINS_8internal13VectorFstImplINS_11VectorStateINS_10ReverseArcINS_6ArcTplINS_23CompactLatticeWeightTplINS_16LatticeWeightTplIfEEiEEEEEESaISB_EEEEENS_10MutableFstISB_EEEE
  2263: 00000000001a8390    16 FUNC    WEAK   DEFAULT   12 _ZNSt23_Sp_counted_ptr_inplaceIN3fst8internal9AddOnImplINS0_8ConstFstINS0_6ArcTplINS0_17TropicalWeightTplIfEEEEjEENS0_9AddOnPairINS0_18LabelReachableDataIiEESB_EEEESaIvELN9__gnu_cxx12_Lock_policyE2EE10_M_disposeEv
  2264: 0000000000186600   211 FUNC    WEAK   DEFAULT   12 _ZNK3fst9ImplToFstINS_8internal13ArcMapFstImplINS_6ArcTplINS_17TropicalWeightTplIfEEEES6_NS_28RemoveSomeInputSymbolsMapperIS6_iEEEENS_3FstIS6_EEE17NumOutputEpsilonsEi
  2265: 0000000000115b50   134 FUNC    WEAK   DEFAULT   12 _ZN3fst11make_uniqueINS_9FifoQueueIiEEJEEESt10unique_ptrIT_St14default_deleteIS4_EEDpOT0_
  2266: 00000000001d1a70   283 FUNC    WEAK   DEFAULT   12 _ZNK3fst17ComposeFstMatcherINS_17DefaultCacheStoreINS_6ArcTplINS_17TropicalWeightTplIfEEEEEENS_18MatchComposeFilterINS_7MatcherINS_3FstIS5_EEEESB_EENS_24GenericComposeStateTableIS5_NS_18IntegerFilterStateIaEENS_24DefaultComposeStateTupleIiSF_EENS_21CompactHashStateTableISH_NS_11ComposeHashISH_EEEEEEE4TypeEb
  2267: 00000000002420d8   312 OBJECT  WEAK   DEFAULT   21 _ZTVN3fst16ImplToMutableFstINS_8internal13VectorFstImplINS_11VectorStateINS_6ArcTplINS_17TropicalWeightTplIfEEEESaIS7_EEEEENS_10MutableFstIS7_EEEE
  2268: 00000000001af180   466 FUNC    WEAK   DEFAULT   12 _ZN3fst9VectorFstINS_6ArcTplINS_17TropicalWeightTplIfEEEENS_11VectorStateIS4_SaIS4_EEEEC1Ev
  2269: 0000000000100d90   113 FUNC    WEAK   DEFAULT   12 _ZN3fst17ComposeFstMatcherINS_17DefaultCacheStoreINS_6ArcTplINS_16LatticeWeightTplIfEEEEEENS_18MatchComposeFilterINS_7MatcherINS_3FstIS5_EEEESB_EENS_24GenericComposeStateTableIS5_NS_18IntegerFilterStateIaEENS_24DefaultComposeStateTupleIiSF_EENS_21CompactHashStateTableISH_NS_11ComposeHashISH_EEEEEEE8SetStateEi
  2270: 0000000000100180    21 FUNC    WEAK   DEFAULT   12 _ZNSt15_Sp_counted_ptrIPN3fst8internal18ComposeFstImplBaseINS0_6ArcTplINS0_17TropicalWeightTplIfEEEENS0_17DefaultCacheStoreIS6_EENS0_10ComposeFstIS6_S8_EEEELN9__gnu_cxx12_Lock_policyE2EE10_M_disposeEv
  2271: 0000000000203c60   160 OBJECT  WEAK   DEFAULT   14 _ZTSN3fst9ImplToFstINS_8internal13ArcMapFstImplINS_6ArcTplINS_17TropicalWeightTplIfEEEENS3_INS_16LatticeWeightTplIfEEEENS_18StdToLatticeMapperIfEEEENS_3FstIS9_EEEE
  2272: 000000000020a220    95 OBJECT  WEAK   DEFAULT   14 _ZTSN3fst10MemoryPoolINS_11ArcIteratorINS_8ConstFstINS_6ArcTplINS_17TropicalWeightTplIfEEEEjEEEEEE
  2273: 00000000001d4060   117 FUNC    WEAK   DEFAULT   12 _ZN3fst10MemoryPoolINS_13PoolAllocatorINS_10ReverseArcINS_6ArcTplINS_17TropicalWeightTplIfEEEEEEE2TNILi4EEEED1Ev
  2274: 0000000000108ff0    75 FUNC    WEAK   DEFAULT   12 _ZNSt23_Sp_counted_ptr_inplaceIN3fst8internal13VectorFstImplINS0_11VectorStateINS0_10ReverseArcINS0_6ArcTplINS0_23CompactLatticeWeightTplINS0_16LatticeWeightTplIfEEiEEEEEESaISB_EEEEESaIvELN9__gnu_cxx12_Lock_policyE2EE14_M_get_deleterERKSt9type_info
  2275: 0000000000112970  1924 FUNC    WEAK   DEFAULT   12 _ZNK4json4JSON4dumpEiNSt7__cxx1112basic_stringIcSt11char_traitsIcESaIcEEE
  2276: 00000000001d1a60     6 FUNC    WEAK   DEFAULT   12 _ZNK3fst17ComposeFstMatcherINS_17DefaultCacheStoreINS_6ArcTplINS_17TropicalWeightTplIfEEEEEENS_24AltSequenceComposeFilterINS_7MatcherINS_3FstIS5_EEEESB_EENS_24GenericComposeStateTableIS5_NS_18IntegerFilterStateIaEENS_24DefaultComposeStateTupleIiSF_EENS_21CompactHashStateTableISH_NS_11ComposeHashISH_EEEEEEE10PropertiesEm
  2277: 0000000000102a50   702 FUNC    WEAK   DEFAULT   12 _ZN3fst18MutableArcIteratorINS_9VectorFstINS_10ReverseArcINS_6ArcTplINS_16LatticeWeightTplIfEEEEEENS_11VectorStateIS7_SaIS7_EEEEEE8SetValueERKS7_
  2278: 0000000000241530    24 OBJECT  WEAK   DEFAULT   21 _ZTIN3fst9VectorFstINS_10ReverseArcINS_6ArcTplINS_23CompactLatticeWeightTplINS_16LatticeWeightTplIfEEiEEEEEENS_11VectorStateIS8_SaIS8_EEEEE
  2279: 0000000000143190  1889 FUNC    WEAK   DEFAULT   12 _ZN3fst8internal14ComposeFstImplINS_17DefaultCacheStoreINS_6ArcTplINS_17TropicalWeightTplIfEEEEEENS_23PushLabelsComposeFilterINS_24PushWeightsComposeFilterINS_22LookAheadComposeFilterINS_21SequenceComposeFilterINS_16LookAheadMatcherINS_3FstIS6_EEEESF_EESF_SF_LNS_9MatchTypeE3EEESF_SF_LSH_3EEESF_SF_LSH_3EEENS_24GenericComposeStateTableIS6_NS_15PairFilterStateINSM_INS_18IntegerFilterStateIaEENS_17WeightFilterStateIS5_EEEENSN_IiEEEENS_24DefaultComposeStateTupleIiST_EENS_21CompactHashStateTableISV_NS_11ComposeHashISV_EEEEEEEC1ISF_SF_EERKSE_S14_RKNS_21ComposeFstImplOptionsIT_T0_SK_S10_S7_EE
  2280: 000000000012a3e0   303 FUNC    WEAK   DEFAULT   12 _ZNSt6vectorIN3fst5AdderINS0_23CompactLatticeWeightTplINS0_16LatticeWeightTplIfEEiEEEESaIS6_EE7reserveEm
  2281: 00000000001ae720    70 FUNC    WEAK   DEFAULT   12 _ZN3fst8internal9AddOnImplINS_8ConstFstINS_6ArcTplINS_17TropicalWeightTplIfEEEEjEENS_9AddOnPairINS_18LabelReachableDataIiEESA_EEED1Ev
  2282: 0000000000242948   312 OBJECT  WEAK   DEFAULT   21 _ZTVN3fst9ImplToFstINS_8internal13VectorFstImplINS_11VectorStateINS_6ArcTplINS_16LatticeWeightTplIfEEEESaIS7_EEEEENS_10MutableFstIS7_EEEE
  2283: 000000000010f5b0   367 FUNC    WEAK   DEFAULT   12 _ZN3fst8internal13VectorFstImplINS_11VectorStateINS_10ReverseArcINS_6ArcTplINS_16LatticeWeightTplIfEEEEEESaIS8_EEEED1Ev
  2284: 0000000000102470    90 FUNC    WEAK   DEFAULT   12 _ZNK3fst8internal13ArcMapFstImplINS_6ArcTplINS_17TropicalWeightTplIfEEEENS2_INS_16LatticeWeightTplIfEEEENS_18StdToLatticeMapperIfEEE10PropertiesEm
  2285: 00000000001d1090    11 FUNC    WEAK   DEFAULT   12 _ZNK3fst9ImplToFstINS_8internal13VectorFstImplINS_11VectorStateINS_10ReverseArcINS_6ArcTplINS_17TropicalWeightTplIfEEEEEESaIS9_EEEEENS_10MutableFstIS9_EEE12InputSymbolsEv
  2286: 0000000000242bb8   312 OBJECT  WEAK   DEFAULT   21 _ZTVN3fst16ImplToMutableFstINS_8internal13VectorFstImplINS_11VectorStateINS_6ArcTplINS_16LatticeWeightTplIfEEEESaIS7_EEEEENS_10MutableFstIS7_EEEE
  2287: 00000000001b0f80   130 FUNC    WEAK   DEFAULT   12 _ZN3fst13SortedMatcherINS_8ConstFstINS_6ArcTplINS_17TropicalWeightTplIfEEEEjEEED1Ev
  2288: 00000000000e4630   400 FUNC    GLOBAL DEFAULT   12 _ZN10Recognizer14AcceptWaveformEPKsi
  2289: 0000000000142140   478 FUNC    WEAK   DEFAULT   12 _ZN3fst8internal13CacheBaseImplINS_10CacheStateINS_6ArcTplINS_17TropicalWeightTplIfEEEENS_13PoolAllocatorIS6_EEEENS_17DefaultCacheStoreIS6_EEEC2ERKNS_16CacheImplOptionsISB_EE
  2290: 0000000000208800    89 OBJECT  WEAK   DEFAULT   14 _ZTSN3fst10MemoryPoolINS_13PoolAllocatorINS_6ArcTplINS_16LatticeWeightTplIfEEEEE2TNILi4EEEEE
  2291: 000000000020b740    85 OBJECT  WEAK   DEFAULT   14 _ZTSN3fst17StateIteratorBaseINS_10ReverseArcINS_6ArcTplINS_17TropicalWeightTplIfEEEEEEEE
  2292: 00000000001d31c0   203 FUNC    WEAK   DEFAULT   12 _ZNK3fst9ImplToFstINS_8internal22DeterminizeFstImplBaseINS_10ReverseArcINS_6ArcTplINS_17TropicalWeightTplIfEEEEEEEENS_3FstIS8_EEE7NumArcsEi
  2293: 000000000010c900   134 FUNC    WEAK   DEFAULT   12 _ZN10LogMessageD1Ev
  2294: 00000000001d23d0   146 FUNC    WEAK   DEFAULT   12 _ZNK3fst8internal14ComposeFstImplINS_17DefaultCacheStoreINS_6ArcTplINS_17TropicalWeightTplIfEEEEEENS_20TrivialComposeFilterINS_7MatcherINS_3FstIS6_EEEESC_EENS_24GenericComposeStateTableIS6_NS_18TrivialFilterStateENS_24DefaultComposeStateTupleIiSF_EENS_21CompactHashStateTableISH_NS_11ComposeHashISH_EEEEEEE10PropertiesEm
  2295: 0000000000245038    40 OBJECT  WEAK   DEFAULT   21 _ZTVN3fst8internal15MemoryArenaImplILm72EEE
  2296: 000000000010b7c0   117 FUNC    WEAK   DEFAULT   12 _ZN3fst8internal14MemoryPoolImplILm72EED2Ev
  2297: 0000000000105b20   104 FUNC    WEAK   DEFAULT   12 _ZNK3fst8internal13ArcMapFstImplINS_6ArcTplINS_17TropicalWeightTplIfEEEENS2_INS_16LatticeWeightTplIfEEEENS_18StdToLatticeMapperIfEEE10PropertiesEv
  2298: 0000000000131ba0   237 FUNC    WEAK   DEFAULT   12 _ZN3fst22LookAheadComposeFilterINS_21SequenceComposeFilterINS_16LookAheadMatcherINS_3FstINS_6ArcTplINS_17TropicalWeightTplIfEEEEEEEES9_EES9_S9_LNS_9MatchTypeE3EED1Ev
  2299: 00000000002058c0   164 OBJECT  WEAK   DEFAULT   14 _ZTSSt23_Sp_counted_ptr_inplaceIN3fst8internal13VectorFstImplINS0_11VectorStateINS0_6ArcTplINS0_17TropicalWeightTplIfEEEESaIS7_EEEEESaIvELN9__gnu_cxx12_Lock_policyE2EE
  2300: 000000000016faf0   150 FUNC    WEAK   DEFAULT   12 _ZN3fst16ImplToMutableFstINS_8internal13VectorFstImplINS_11VectorStateINS_10ReverseArcINS_6ArcTplINS_16LatticeWeightTplIfEEEEEESaIS9_EEEEENS_10MutableFstIS9_EEE19MutableInputSymbolsEv
  2301: 00000000001d2100    10 FUNC    WEAK   DEFAULT   12 _ZNSt23_Sp_counted_ptr_inplaceIN3fst8internal13VectorFstImplINS0_11VectorStateINS0_10ReverseArcINS0_6ArcTplINS0_17TropicalWeightTplIfEEEEEESaIS9_EEEEESaIvELN9__gnu_cxx12_Lock_policyE2EED0Ev
  2302: 0000000000108950   258 FUNC    WEAK   DEFAULT   12 _ZN3fst17ComposeFstMatcherINS_17DefaultCacheStoreINS_6ArcTplINS_16LatticeWeightTplIfEEEEEENS_20TrivialComposeFilterINS_7MatcherINS_3FstIS5_EEEESB_EENS_24GenericComposeStateTableIS5_NS_18TrivialFilterStateENS_24DefaultComposeStateTupleIiSE_EENS_21CompactHashStateTableISG_NS_11ComposeHashISG_EEEEEEE8PriorityEi
  2303: 00000000001a7d30    11 FUNC    WEAK   DEFAULT   12 _ZNK3fst9ImplToFstINS_8internal9AddOnImplINS_8ConstFstINS_6ArcTplINS_17TropicalWeightTplIfEEEEjEENS_9AddOnPairINS_18LabelReachableDataIiEESB_EEEENS_11ExpandedFstIS7_EEE4TypeB5cxx11Ev
  2304: 0000000000246d98    24 OBJECT  WEAK   DEFAULT   21 _ZTIN3fst8internal14ComposeFstImplINS_17DefaultCacheStoreINS_6ArcTplINS_17TropicalWeightTplIfEEEEEENS_20TrivialComposeFilterINS_7MatcherINS_3FstIS6_EEEESC_EENS_24GenericComposeStateTableIS6_NS_18TrivialFilterStateENS_24DefaultComposeStateTupleIiSF_EENS_21CompactHashStateTableISH_NS_11ComposeHashISH_EEEEEEEE
  2305: 0000000000115a10    39 FUNC    WEAK   DEFAULT   12 _ZNSt6vectorIN3fst9QueueTypeESaIS1_EED2Ev
  2306: 0000000000110ec0    54 FUNC    WEAK   DEFAULT   12 _ZNSt14__shared_countILN9__gnu_cxx12_Lock_policyE2EEC1ERKS2_
  2307: 00000000001a8d70    10 FUNC    WEAK   DEFAULT   12 _ZNSt23_Sp_counted_ptr_inplaceIN3fst8internal12ConstFstImplINS0_6ArcTplINS0_17TropicalWeightTplIfEEEEjEESaIvELN9__gnu_cxx12_Lock_policyE2EE10_M_destroyEv
  2308: 000000000017f3d0   296 FUNC    WEAK   DEFAULT   12 _ZN3fst8internal14ComposeFstImplINS_17DefaultCacheStoreINS_6ArcTplINS_16LatticeWeightTplIfEEEEEENS_24AltSequenceComposeFilterINS_7MatcherINS_3FstIS6_EEEESC_EENS_24GenericComposeStateTableIS6_NS_18IntegerFilterStateIaEENS_24DefaultComposeStateTupleIiSG_EENS_21CompactHashStateTableISI_NS_11ComposeHashISI_EEEEEEE12ComputeStartEv
  2309: 000000000010dfd0    46 FUNC    WEAK   DEFAULT   12 _ZN3fst14DeterminizeFstINS_10ReverseArcINS_6ArcTplINS_16LatticeWeightTplIfEEEEEEED0Ev
  2310: 00000000001d3db0   168 FUNC    WEAK   DEFAULT   12 _ZNK3fst8internal14ComposeFstImplINS_17DefaultCacheStoreINS_6ArcTplINS_17TropicalWeightTplIfEEEEEENS_20TrivialComposeFilterINS_7MatcherINS_3FstIS6_EEEESC_EENS_24GenericComposeStateTableIS6_NS_18TrivialFilterStateENS_24DefaultComposeStateTupleIiSF_EENS_21CompactHashStateTableISH_NS_11ComposeHashISH_EEEEEEE10PropertiesEv
  2311: 000000000012a840   347 FUNC    WEAK   DEFAULT   12 _ZN3fst15TopOrderVisitorINS_10ReverseArcINS_6ArcTplINS_23CompactLatticeWeightTplINS_16LatticeWeightTplIfEEiEEEEEEE11FinishVisitEv
  2312: 0000000000117c70   347 FUNC    WEAK   DEFAULT   12 _ZN3fst15TopOrderVisitorINS_6ArcTplINS_23CompactLatticeWeightTplINS_16LatticeWeightTplIfEEiEEEEE11FinishVisitEv
  2313: 0000000000241e08    48 OBJECT  WEAK   DEFAULT   21 _ZTVN3fst8internal17VectorFstBaseImplINS_11VectorStateINS_6ArcTplINS_17TropicalWeightTplIfEEEESaIS6_EEEEE
  2314: 00000000001eebf0  1152 FUNC    WEAK   DEFAULT   12 _ZNK3fst8internal14ComposeFstImplINS_17DefaultCacheStoreINS_6ArcTplINS_17TropicalWeightTplIfEEEEEENS_24AltSequenceComposeFilterINS_7MatcherINS_3FstIS6_EEEESC_EENS_24GenericComposeStateTableIS6_NS_18IntegerFilterStateIaEENS_24DefaultComposeStateTupleIiSG_EENS_21CompactHashStateTableISI_NS_11ComposeHashISI_EEEEEEE4CopyEv
  2315: 0000000000134310   301 FUNC    WEAK   DEFAULT   12 _ZNSt10unique_ptrIN3fst23PushLabelsComposeFilterINS0_24PushWeightsComposeFilterINS0_22LookAheadComposeFilterINS0_24AltSequenceComposeFilterINS0_16LookAheadMatcherINS0_3FstINS0_6ArcTplINS0_17TropicalWeightTplIfEEEEEEEESC_EESC_SC_LNS0_9MatchTypeE3EEESC_SC_LSE_3EEESC_SC_LSE_3EEESt14default_deleteISH_EED1Ev
  2316: 000000000010c3c0   117 FUNC    WEAK   DEFAULT   12 _ZN3fst10MemoryPoolINS_8internal8DfsStateINS_10MutableFstINS_6ArcTplINS_23CompactLatticeWeightTplINS_16LatticeWeightTplIfEEiEEEEEEEEED1Ev
  2317: 000000000011ade0    67 FUNC    WEAK   DEFAULT   12 _ZN3fst10MemoryPoolINS_13PoolAllocatorINS_10ReverseArcINS_6ArcTplINS_16LatticeWeightTplIfEEEEEEE2TNILi1EEEED0Ev
  2318: 00000000001f8350   837 FUNC    WEAK   DEFAULT   12 _ZN3fst17ComposeFstMatcherINS_17DefaultCacheStoreINS_6ArcTplINS_17TropicalWeightTplIfEEEEEENS_24AltSequenceComposeFilterINS_7MatcherINS_3FstIS5_EEEESB_EENS_24GenericComposeStateTableIS5_NS_18IntegerFilterStateIaEENS_24DefaultComposeStateTupleIiSF_EENS_21CompactHashStateTableISH_NS_11ComposeHashISH_EEEEEEE8FindNextISB_SB_EEbPT_PT0_
  2319: 0000000000133170   431 FUNC    WEAK   DEFAULT   12 _ZNK3fst8internal14ComposeFstImplINS_17DefaultCacheStoreINS_6ArcTplINS_16LatticeWeightTplIfEEEEEENS_20NoMatchComposeFilterINS_7MatcherINS_3FstIS6_EEEESC_EENS_24GenericComposeStateTableIS6_NS_18TrivialFilterStateENS_24DefaultComposeStateTupleIiSF_EENS_21CompactHashStateTableISH_NS_11ComposeHashISH_EEEEEEE11InitMatcherERKNS_10ComposeFstIS6_S7_EENS_9MatchTypeE
  2320: 0000000000139c80   381 FUNC    WEAK   DEFAULT   12 _ZN3fst20MemoryPoolCollection4PoolINS_13PoolAllocatorIPNSt8__detail15_Hash_node_baseEE2TNILi32EEEEEPNS_10MemoryPoolIT_EEv
  2321: 0000000000244f20    40 OBJECT  WEAK   DEFAULT   21 _ZTVN3fst10MemoryPoolINS_13PoolAllocatorIPNSt8__detail15_Hash_node_baseEE2TNILi1EEEEE
  2322: 0000000000207060   114 OBJECT  WEAK   DEFAULT   14 _ZTSN3fst15ArcIteratorBaseINS_10ReverseArcINS_6ArcTplINS_23CompactLatticeWeightTplINS_16LatticeWeightTplIfEEiEEEEEEEE
  2323: 00000000001a8210    10 FUNC    WEAK   DEFAULT   12 _ZNK3fst9ImplToFstINS_8internal12ConstFstImplINS_6ArcTplINS_17TropicalWeightTplIfEEEEjEENS_11ExpandedFstIS6_EEE5StartEv
  2324: 000000000020be60   162 OBJECT  WEAK   DEFAULT   14 _ZTSN3fst17ImplToExpandedFstINS_8internal13VectorFstImplINS_11VectorStateINS_10ReverseArcINS_6ArcTplINS_17TropicalWeightTplIfEEEEEESaIS9_EEEEENS_10MutableFstIS9_EEEE
  2325: 000000000010a260    89 FUNC    WEAK   DEFAULT   12 _ZN3fst8internal15MemoryArenaImplILm80EED2Ev
  2326: 0000000000180990  2543 FUNC    WEAK   DEFAULT   12 _ZNK3fst8internal14ComposeFstImplINS_17DefaultCacheStoreINS_6ArcTplINS_17TropicalWeightTplIfEEEEEENS_23PushLabelsComposeFilterINS_24PushWeightsComposeFilterINS_22LookAheadComposeFilterINS_21SequenceComposeFilterINS_16LookAheadMatcherINS_3FstIS6_EEEESF_EESF_SF_LNS_9MatchTypeE3EEESF_SF_LSH_3EEESF_SF_LSH_3EEENS_24GenericComposeStateTableIS6_NS_15PairFilterStateINSM_INS_18IntegerFilterStateIaEENS_17WeightFilterStateIS5_EEEENSN_IiEEEENS_24DefaultComposeStateTupleIiST_EENS_21CompactHashStateTableISV_NS_11ComposeHashISV_EEEEEEE4CopyEv
  2327: 0000000000134440   301 FUNC    WEAK   DEFAULT   12 _ZNSt10unique_ptrIN3fst23PushLabelsComposeFilterINS0_24PushWeightsComposeFilterINS0_22LookAheadComposeFilterINS0_21SequenceComposeFilterINS0_16LookAheadMatcherINS0_3FstINS0_6ArcTplINS0_17TropicalWeightTplIfEEEEEEEESC_EESC_SC_LNS0_9MatchTypeE3EEESC_SC_LSE_3EEESC_SC_LSE_3EEESt14default_deleteISH_EED1Ev
  2328: 00000000001980f0   849 FUNC    WEAK   DEFAULT   12 _ZN3fst17ComposeFstMatcherINS_17DefaultCacheStoreINS_6ArcTplINS_16LatticeWeightTplIfEEEEEENS_18MatchComposeFilterINS_7MatcherINS_3FstIS5_EEEESB_EENS_24GenericComposeStateTableIS5_NS_18IntegerFilterStateIaEENS_24DefaultComposeStateTupleIiSF_EENS_21CompactHashStateTableISH_NS_11ComposeHashISH_EEEEEEE8FindNextISB_SB_EEbPT_PT0_
  2329: 000000000013c210   177 FUNC    WEAK   DEFAULT   12 _ZN3fst8internal14ComposeFstImplINS_17DefaultCacheStoreINS_6ArcTplINS_16LatticeWeightTplIfEEEEEENS_22LookAheadComposeFilterINS_21SequenceComposeFilterINS_16LookAheadMatcherINS_3FstIS6_EEEESD_EESD_SD_LNS_9MatchTypeE3EEENS_24GenericComposeStateTableIS6_NS_18IntegerFilterStateIaEENS_24DefaultComposeStateTupleIiSJ_EENS_21CompactHashStateTableISL_NS_11ComposeHashISL_EEEEEEED1Ev
  2330: 0000000000100070     1 FUNC    WEAK   DEFAULT   12 _ZN3fst18MutableArcIteratorINS_9VectorFstINS_10ReverseArcINS_6ArcTplINS_16LatticeWeightTplIfEEEEEENS_11VectorStateIS7_SaIS7_EEEEEED2Ev
  2331: 00000000001a8ce0    78 FUNC    WEAK   DEFAULT   12 _ZNK3fst13SortedMatcherINS_8ConstFstINS_6ArcTplINS_17TropicalWeightTplIfEEEEjEEE5FinalEi
  2332: 00000000001f0490  1128 FUNC    WEAK   DEFAULT   12 _ZNK3fst8internal14ComposeFstImplINS_17DefaultCacheStoreINS_6ArcTplINS_17TropicalWeightTplIfEEEEEENS_20NoMatchComposeFilterINS_7MatcherINS_3FstIS6_EEEESC_EENS_24GenericComposeStateTableIS6_NS_18TrivialFilterStateENS_24DefaultComposeStateTupleIiSF_EENS_21CompactHashStateTableISH_NS_11ComposeHashISH_EEEEEEE4CopyEv
  2333: 00000000001db1e0  1017 FUNC    WEAK   DEFAULT   12 _ZN3fst8internal21ConvertStringToLabelsIiEEbRKNSt7__cxx1112basic_stringIcSt11char_traitsIcESaIcEEENS_9TokenTypeEPKNS_11SymbolTableET_bPSt6vectorISE_SaISE_EES9_
  2334: 00000000000fee60    33 FUNC    WEAK   DEFAULT   12 _ZNK3fst9ImplToFstINS_8internal13VectorFstImplINS_11VectorStateINS_6ArcTplINS_16LatticeWeightTplIfEEEESaIS7_EEEEENS_10MutableFstIS7_EEE5FinalEi
  2335: 0000000000246890   128 OBJECT  WEAK   DEFAULT   21 _ZTVN3fst17ComposeFstMatcherINS_17DefaultCacheStoreINS_6ArcTplINS_17TropicalWeightTplIfEEEEEENS_18MatchComposeFilterINS_7MatcherINS_3FstIS5_EEEESB_EENS_24GenericComposeStateTableIS5_NS_18IntegerFilterStateIaEENS_24DefaultComposeStateTupleIiSF_EENS_21CompactHashStateTableISH_NS_11ComposeHashISH_EEEEEEEE
  2336: 0000000000206600   193 OBJECT  WEAK   DEFAULT   14 _ZTSN3fst17ImplToExpandedFstINS_8internal13VectorFstImplINS_11VectorStateINS_10ReverseArcINS_6ArcTplINS_23CompactLatticeWeightTplINS_16LatticeWeightTplIfEEiEEEEEESaISB_EEEEENS_10MutableFstISB_EEEE
  2337: 00000000001c9e20    19 FUNC    GLOBAL DEFAULT   12 vosk_recognizer_set_endpointer_delays
  2338: 000000000018f330   845 FUNC    WEAK   DEFAULT   12 _ZN3fst8internal14ComposeFstImplINS_17DefaultCacheStoreINS_6ArcTplINS_16LatticeWeightTplIfEEEEEENS_22LookAheadComposeFilterINS_21SequenceComposeFilterINS_16LookAheadMatcherINS_3FstIS6_EEEESD_EESD_SD_LNS_9MatchTypeE3EEENS_24GenericComposeStateTableIS6_NS_18IntegerFilterStateIaEENS_24DefaultComposeStateTupleIiSJ_EENS_21CompactHashStateTableISL_NS_11ComposeHashISL_EEEEEEE6ExpandEi
  2339: 000000000016a960  2270 FUNC    WEAK   DEFAULT   12 _ZN3fst8internal13VectorFstImplINS_11VectorStateINS_10ReverseArcINS_6ArcTplINS_23CompactLatticeWeightTplINS_16LatticeWeightTplIfEEiEEEEEESaISA_EEEEC1ERKNS_3FstISA_EE
  2340: 00000000001aab20   117 FUNC    WEAK   DEFAULT   12 _ZN3fst10MemoryPoolINS_11ArcIteratorINS_8ConstFstINS_6ArcTplINS_17TropicalWeightTplIfEEEEjEEEEED1Ev
  2341: 00000000002444e8    48 OBJECT  WEAK   DEFAULT   21 _ZTVN3fst8internal13VectorFstImplINS_11VectorStateINS_10ReverseArcINS_6ArcTplINS_23CompactLatticeWeightTplINS_16LatticeWeightTplIfEEiEEEEEESaISA_EEEEE
  2342: 00000000001b1880   375 FUNC    WEAK   DEFAULT   12 _ZNSt8_Rb_treeINSt7__cxx1112basic_stringIcSt11char_traitsIcESaIcEEESt4pairIKS5_N3fst16FstRegisterEntryINS8_6ArcTplINS8_17TropicalWeightTplIfEEEEEEESt10_Select1stISF_ESt4lessIS5_ESaISF_EE24_M_get_insert_unique_posERS7_
  2343: 0000000000115c50   191 FUNC    WEAK   DEFAULT   12 _ZN3fst11ArcIteratorINS_3FstINS_6ArcTplINS_23CompactLatticeWeightTplINS_16LatticeWeightTplIfEEiEEEEEEEC2ERKS8_i
  2344: 00000000002083a0    83 OBJECT  WEAK   DEFAULT   14 _ZTSN3fst10MemoryPoolINS_13PoolAllocatorIPNSt8__detail15_Hash_node_baseEE2TNILi16EEEEE
  2345: 00000000001a8660    10 FUNC    WEAK   DEFAULT   12 _ZNSt19_Sp_counted_deleterIPN3fst8internal15SymbolTableImplESt14default_deleteIS2_ESaIvELN9__gnu_cxx12_Lock_policyE2EE10_M_destroyEv
  2346: 000000000023fee0    24 OBJECT  WEAK   DEFAULT   21 _ZTIN3fst17ComposeFstMatcherINS_17DefaultCacheStoreINS_6ArcTplINS_16LatticeWeightTplIfEEEEEENS_20TrivialComposeFilterINS_7MatcherINS_3FstIS5_EEEESB_EENS_24GenericComposeStateTableIS5_NS_18TrivialFilterStateENS_24DefaultComposeStateTupleIiSE_EENS_21CompactHashStateTableISG_NS_11ComposeHashISG_EEEEEEEE
  2347: 0000000000135880   299 FUNC    WEAK   DEFAULT   12 _ZN3fst9VectorFstINS_6ArcTplINS_16LatticeWeightTplIfEEEENS_11VectorStateIS4_SaIS4_EEEE22InitMutableArcIteratorEiPNS_22MutableArcIteratorDataIS4_EE
  2348: 00000000000fee10    11 FUNC    WEAK   DEFAULT   12 _ZNK3fst9ImplToFstINS_8internal13ArcMapFstImplINS_6ArcTplINS_17TropicalWeightTplIfEEEENS3_INS_16LatticeWeightTplIfEEEENS_18StdToLatticeMapperIfEEEENS_3FstIS9_EEE13OutputSymbolsEv
  2349: 0000000000132c80    64 FUNC    WEAK   DEFAULT   12 _ZNSt10unique_ptrIN3fst7MatcherINS0_3FstINS0_6ArcTplINS0_16LatticeWeightTplIfEEEEEEEESt14default_deleteIS8_EED1Ev
  2350: 00000000001d0c10     7 FUNC    WEAK   DEFAULT   12 _ZNK3fst8internal15SymbolTableImpl4NameB5cxx11Ev
  2351: 0000000000247778    56 OBJECT  WEAK   DEFAULT   21 _ZTVSt23_Sp_counted_ptr_inplaceIN3fst13StringPrinterINS0_6ArcTplINS0_17TropicalWeightTplIfEEEEEESaIvELN9__gnu_cxx12_Lock_policyE2EE
  2352: 0000000000240b30    24 OBJECT  WEAK   DEFAULT   21 _ZTIN3fst8internal15MemoryArenaImplILm32EEE
  2353: 000000000012b5e0   643 FUNC    WEAK   DEFAULT   12 _ZN3fst16ImplToMutableFstINS_8internal13VectorFstImplINS_11VectorStateINS_6ArcTplINS_16LatticeWeightTplIfEEEESaIS7_EEEEENS_10MutableFstIS7_EEE12DeleteStatesEv
  2354: 0000000000145dd0   506 FUNC    WEAK   DEFAULT   12 _ZN3fst8internal18DeterminizeFsaImplINS_10ReverseArcINS_6ArcTplINS_16LatticeWeightTplIfEEEEEENS_20DefaultCommonDivisorIS5_EENS_24DefaultDeterminizeFilterIS7_EENS_28DefaultDeterminizeStateTableIS7_NS_18IntegerFilterStateIaEEEEED0Ev
  2355: 0000000000102290   146 FUNC    WEAK   DEFAULT   12 _ZNK3fst8internal14ComposeFstImplINS_17DefaultCacheStoreINS_6ArcTplINS_16LatticeWeightTplIfEEEEEENS_24AltSequenceComposeFilterINS_7MatcherINS_3FstIS6_EEEESC_EENS_24GenericComposeStateTableIS6_NS_18IntegerFilterStateIaEENS_24DefaultComposeStateTupleIiSG_EENS_21CompactHashStateTableISI_NS_11ComposeHashISI_EEEEEEE10PropertiesEm
  2356: 00000000001a86a0    10 FUNC    WEAK   DEFAULT   12 _ZNSt23_Sp_counted_ptr_inplaceIN3fst9AddOnPairINS0_18LabelReachableDataIiEES3_EESaIvELN9__gnu_cxx12_Lock_policyE2EE10_M_destroyEv
  2357: 00000000001b4af0   680 FUNC    WEAK   DEFAULT   12 _ZN3fst13SortedMatcherINS_8ConstFstINS_6ArcTplINS_17TropicalWeightTplIfEEEEjEEEC2EPKS6_NS_9MatchTypeEi
  2358: 0000000000240ab0    16 OBJECT  WEAK   DEFAULT   21 _ZTIN3fst14MemoryPoolBaseE
  2359: 0000000000147d80  1034 FUNC    WEAK   DEFAULT   12 _ZNK3fst3FstINS_6ArcTplINS_16LatticeWeightTplIfEEEEE9WriteFileERKNSt7__cxx1112basic_stringIcSt11char_traitsIcESaIcEEE
  2360: 00000000000feff0    24 FUNC    WEAK   DEFAULT   12 _ZNK3fst9ImplToFstINS_8internal13VectorFstImplINS_11VectorStateINS_6ArcTplINS_23CompactLatticeWeightTplINS_16LatticeWeightTplIfEEiEEEESaIS9_EEEEENS_10MutableFstIS9_EEE17NumOutputEpsilonsEi
  2361: 00000000001148a0   297 FUNC    WEAK   DEFAULT   12 _ZN3fst8SccQueueIiNS_9QueueBaseIiEEE7EnqueueEi
  2362: 000000000018bfb0  1074 FUNC    WEAK   DEFAULT   12 _ZN3fst8internal14ComposeFstImplINS_17DefaultCacheStoreINS_6ArcTplINS_16LatticeWeightTplIfEEEEEENS_18MatchComposeFilterINS_7MatcherINS_3FstIS6_EEEESC_EENS_24GenericComposeStateTableIS6_NS_18IntegerFilterStateIaEENS_24DefaultComposeStateTupleIiSG_EENS_21CompactHashStateTableISI_NS_11ComposeHashISI_EEEEEEE8MatchArcISC_EEviPT_RKS6_b
  2363: 000000000011b3d0    67 FUNC    WEAK   DEFAULT   12 _ZN3fst8internal14MemoryPoolImplILm64EED0Ev
  2364: 0000000000160ea0   467 FUNC    WEAK   DEFAULT   12 _ZNSt6vectorIN3fst24DefaultComposeStateTupleIiNS0_18IntegerFilterStateIaEEEESaIS4_EE17_M_realloc_insertIJRKS4_EEEvN9__gnu_cxx17__normal_iteratorIPS4_S6_EEDpOT_
  2365: 000000000012b0c0   454 FUNC    WEAK   DEFAULT   12 _ZNSt8__detail9_Map_baseIPKSt6vectorIN3fst19LatticeDeterminizerINS2_16LatticeWeightTplIfEEiE7ElementESaIS7_EESt4pairIKSB_S7_ESaISE_ENS_10_Select1stENS6_11SubsetEqualENS6_9SubsetKeyENS_18_Mod_range_hashingENS_20_Default_ranged_hashENS_20_Prime_rehash_policyENS_17_Hashtable_traitsILb1ELb0ELb1EEELb1EEixERSD_
  2366: 0000000000139b00   381 FUNC    WEAK   DEFAULT   12 _ZN3fst20MemoryPoolCollection4PoolINS_13PoolAllocatorIPNSt8__detail15_Hash_node_baseEE2TNILi16EEEEEPNS_10MemoryPoolIT_EEv
  2367: 00000000000fefc0     1 FUNC    WEAK   DEFAULT   12 _ZN3fst10MutableFstINS_6ArcTplINS_16LatticeWeightTplIfEEEEE11ReserveArcsEim
  2368: 00000000001d36e0    75 FUNC    WEAK   DEFAULT   12 _ZNSt23_Sp_counted_ptr_inplaceIN3fst14StringCompilerINS0_6ArcTplINS0_17TropicalWeightTplIfEEEEEESaIvELN9__gnu_cxx12_Lock_policyE2EE14_M_get_deleterERKSt9type_info
  2369: 00000000001b12c0  1470 FUNC    WEAK   DEFAULT   12 _ZN3fst8internal7FstImplINS_6ArcTplINS_17TropicalWeightTplIfEEEEE10ReadHeaderERSiRKNS_14FstReadOptionsEiPNS_9FstHeaderE
  2370: 00000000001078c0   168 FUNC    WEAK   DEFAULT   12 _ZNK3fst8internal14ComposeFstImplINS_17DefaultCacheStoreINS_6ArcTplINS_16LatticeWeightTplIfEEEEEENS_24AltSequenceComposeFilterINS_7MatcherINS_3FstIS6_EEEESC_EENS_24GenericComposeStateTableIS6_NS_18IntegerFilterStateIaEENS_24DefaultComposeStateTupleIiSG_EENS_21CompactHashStateTableISI_NS_11ComposeHashISI_EEEEEEE10PropertiesEv
  2371: 00000000002415e8    24 OBJECT  WEAK   DEFAULT   21 _ZTIN3fst10MemoryPoolINS_8internal8DfsStateINS_3FstINS_10ReverseArcINS_6ArcTplINS_23CompactLatticeWeightTplINS_16LatticeWeightTplIfEEiEEEEEEEEEEEE
  2372: 000000000020a960   118 OBJECT  WEAK   DEFAULT   14 _ZTSN3fst17ImplToExpandedFstINS_8internal12NGramFstImplINS_6ArcTplINS_17TropicalWeightTplIfEEEEEENS_11ExpandedFstIS6_EEEE
  2373: 0000000000205ae0    89 OBJECT  WEAK   DEFAULT   14 _ZTSN3fst10MemoryPoolINS_11ArcIteratorINS_3FstINS_6ArcTplINS_17TropicalWeightTplIfEEEEEEEEEE
  2374: 00000000001152e0   197 FUNC    WEAK   DEFAULT   12 _ZNSt6vectorIiSaIiEE7reserveEm
  2375: 000000000012bfc0   643 FUNC    WEAK   DEFAULT   12 _ZN3fst16ImplToMutableFstINS_8internal13VectorFstImplINS_11VectorStateINS_6ArcTplINS_17TropicalWeightTplIfEEEESaIS7_EEEEENS_10MutableFstIS7_EEE12DeleteStatesEv
  2376: 00000000001489e0  1034 FUNC    WEAK   DEFAULT   12 _ZNK3fst3FstINS_10ReverseArcINS_6ArcTplINS_23CompactLatticeWeightTplINS_16LatticeWeightTplIfEEiEEEEEEE9WriteFileERKNSt7__cxx1112basic_stringIcSt11char_traitsIcESaIcEEE
  2377: 00000000002448c0   312 OBJECT  WEAK   DEFAULT   21 _ZTVN3fst9VectorFstINS_10ReverseArcINS_6ArcTplINS_23CompactLatticeWeightTplINS_16LatticeWeightTplIfEEiEEEEEENS_11VectorStateIS8_SaIS8_EEEEE
  2378: 00000000001866e0   211 FUNC    WEAK   DEFAULT   12 _ZNK3fst9ImplToFstINS_8internal13ArcMapFstImplINS_6ArcTplINS_17TropicalWeightTplIfEEEES6_NS_28RemoveSomeInputSymbolsMapperIS6_iEEEENS_3FstIS6_EEE16NumInputEpsilonsEi
  2379: 00000000001d2160    10 FUNC    WEAK   DEFAULT   12 _ZNSt23_Sp_counted_ptr_inplaceIN3fst8internal18DeterminizeFsaImplINS0_10ReverseArcINS0_6ArcTplINS0_17TropicalWeightTplIfEEEEEENS0_20DefaultCommonDivisorIS6_EENS0_24DefaultDeterminizeFilterIS8_EENS0_28DefaultDeterminizeStateTableIS8_NS0_18IntegerFilterStateIaEEEEEESaIvELN9__gnu_cxx12_Lock_policyE2EED0Ev
  2380: 000000000010b3c0   117 FUNC    WEAK   DEFAULT   12 _ZN3fst10MemoryPoolINS_13PoolAllocatorINS_6ArcTplINS_16LatticeWeightTplIfEEEEE2TNILi64EEEED1Ev
  2381: 000000000010ddc0    37 FUNC    WEAK   DEFAULT   12 _ZN3fst9VectorFstINS_6ArcTplINS_17TropicalWeightTplIfEEEENS_11VectorStateIS4_SaIS4_EEEED2Ev
  2382: 00000000001c9f90     1 FUNC    GLOBAL DEFAULT   12 vosk_batch_recognizer_accept_waveform
